
snax-mlperf-tiny-ad01.o:	file format elf32-littleriscv

Disassembly of section .text:

00000000 <run_network>:
       0: 13 01 01 fb  	addi	sp, sp, -80
       4: 23 26 11 04  	sw	ra, 76(sp)
       8: 23 24 81 04  	sw	s0, 72(sp)
       c: 23 22 91 04  	sw	s1, 68(sp)
      10: 23 20 21 05  	sw	s2, 64(sp)
      14: 23 2e 31 03  	sw	s3, 60(sp)
      18: 23 2c 41 03  	sw	s4, 56(sp)
      1c: 23 2a 51 03  	sw	s5, 52(sp)
      20: 23 28 61 03  	sw	s6, 48(sp)
      24: 23 26 71 03  	sw	s7, 44(sp)
      28: 23 24 81 03  	sw	s8, 40(sp)
      2c: 23 22 91 03  	sw	s9, 36(sp)
      30: 23 20 a1 03  	sw	s10, 32(sp)
      34: 23 2e b1 01  	sw	s11, 28(sp)
      38: 93 04 06 00  	mv	s1, a2
      3c: 23 28 a1 00  	sw	a0, 16(sp)
      40: 97 00 00 00  	auipc	ra, 0
      44: e7 80 00 00  	jalr	ra
      48: 93 0a 05 00  	mv	s5, a0
      4c: 97 00 00 00  	auipc	ra, 0
      50: e7 80 00 00  	jalr	ra
      54: 93 7c 15 00  	andi	s9, a0, 1
      58: 97 00 00 00  	auipc	ra, 0
      5c: e7 80 00 00  	jalr	ra

00000060 <.Lpcrel_hi0>:
      60: 17 05 00 00  	auipc	a0, 0
      64: 93 0b 05 00  	mv	s7, a0

00000068 <.Lpcrel_hi1>:
      68: 17 05 00 00  	auipc	a0, 0
      6c: 13 04 05 00  	mv	s0, a0
      70: 13 85 04 00  	mv	a0, s1
      74: 93 85 0b 00  	mv	a1, s7
      78: 13 06 04 00  	mv	a2, s0
      7c: 93 06 00 00  	li	a3, 0
      80: 97 00 00 00  	auipc	ra, 0
      84: e7 80 00 00  	jalr	ra
      88: b7 5d 00 00  	lui	s11, 5
      8c: 13 85 0d f4  	addi	a0, s11, -192
      90: 93 05 00 04  	li	a1, 64
      94: 97 00 00 00  	auipc	ra, 0
      98: e7 80 00 00  	jalr	ra
      9c: 03 2a 45 00  	lw	s4, 4(a0)
      a0: 37 05 05 00  	lui	a0, 80
      a4: 13 05 05 f4  	addi	a0, a0, -192
      a8: 93 05 00 04  	li	a1, 64
      ac: 97 00 00 00  	auipc	ra, 0
      b0: e7 80 00 00  	jalr	ra
      b4: 03 29 45 00  	lw	s2, 4(a0)
      b8: 37 15 00 00  	lui	a0, 1
      bc: 93 05 00 04  	li	a1, 64
      c0: 97 00 00 00  	auipc	ra, 0
      c4: e7 80 00 00  	jalr	ra
      c8: 83 29 45 00  	lw	s3, 4(a0)
      cc: 23 2c 91 01  	sw	s9, 24(sp)
      d0: 63 80 0c 00  	beqz	s9, 0xd0 <.Lpcrel_hi1+0x68>
      d4: 23 24 51 01  	sw	s5, 8(sp)
      d8: 23 26 81 00  	sw	s0, 12(sp)
      dc: 23 2a 91 00  	sw	s1, 20(sp)
      e0: 13 04 00 00  	li	s0, 0
      e4: 13 0d 00 40  	li	s10, 1024
      e8: 13 0b 00 01  	li	s6, 16
      ec: 93 0a 09 00  	mv	s5, s2

000000f0 <.LBB0_2>:
      f0: 93 04 00 00  	li	s1, 0
      f4: 13 8c 0a 00  	mv	s8, s5

000000f8 <.LBB0_3>:
      f8: b3 8c 9b 00  	add	s9, s7, s1
      fc: 13 06 10 00  	li	a2, 1
     100: 93 06 00 40  	li	a3, 1024
     104: 13 07 00 10  	li	a4, 256
     108: 93 07 00 05  	li	a5, 80
     10c: 13 85 0c 00  	mv	a0, s9
     110: 93 05 0c 00  	mv	a1, s8
     114: 97 00 00 00  	auipc	ra, 0
     118: e7 80 00 00  	jalr	ra
     11c: 13 85 1c 00  	addi	a0, s9, 1
     120: 93 05 8c 00  	addi	a1, s8, 8
     124: 13 06 10 00  	li	a2, 1
     128: 93 06 00 40  	li	a3, 1024
     12c: 13 07 00 10  	li	a4, 256
     130: 93 07 00 05  	li	a5, 80
     134: 97 00 00 00  	auipc	ra, 0
     138: e7 80 00 00  	jalr	ra
     13c: 13 85 2c 00  	addi	a0, s9, 2
     140: 93 05 0c 01  	addi	a1, s8, 16
     144: 13 06 10 00  	li	a2, 1
     148: 93 06 00 40  	li	a3, 1024
     14c: 13 07 00 10  	li	a4, 256
     150: 93 07 00 05  	li	a5, 80
     154: 97 00 00 00  	auipc	ra, 0
     158: e7 80 00 00  	jalr	ra
     15c: 13 85 3c 00  	addi	a0, s9, 3
     160: 93 05 8c 01  	addi	a1, s8, 24
     164: 13 06 10 00  	li	a2, 1
     168: 93 06 00 40  	li	a3, 1024
     16c: 13 07 00 10  	li	a4, 256
     170: 93 07 00 05  	li	a5, 80
     174: 97 00 00 00  	auipc	ra, 0
     178: e7 80 00 00  	jalr	ra
     17c: 13 85 4c 00  	addi	a0, s9, 4
     180: 93 05 0c 02  	addi	a1, s8, 32
     184: 13 06 10 00  	li	a2, 1
     188: 93 06 00 40  	li	a3, 1024
     18c: 13 07 00 10  	li	a4, 256
     190: 93 07 00 05  	li	a5, 80
     194: 97 00 00 00  	auipc	ra, 0
     198: e7 80 00 00  	jalr	ra
     19c: 13 85 5c 00  	addi	a0, s9, 5
     1a0: 93 05 8c 02  	addi	a1, s8, 40
     1a4: 13 06 10 00  	li	a2, 1
     1a8: 93 06 00 40  	li	a3, 1024
     1ac: 13 07 00 10  	li	a4, 256
     1b0: 93 07 00 05  	li	a5, 80
     1b4: 97 00 00 00  	auipc	ra, 0
     1b8: e7 80 00 00  	jalr	ra
     1bc: 13 85 6c 00  	addi	a0, s9, 6
     1c0: 93 05 0c 03  	addi	a1, s8, 48
     1c4: 13 06 10 00  	li	a2, 1
     1c8: 93 06 00 40  	li	a3, 1024
     1cc: 13 07 00 10  	li	a4, 256
     1d0: 93 07 00 05  	li	a5, 80
     1d4: 97 00 00 00  	auipc	ra, 0
     1d8: e7 80 00 00  	jalr	ra
     1dc: 13 85 7c 00  	addi	a0, s9, 7
     1e0: 93 05 8c 03  	addi	a1, s8, 56
     1e4: 13 06 10 00  	li	a2, 1
     1e8: 93 06 00 40  	li	a3, 1024
     1ec: 13 07 00 10  	li	a4, 256
     1f0: 93 07 00 05  	li	a5, 80
     1f4: 97 00 00 00  	auipc	ra, 0
     1f8: e7 80 00 00  	jalr	ra
     1fc: 93 84 04 08  	addi	s1, s1, 128
     200: 13 0c 1c 00  	addi	s8, s8, 1
     204: 63 90 a4 01  	bne	s1, s10, 0x204 <.LBB0_3+0x10c>
     208: 13 04 14 00  	addi	s0, s0, 1
     20c: 93 8b 8b 00  	addi	s7, s7, 8
     210: b3 8a ba 01  	add	s5, s5, s11
     214: 63 10 64 01  	bne	s0, s6, 0x214 <.LBB0_3+0x11c>
     218: 13 06 80 00  	li	a2, 8
     21c: 93 06 80 00  	li	a3, 8
     220: 13 07 00 10  	li	a4, 256
     224: 93 07 00 05  	li	a5, 80
     228: 83 24 41 01  	lw	s1, 20(sp)
     22c: 13 85 04 00  	mv	a0, s1
     230: 93 05 0a 00  	mv	a1, s4
     234: 97 00 00 00  	auipc	ra, 0
     238: e7 80 00 00  	jalr	ra
     23c: 13 85 04 28  	addi	a0, s1, 640
     240: 93 05 8a 00  	addi	a1, s4, 8
     244: 13 06 80 00  	li	a2, 8
     248: 93 06 80 00  	li	a3, 8
     24c: 13 07 00 10  	li	a4, 256
     250: 93 07 00 05  	li	a5, 80
     254: 97 00 00 00  	auipc	ra, 0
     258: e7 80 00 00  	jalr	ra
     25c: 13 85 04 50  	addi	a0, s1, 1280
     260: 93 05 0a 01  	addi	a1, s4, 16
     264: 13 06 80 00  	li	a2, 8
     268: 93 06 80 00  	li	a3, 8
     26c: 13 07 00 10  	li	a4, 256
     270: 93 07 00 05  	li	a5, 80
     274: 97 00 00 00  	auipc	ra, 0
     278: e7 80 00 00  	jalr	ra
     27c: 13 85 04 78  	addi	a0, s1, 1920
     280: 93 05 8a 01  	addi	a1, s4, 24
     284: 13 06 80 00  	li	a2, 8
     288: 93 06 80 00  	li	a3, 8
     28c: 13 07 00 10  	li	a4, 256
     290: 93 07 00 05  	li	a5, 80
     294: 97 00 00 00  	auipc	ra, 0
     298: e7 80 00 00  	jalr	ra
     29c: 13 85 f4 7f  	addi	a0, s1, 2047
     2a0: 93 0b 15 20  	addi	s7, a0, 513
     2a4: 93 05 0a 02  	addi	a1, s4, 32
     2a8: 13 06 80 00  	li	a2, 8
     2ac: 93 06 80 00  	li	a3, 8
     2b0: 13 07 00 10  	li	a4, 256
     2b4: 93 07 00 05  	li	a5, 80
     2b8: 13 85 0b 00  	mv	a0, s7
     2bc: 97 00 00 00  	auipc	ra, 0
     2c0: e7 80 00 00  	jalr	ra
     2c4: 13 85 0b 28  	addi	a0, s7, 640
     2c8: 93 05 8a 02  	addi	a1, s4, 40
     2cc: 13 06 80 00  	li	a2, 8
     2d0: 93 06 80 00  	li	a3, 8
     2d4: 13 07 00 10  	li	a4, 256
     2d8: 93 07 00 05  	li	a5, 80
     2dc: 97 00 00 00  	auipc	ra, 0
     2e0: e7 80 00 00  	jalr	ra
     2e4: 13 85 0b 50  	addi	a0, s7, 1280
     2e8: 93 05 0a 03  	addi	a1, s4, 48
     2ec: 13 06 80 00  	li	a2, 8
     2f0: 93 06 80 00  	li	a3, 8
     2f4: 13 07 00 10  	li	a4, 256
     2f8: 93 07 00 05  	li	a5, 80
     2fc: 97 00 00 00  	auipc	ra, 0
     300: e7 80 00 00  	jalr	ra
     304: 13 85 0b 78  	addi	a0, s7, 1920
     308: 93 05 8a 03  	addi	a1, s4, 56
     30c: 13 06 80 00  	li	a2, 8
     310: 93 06 80 00  	li	a3, 8
     314: 13 07 00 10  	li	a4, 256
     318: 93 07 00 05  	li	a5, 80
     31c: 97 00 00 00  	auipc	ra, 0
     320: e7 80 00 00  	jalr	ra
     324: 83 2c 81 01  	lw	s9, 24(sp)
     328: 03 24 c1 00  	lw	s0, 12(sp)
     32c: 83 2a 81 00  	lw	s5, 8(sp)

00000330 <.LBB0_6>:
     330: 97 00 00 00  	auipc	ra, 0
     334: e7 80 00 00  	jalr	ra
     338: 93 06 10 00  	li	a3, 1
     33c: 13 05 0a 00  	mv	a0, s4
     340: 93 05 09 00  	mv	a1, s2
     344: 13 86 09 00  	mv	a2, s3
     348: 97 00 00 00  	auipc	ra, 0
     34c: e7 80 00 00  	jalr	ra
     350: 13 fd 1a 00  	andi	s10, s5, 1
     354: 63 00 0d 00  	beqz	s10, 0x354 <.LBB0_6+0x24>
     358: 73 d0 00 3c  	csrwi	pmpaddr16, 1
     35c: 73 d0 10 3c  	csrwi	pmpaddr17, 1
     360: 73 d0 20 3c  	csrwi	pmpaddr18, 1
     364: 13 05 00 05  	li	a0, 80
     368: 73 10 35 3c  	csrw	pmpaddr19, a0
     36c: 73 50 48 3c  	csrwi	pmpaddr20, 16
     370: 73 d0 50 3c  	csrwi	pmpaddr21, 1
     374: 73 10 65 3c  	csrw	pmpaddr22, a0
     378: 73 50 78 3c  	csrwi	pmpaddr23, 16
     37c: 73 d0 80 3c  	csrwi	pmpaddr24, 1
     380: 73 50 90 3c  	csrwi	pmpaddr25, 0
     384: 73 50 a0 3c  	csrwi	pmpaddr26, 0
     388: 73 50 b0 3c  	csrwi	pmpaddr27, 0
     38c: 73 d0 c0 3c  	csrwi	pmpaddr28, 1
     390: 73 50 d8 3c  	csrwi	pmpaddr29, 16
     394: 73 d0 e0 3c  	csrwi	pmpaddr30, 1
     398: 73 d0 f0 3c  	csrwi	pmpaddr31, 1
     39c: 73 50 08 3d  	csrwi	pmpaddr32, 16
     3a0: 73 d0 10 3d  	csrwi	pmpaddr33, 1
     3a4: 73 50 20 3d  	csrwi	pmpaddr34, 0
     3a8: 73 50 30 3d  	csrwi	pmpaddr35, 0
     3ac: 73 50 40 3d  	csrwi	pmpaddr36, 0
     3b0: 93 05 00 10  	li	a1, 256
     3b4: 73 90 55 3d  	csrw	pmpaddr37, a1
     3b8: 73 50 60 3d  	csrwi	pmpaddr38, 0
     3bc: 37 56 00 00  	lui	a2, 5
     3c0: 73 10 76 3d  	csrw	pmpaddr39, a2
     3c4: 73 90 85 3d  	csrw	pmpaddr40, a1
     3c8: 73 10 96 3d  	csrw	pmpaddr41, a2
     3cc: 73 50 a0 3d  	csrwi	pmpaddr42, 0
     3d0: 73 50 b0 3d  	csrwi	pmpaddr43, 0
     3d4: 73 50 c0 3d  	csrwi	pmpaddr44, 0
     3d8: 73 50 d0 3d  	csrwi	pmpaddr45, 0
     3dc: 73 50 e0 3d  	csrwi	pmpaddr46, 0
     3e0: 73 90 f5 3d  	csrw	pmpaddr47, a1
     3e4: 37 16 00 00  	lui	a2, 1
     3e8: 73 10 06 3e  	csrw	pmpaddr48, a2
     3ec: 73 50 10 3e  	csrwi	pmpaddr49, 0
     3f0: 73 90 25 3e  	csrw	pmpaddr50, a1
     3f4: 73 10 36 3e  	csrw	pmpaddr51, a2
     3f8: 73 d0 40 3e  	csrwi	pmpaddr52, 1
     3fc: 73 50 54 3e  	csrwi	pmpaddr53, 8
     400: 73 d0 60 3e  	csrwi	pmpaddr54, 1
     404: 73 50 74 3e  	csrwi	pmpaddr55, 8
     408: 73 50 80 3e  	csrwi	pmpaddr56, 0
     40c: 73 50 90 3e  	csrwi	pmpaddr57, 0
     410: 73 50 a2 3e  	csrwi	pmpaddr58, 4
     414: 93 05 00 02  	li	a1, 32
     418: 73 90 b5 3e  	csrw	pmpaddr59, a1
     41c: 73 50 c2 3e  	csrwi	pmpaddr60, 4
     420: 73 90 d5 3e  	csrw	pmpaddr61, a1
     424: 73 10 ea 3e  	csrw	pmpaddr62, s4
     428: 73 10 f9 3e  	csrw	pmpaddr63, s2
     42c: 73 10 09 3f  	csrw	1008, s2
     430: 73 90 19 3f  	csrw	1009, s3
     434: 73 90 29 3f  	csrw	1010, s3
     438: 73 50 30 3f  	csrwi	1011, 0
     43c: 73 10 75 3f  	csrw	1015, a0
     440: 73 50 88 3f  	csrwi	1016, 16
     444: 73 d0 90 3f  	csrwi	1017, 1
     448: 13 05 90 05  	li	a0, 89
     44c: 73 10 a5 3f  	csrw	1018, a0
     450: 73 50 b0 3f  	csrwi	1019, 0
     454: 73 50 c0 3f  	csrwi	1020, 0
     458: 73 50 d0 3f  	csrwi	1021, 0
     45c: 73 50 e0 3f  	csrwi	1022, 0
     460: 73 d0 f0 3f  	csrwi	1023, 1
     464: 73 d0 40 3f  	csrwi	1012, 1
     468: 73 d0 00 40  	csrwi	1024, 1
     46c: 73 50 40 3f  	csrwi	1012, 0
     470: 73 50 40 3f  	csrwi	1012, 0
     474: 73 50 00 40  	csrwi	1024, 0
     478: 73 50 00 40  	csrwi	1024, 0

0000047c <.LBB0_8>:
     47c: 93 06 20 00  	li	a3, 2
     480: 13 05 0a 00  	mv	a0, s4
     484: 93 05 09 00  	mv	a1, s2
     488: 13 86 09 00  	mv	a2, s3
     48c: 97 00 00 00  	auipc	ra, 0
     490: e7 80 00 00  	jalr	ra
     494: 97 00 00 00  	auipc	ra, 0
     498: e7 80 00 00  	jalr	ra
     49c: 63 80 0c 00  	beqz	s9, 0x49c <.LBB0_8+0x20>
     4a0: 13 06 00 02  	li	a2, 32
     4a4: 93 06 00 10  	li	a3, 256
     4a8: 13 07 00 02  	li	a4, 32
     4ac: 93 07 00 01  	li	a5, 16
     4b0: 13 85 09 00  	mv	a0, s3
     4b4: 93 05 04 00  	mv	a1, s0
     4b8: 97 00 00 00  	auipc	ra, 0
     4bc: e7 80 00 00  	jalr	ra
     4c0: 13 85 09 02  	addi	a0, s3, 32
     4c4: 93 05 04 20  	addi	a1, s0, 512
     4c8: 13 06 00 02  	li	a2, 32
     4cc: 93 06 00 10  	li	a3, 256
     4d0: 13 07 00 02  	li	a4, 32
     4d4: 93 07 00 01  	li	a5, 16
     4d8: 97 00 00 00  	auipc	ra, 0
     4dc: e7 80 00 00  	jalr	ra
     4e0: 13 85 09 04  	addi	a0, s3, 64
     4e4: 93 05 04 40  	addi	a1, s0, 1024
     4e8: 13 06 00 02  	li	a2, 32
     4ec: 93 06 00 10  	li	a3, 256
     4f0: 13 07 00 02  	li	a4, 32
     4f4: 93 07 00 01  	li	a5, 16
     4f8: 97 00 00 00  	auipc	ra, 0
     4fc: e7 80 00 00  	jalr	ra
     500: 13 85 09 06  	addi	a0, s3, 96
     504: 93 05 04 60  	addi	a1, s0, 1536
     508: 13 06 00 02  	li	a2, 32
     50c: 93 06 00 10  	li	a3, 256
     510: 13 07 00 02  	li	a4, 32
     514: 93 07 00 01  	li	a5, 16
     518: 97 00 00 00  	auipc	ra, 0
     51c: e7 80 00 00  	jalr	ra
     520: 13 85 09 08  	addi	a0, s3, 128
     524: 13 04 f4 7f  	addi	s0, s0, 2047
     528: 93 05 14 00  	addi	a1, s0, 1
     52c: 13 06 00 02  	li	a2, 32
     530: 93 06 00 10  	li	a3, 256
     534: 13 07 00 02  	li	a4, 32
     538: 93 07 00 01  	li	a5, 16
     53c: 97 00 00 00  	auipc	ra, 0
     540: e7 80 00 00  	jalr	ra
     544: 13 85 09 0a  	addi	a0, s3, 160
     548: 93 05 14 20  	addi	a1, s0, 513
     54c: 13 06 00 02  	li	a2, 32
     550: 93 06 00 10  	li	a3, 256
     554: 13 07 00 02  	li	a4, 32
     558: 93 07 00 01  	li	a5, 16
     55c: 97 00 00 00  	auipc	ra, 0
     560: e7 80 00 00  	jalr	ra
     564: 13 85 09 0c  	addi	a0, s3, 192
     568: 93 05 14 40  	addi	a1, s0, 1025
     56c: 13 06 00 02  	li	a2, 32
     570: 93 06 00 10  	li	a3, 256
     574: 13 07 00 02  	li	a4, 32
     578: 93 07 00 01  	li	a5, 16
     57c: 97 00 00 00  	auipc	ra, 0
     580: e7 80 00 00  	jalr	ra
     584: 13 85 09 0e  	addi	a0, s3, 224
     588: 93 05 14 60  	addi	a1, s0, 1537
     58c: 13 06 00 02  	li	a2, 32
     590: 93 06 00 10  	li	a3, 256
     594: 13 07 00 02  	li	a4, 32
     598: 93 07 00 01  	li	a5, 16
     59c: 97 00 00 00  	auipc	ra, 0
     5a0: e7 80 00 00  	jalr	ra

000005a4 <.LBB0_10>:
     5a4: 97 00 00 00  	auipc	ra, 0
     5a8: e7 80 00 00  	jalr	ra

000005ac <.Lpcrel_hi2>:
     5ac: 17 05 00 00  	auipc	a0, 0
     5b0: 93 05 05 00  	mv	a1, a0

000005b4 <.Lpcrel_hi3>:
     5b4: 17 05 00 00  	auipc	a0, 0
     5b8: 13 09 05 00  	mv	s2, a0
     5bc: 93 06 30 00  	li	a3, 3
     5c0: 13 85 04 00  	mv	a0, s1
     5c4: 13 06 09 00  	mv	a2, s2
     5c8: 97 00 00 00  	auipc	ra, 0
     5cc: e7 80 00 00  	jalr	ra
     5d0: 97 00 00 00  	auipc	ra, 0
     5d4: e7 80 00 00  	jalr	ra

000005d8 <.Lpcrel_hi4>:
     5d8: 17 05 00 00  	auipc	a0, 0
     5dc: 13 05 05 00  	mv	a0, a0

000005e0 <.Lpcrel_hi5>:
     5e0: 97 05 00 00  	auipc	a1, 0
     5e4: 13 86 05 00  	mv	a2, a1
     5e8: 93 05 09 00  	mv	a1, s2
     5ec: 93 06 00 00  	li	a3, 0
     5f0: 97 00 00 00  	auipc	ra, 0
     5f4: e7 80 00 00  	jalr	ra
     5f8: 13 05 00 20  	li	a0, 512
     5fc: 93 05 00 04  	li	a1, 64
     600: 97 00 00 00  	auipc	ra, 0
     604: e7 80 00 00  	jalr	ra
     608: 83 24 45 00  	lw	s1, 4(a0)
     60c: 37 15 00 00  	lui	a0, 1
     610: 93 05 00 04  	li	a1, 64
     614: 97 00 00 00  	auipc	ra, 0
     618: e7 80 00 00  	jalr	ra
     61c: 83 29 45 00  	lw	s3, 4(a0)
     620: 37 15 00 00  	lui	a0, 1
     624: 93 05 00 04  	li	a1, 64
     628: 97 00 00 00  	auipc	ra, 0
     62c: e7 80 00 00  	jalr	ra
     630: 03 29 45 00  	lw	s2, 4(a0)
     634: 63 80 0c 00  	beqz	s9, 0x634 <.Lpcrel_hi5+0x54>

00000638 <.Lpcrel_hi6>:
     638: 17 05 00 00  	auipc	a0, 0
     63c: 13 05 05 00  	mv	a0, a0
     640: 37 16 00 00  	lui	a2, 1
     644: 93 85 09 00  	mv	a1, s3
     648: 97 00 00 00  	auipc	ra, 0
     64c: e7 80 00 00  	jalr	ra

00000650 <.Lpcrel_hi7>:
     650: 17 05 00 00  	auipc	a0, 0
     654: 13 05 05 00  	mv	a0, a0
     658: 13 06 00 20  	li	a2, 512
     65c: 93 85 04 00  	mv	a1, s1
     660: 97 00 00 00  	auipc	ra, 0
     664: e7 80 00 00  	jalr	ra

00000668 <.LBB0_12>:
     668: 97 00 00 00  	auipc	ra, 0
     66c: e7 80 00 00  	jalr	ra
     670: 93 06 10 00  	li	a3, 1
     674: 13 85 04 00  	mv	a0, s1
     678: 93 85 09 00  	mv	a1, s3
     67c: 13 06 09 00  	mv	a2, s2
     680: 97 00 00 00  	auipc	ra, 0
     684: e7 80 00 00  	jalr	ra
     688: 63 00 0d 00  	beqz	s10, 0x688 <.LBB0_12+0x20>
     68c: 13 05 10 00  	li	a0, 1
     690: 93 15 b5 00  	slli	a1, a0, 11
     694: 33 85 b9 00  	add	a0, s3, a1
     698: b3 05 b9 00  	add	a1, s2, a1
     69c: 13 06 00 08  	li	a2, 128
     6a0: 93 86 04 00  	mv	a3, s1
     6a4: 13 07 09 00  	mv	a4, s2
     6a8: 93 87 09 00  	mv	a5, s3

000006ac <.LBB0_14>:
     6ac: 03 a8 06 00  	lw	a6, 0(a3)
     6b0: 83 a8 07 00  	lw	a7, 0(a5)
     6b4: 33 88 08 01  	add	a6, a7, a6
     6b8: 23 20 07 01  	sw	a6, 0(a4)
     6bc: 93 87 47 00  	addi	a5, a5, 4
     6c0: 13 07 47 00  	addi	a4, a4, 4
     6c4: 13 06 f6 ff  	addi	a2, a2, -1
     6c8: 93 86 46 00  	addi	a3, a3, 4
     6cc: 63 10 06 00  	bnez	a2, 0x6cc <.LBB0_14+0x20>
     6d0: 13 06 09 20  	addi	a2, s2, 512
     6d4: 93 86 09 20  	addi	a3, s3, 512
     6d8: 13 07 00 08  	li	a4, 128
     6dc: 93 87 04 00  	mv	a5, s1

000006e0 <.LBB0_16>:
     6e0: 03 a8 07 00  	lw	a6, 0(a5)
     6e4: 83 a8 06 00  	lw	a7, 0(a3)
     6e8: 33 88 08 01  	add	a6, a7, a6
     6ec: 23 20 06 01  	sw	a6, 0(a2)
     6f0: 13 07 f7 ff  	addi	a4, a4, -1
     6f4: 13 06 46 00  	addi	a2, a2, 4
     6f8: 93 86 46 00  	addi	a3, a3, 4
     6fc: 93 87 47 00  	addi	a5, a5, 4
     700: 63 10 07 00  	bnez	a4, 0x700 <.LBB0_16+0x20>
     704: 13 06 09 40  	addi	a2, s2, 1024
     708: 93 86 09 40  	addi	a3, s3, 1024
     70c: 13 07 00 08  	li	a4, 128
     710: 93 87 04 00  	mv	a5, s1

00000714 <.LBB0_18>:
     714: 03 a8 07 00  	lw	a6, 0(a5)
     718: 83 a8 06 00  	lw	a7, 0(a3)
     71c: 33 88 08 01  	add	a6, a7, a6
     720: 23 20 06 01  	sw	a6, 0(a2)
     724: 13 07 f7 ff  	addi	a4, a4, -1
     728: 13 06 46 00  	addi	a2, a2, 4
     72c: 93 86 46 00  	addi	a3, a3, 4
     730: 93 87 47 00  	addi	a5, a5, 4
     734: 63 10 07 00  	bnez	a4, 0x734 <.LBB0_18+0x20>
     738: 13 06 09 60  	addi	a2, s2, 1536
     73c: 93 86 09 60  	addi	a3, s3, 1536
     740: 13 07 00 08  	li	a4, 128
     744: 93 87 04 00  	mv	a5, s1

00000748 <.LBB0_20>:
     748: 03 a8 07 00  	lw	a6, 0(a5)
     74c: 83 a8 06 00  	lw	a7, 0(a3)
     750: 33 88 08 01  	add	a6, a7, a6
     754: 23 20 06 01  	sw	a6, 0(a2)
     758: 13 07 f7 ff  	addi	a4, a4, -1
     75c: 13 06 46 00  	addi	a2, a2, 4
     760: 93 86 46 00  	addi	a3, a3, 4
     764: 93 87 47 00  	addi	a5, a5, 4
     768: 63 10 07 00  	bnez	a4, 0x768 <.LBB0_20+0x20>
     76c: 13 06 00 08  	li	a2, 128
     770: 93 86 04 00  	mv	a3, s1
     774: 13 07 05 00  	mv	a4, a0
     778: 93 87 05 00  	mv	a5, a1

0000077c <.LBB0_22>:
     77c: 03 a8 06 00  	lw	a6, 0(a3)
     780: 83 28 07 00  	lw	a7, 0(a4)
     784: 33 88 08 01  	add	a6, a7, a6
     788: 23 a0 07 01  	sw	a6, 0(a5)
     78c: 13 06 f6 ff  	addi	a2, a2, -1
     790: 93 87 47 00  	addi	a5, a5, 4
     794: 13 07 47 00  	addi	a4, a4, 4
     798: 93 86 46 00  	addi	a3, a3, 4
     79c: 63 10 06 00  	bnez	a2, 0x79c <.LBB0_22+0x20>
     7a0: 13 86 05 20  	addi	a2, a1, 512
     7a4: 93 06 05 20  	addi	a3, a0, 512
     7a8: 13 07 00 08  	li	a4, 128
     7ac: 93 87 04 00  	mv	a5, s1

000007b0 <.LBB0_24>:
     7b0: 03 a8 07 00  	lw	a6, 0(a5)
     7b4: 83 a8 06 00  	lw	a7, 0(a3)
     7b8: 33 88 08 01  	add	a6, a7, a6
     7bc: 23 20 06 01  	sw	a6, 0(a2)
     7c0: 13 07 f7 ff  	addi	a4, a4, -1
     7c4: 13 06 46 00  	addi	a2, a2, 4
     7c8: 93 86 46 00  	addi	a3, a3, 4
     7cc: 93 87 47 00  	addi	a5, a5, 4
     7d0: 63 10 07 00  	bnez	a4, 0x7d0 <.LBB0_24+0x20>
     7d4: 13 86 05 40  	addi	a2, a1, 1024
     7d8: 93 06 05 40  	addi	a3, a0, 1024
     7dc: 13 07 00 08  	li	a4, 128
     7e0: 93 87 04 00  	mv	a5, s1

000007e4 <.LBB0_26>:
     7e4: 03 a8 07 00  	lw	a6, 0(a5)
     7e8: 83 a8 06 00  	lw	a7, 0(a3)
     7ec: 33 88 08 01  	add	a6, a7, a6
     7f0: 23 20 06 01  	sw	a6, 0(a2)
     7f4: 13 07 f7 ff  	addi	a4, a4, -1
     7f8: 13 06 46 00  	addi	a2, a2, 4
     7fc: 93 86 46 00  	addi	a3, a3, 4
     800: 93 87 47 00  	addi	a5, a5, 4
     804: 63 10 07 00  	bnez	a4, 0x804 <.LBB0_26+0x20>
     808: 93 85 05 60  	addi	a1, a1, 1536
     80c: 13 05 05 60  	addi	a0, a0, 1536
     810: 13 06 00 08  	li	a2, 128
     814: 93 86 04 00  	mv	a3, s1

00000818 <.LBB0_28>:
     818: 03 a7 06 00  	lw	a4, 0(a3)
     81c: 83 27 05 00  	lw	a5, 0(a0)
     820: 33 87 e7 00  	add	a4, a5, a4
     824: 23 a0 e5 00  	sw	a4, 0(a1)
     828: 13 06 f6 ff  	addi	a2, a2, -1
     82c: 93 85 45 00  	addi	a1, a1, 4
     830: 13 05 45 00  	addi	a0, a0, 4
     834: 93 86 46 00  	addi	a3, a3, 4
     838: 63 10 06 00  	bnez	a2, 0x838 <.LBB0_28+0x20>

0000083c <.LBB0_29>:
     83c: 93 06 20 00  	li	a3, 2
     840: 13 85 04 00  	mv	a0, s1
     844: 93 85 09 00  	mv	a1, s3
     848: 13 06 09 00  	mv	a2, s2
     84c: 97 00 00 00  	auipc	ra, 0
     850: e7 80 00 00  	jalr	ra
     854: 97 00 00 00  	auipc	ra, 0
     858: e7 80 00 00  	jalr	ra
     85c: 63 80 0c 00  	beqz	s9, 0x85c <.LBB0_29+0x20>

00000860 <.Lpcrel_hi8>:
     860: 17 05 00 00  	auipc	a0, 0
     864: 93 05 05 00  	mv	a1, a0
     868: 37 16 00 00  	lui	a2, 1
     86c: 13 05 09 00  	mv	a0, s2
     870: 97 00 00 00  	auipc	ra, 0
     874: e7 80 00 00  	jalr	ra

00000878 <.LBB0_31>:
     878: 97 00 00 00  	auipc	ra, 0
     87c: e7 80 00 00  	jalr	ra

00000880 <.Lpcrel_hi9>:
     880: 17 05 00 00  	auipc	a0, 0
     884: 13 05 05 00  	mv	a0, a0

00000888 <.Lpcrel_hi10>:
     888: 97 05 00 00  	auipc	a1, 0
     88c: 93 85 05 00  	mv	a1, a1

00000890 <.Lpcrel_hi11>:
     890: 17 06 00 00  	auipc	a2, 0
     894: 13 0a 06 00  	mv	s4, a2
     898: 93 06 30 00  	li	a3, 3
     89c: 13 06 0a 00  	mv	a2, s4
     8a0: 97 00 00 00  	auipc	ra, 0
     8a4: e7 80 00 00  	jalr	ra
     8a8: 97 00 00 00  	auipc	ra, 0
     8ac: e7 80 00 00  	jalr	ra

000008b0 <.Lpcrel_hi12>:
     8b0: 17 05 00 00  	auipc	a0, 0
     8b4: 93 04 05 00  	mv	s1, a0
     8b8: 13 05 0a 00  	mv	a0, s4
     8bc: 93 05 0a 00  	mv	a1, s4
     8c0: 13 86 04 00  	mv	a2, s1
     8c4: 93 06 00 00  	li	a3, 0
     8c8: 97 00 00 00  	auipc	ra, 0
     8cc: e7 80 00 00  	jalr	ra
     8d0: 37 15 00 00  	lui	a0, 1
     8d4: 93 05 00 04  	li	a1, 64
     8d8: 37 14 00 00  	lui	s0, 1
     8dc: 97 00 00 00  	auipc	ra, 0
     8e0: e7 80 00 00  	jalr	ra
     8e4: 83 29 45 00  	lw	s3, 4(a0)
     8e8: 13 05 04 f4  	addi	a0, s0, -192
     8ec: 93 05 00 04  	li	a1, 64
     8f0: 97 00 00 00  	auipc	ra, 0
     8f4: e7 80 00 00  	jalr	ra
     8f8: 03 29 45 00  	lw	s2, 4(a0)
     8fc: 63 80 0c 00  	beqz	s9, 0x8fc <.Lpcrel_hi12+0x4c>
     900: 13 06 00 02  	li	a2, 32
     904: 93 06 00 02  	li	a3, 32
     908: 13 07 00 10  	li	a4, 256
     90c: 93 07 00 01  	li	a5, 16
     910: 13 05 0a 00  	mv	a0, s4
     914: 93 85 09 00  	mv	a1, s3
     918: 97 00 00 00  	auipc	ra, 0
     91c: e7 80 00 00  	jalr	ra
     920: 93 85 09 02  	addi	a1, s3, 32
     924: 13 05 0a 20  	addi	a0, s4, 512
     928: 13 06 00 02  	li	a2, 32
     92c: 93 06 00 02  	li	a3, 32
     930: 13 07 00 10  	li	a4, 256
     934: 93 07 00 01  	li	a5, 16
     938: 97 00 00 00  	auipc	ra, 0
     93c: e7 80 00 00  	jalr	ra
     940: 93 85 09 04  	addi	a1, s3, 64
     944: 13 05 0a 40  	addi	a0, s4, 1024
     948: 13 06 00 02  	li	a2, 32
     94c: 93 06 00 02  	li	a3, 32
     950: 13 07 00 10  	li	a4, 256
     954: 93 07 00 01  	li	a5, 16
     958: 97 00 00 00  	auipc	ra, 0
     95c: e7 80 00 00  	jalr	ra
     960: 93 85 09 06  	addi	a1, s3, 96
     964: 13 05 0a 60  	addi	a0, s4, 1536
     968: 13 06 00 02  	li	a2, 32
     96c: 93 06 00 02  	li	a3, 32
     970: 13 07 00 10  	li	a4, 256
     974: 93 07 00 01  	li	a5, 16
     978: 97 00 00 00  	auipc	ra, 0
     97c: e7 80 00 00  	jalr	ra
     980: 93 85 09 08  	addi	a1, s3, 128
     984: 13 04 fa 7f  	addi	s0, s4, 2047
     988: 13 05 14 00  	addi	a0, s0, 1
     98c: 13 06 00 02  	li	a2, 32
     990: 93 06 00 02  	li	a3, 32
     994: 13 07 00 10  	li	a4, 256
     998: 93 07 00 01  	li	a5, 16
     99c: 97 00 00 00  	auipc	ra, 0
     9a0: e7 80 00 00  	jalr	ra
     9a4: 93 85 09 0a  	addi	a1, s3, 160
     9a8: 13 05 14 20  	addi	a0, s0, 513
     9ac: 13 06 00 02  	li	a2, 32
     9b0: 93 06 00 02  	li	a3, 32
     9b4: 13 07 00 10  	li	a4, 256
     9b8: 93 07 00 01  	li	a5, 16
     9bc: 97 00 00 00  	auipc	ra, 0
     9c0: e7 80 00 00  	jalr	ra
     9c4: 93 85 09 0c  	addi	a1, s3, 192
     9c8: 13 05 14 40  	addi	a0, s0, 1025
     9cc: 13 06 00 02  	li	a2, 32
     9d0: 93 06 00 02  	li	a3, 32
     9d4: 13 07 00 10  	li	a4, 256
     9d8: 93 07 00 01  	li	a5, 16
     9dc: 97 00 00 00  	auipc	ra, 0
     9e0: e7 80 00 00  	jalr	ra
     9e4: 93 85 09 0e  	addi	a1, s3, 224
     9e8: 13 05 14 60  	addi	a0, s0, 1537
     9ec: 13 06 00 02  	li	a2, 32
     9f0: 93 06 00 02  	li	a3, 32
     9f4: 13 07 00 10  	li	a4, 256
     9f8: 93 07 00 01  	li	a5, 16
     9fc: 97 00 00 00  	auipc	ra, 0
     a00: e7 80 00 00  	jalr	ra

00000a04 <.LBB0_33>:
     a04: 97 00 00 00  	auipc	ra, 0
     a08: e7 80 00 00  	jalr	ra
     a0c: 93 06 10 00  	li	a3, 1
     a10: 13 85 09 00  	mv	a0, s3
     a14: 93 85 09 00  	mv	a1, s3
     a18: 13 06 09 00  	mv	a2, s2
     a1c: 97 00 00 00  	auipc	ra, 0
     a20: e7 80 00 00  	jalr	ra
     a24: 63 00 0d 00  	beqz	s10, 0xa24 <.LBB0_33+0x20>
     a28: 73 d0 00 3c  	csrwi	pmpaddr16, 1
     a2c: 73 d0 10 3c  	csrwi	pmpaddr17, 1
     a30: 73 d0 20 3c  	csrwi	pmpaddr18, 1
     a34: 73 d0 30 3c  	csrwi	pmpaddr19, 1
     a38: 73 50 48 3c  	csrwi	pmpaddr20, 16
     a3c: 73 d0 50 3c  	csrwi	pmpaddr21, 1
     a40: 73 d0 60 3c  	csrwi	pmpaddr22, 1
     a44: 73 50 78 3c  	csrwi	pmpaddr23, 16
     a48: 73 d0 80 3c  	csrwi	pmpaddr24, 1
     a4c: 73 d0 90 3c  	csrwi	pmpaddr25, 1
     a50: 73 50 a8 3c  	csrwi	pmpaddr26, 16
     a54: 73 d0 b0 3c  	csrwi	pmpaddr27, 1
     a58: 73 d0 c0 3c  	csrwi	pmpaddr28, 1
     a5c: 73 50 d8 3c  	csrwi	pmpaddr29, 16
     a60: 73 d0 e0 3c  	csrwi	pmpaddr30, 1
     a64: 73 50 f0 3c  	csrwi	pmpaddr31, 0
     a68: 73 50 00 3d  	csrwi	pmpaddr32, 0
     a6c: 73 50 10 3d  	csrwi	pmpaddr33, 0
     a70: 73 50 20 3d  	csrwi	pmpaddr34, 0
     a74: 73 50 30 3d  	csrwi	pmpaddr35, 0
     a78: 73 50 40 3d  	csrwi	pmpaddr36, 0
     a7c: 73 50 50 3d  	csrwi	pmpaddr37, 0
     a80: 73 50 60 3d  	csrwi	pmpaddr38, 0
     a84: 73 50 70 3d  	csrwi	pmpaddr39, 0
     a88: 73 50 80 3d  	csrwi	pmpaddr40, 0
     a8c: 73 50 90 3d  	csrwi	pmpaddr41, 0
     a90: 73 50 a0 3d  	csrwi	pmpaddr42, 0
     a94: 73 50 b0 3d  	csrwi	pmpaddr43, 0
     a98: 13 05 00 10  	li	a0, 256
     a9c: 73 10 c5 3d  	csrw	pmpaddr44, a0
     aa0: b7 15 00 00  	lui	a1, 1
     aa4: 73 90 d5 3d  	csrw	pmpaddr45, a1
     aa8: 73 50 e0 3d  	csrwi	pmpaddr46, 0
     aac: 73 10 f5 3d  	csrw	pmpaddr47, a0
     ab0: 73 90 05 3e  	csrw	pmpaddr48, a1
     ab4: 73 50 10 3e  	csrwi	pmpaddr49, 0
     ab8: 73 50 20 3e  	csrwi	pmpaddr50, 0
     abc: 73 50 30 3e  	csrwi	pmpaddr51, 0
     ac0: 73 d0 40 3e  	csrwi	pmpaddr52, 1
     ac4: 73 50 54 3e  	csrwi	pmpaddr53, 8
     ac8: 73 d0 60 3e  	csrwi	pmpaddr54, 1
     acc: 73 50 74 3e  	csrwi	pmpaddr55, 8
     ad0: 73 d0 80 3e  	csrwi	pmpaddr56, 1
     ad4: 73 50 94 3e  	csrwi	pmpaddr57, 8
     ad8: 73 50 a2 3e  	csrwi	pmpaddr58, 4
     adc: 13 05 00 02  	li	a0, 32
     ae0: 73 10 b5 3e  	csrw	pmpaddr59, a0
     ae4: 73 50 c0 3e  	csrwi	pmpaddr60, 0
     ae8: 73 50 d0 3e  	csrwi	pmpaddr61, 0
     aec: 37 05 00 10  	lui	a0, 65536
     af0: 93 05 05 08  	addi	a1, a0, 128
     af4: 73 90 e5 3e  	csrw	pmpaddr62, a1
     af8: 13 05 05 04  	addi	a0, a0, 64
     afc: 73 10 f5 3e  	csrw	pmpaddr63, a0
     b00: 73 10 09 3f  	csrw	1008, s2
     b04: 73 90 19 3f  	csrw	1009, s3
     b08: 73 90 29 3f  	csrw	1010, s3
     b0c: 73 50 30 3f  	csrwi	1011, 0
     b10: 73 d0 70 3f  	csrwi	1015, 1
     b14: 73 50 88 3f  	csrwi	1016, 16
     b18: 73 d0 90 3f  	csrwi	1017, 1
     b1c: 73 50 a0 3f  	csrwi	1018, 0
     b20: 37 85 27 7f  	lui	a0, 520824
     b24: 73 10 b5 3f  	csrw	1019, a0
     b28: 13 05 00 18  	li	a0, 384
     b2c: 73 10 c5 3f  	csrw	1020, a0
     b30: 37 f5 a1 61  	lui	a0, 399903
     b34: 13 05 75 c3  	addi	a0, a0, -969
     b38: 73 10 d5 3f  	csrw	1021, a0
     b3c: 73 50 e8 3f  	csrwi	1022, 16
     b40: 73 50 f0 3f  	csrwi	1023, 0
     b44: 73 d0 40 3f  	csrwi	1012, 1
     b48: 73 d0 00 40  	csrwi	1024, 1
     b4c: 73 50 40 3f  	csrwi	1012, 0
     b50: 73 50 40 3f  	csrwi	1012, 0
     b54: 73 50 00 40  	csrwi	1024, 0
     b58: 73 50 00 40  	csrwi	1024, 0

00000b5c <.LBB0_35>:
     b5c: 93 06 20 00  	li	a3, 2
     b60: 13 85 09 00  	mv	a0, s3
     b64: 93 85 09 00  	mv	a1, s3
     b68: 13 06 09 00  	mv	a2, s2
     b6c: 97 00 00 00  	auipc	ra, 0
     b70: e7 80 00 00  	jalr	ra
     b74: 97 00 00 00  	auipc	ra, 0
     b78: e7 80 00 00  	jalr	ra
     b7c: 63 80 0c 00  	beqz	s9, 0xb7c <.LBB0_35+0x20>
     b80: 13 06 80 00  	li	a2, 8
     b84: 93 06 00 10  	li	a3, 256
     b88: 13 07 80 00  	li	a4, 8
     b8c: 93 07 00 01  	li	a5, 16
     b90: 13 05 09 00  	mv	a0, s2
     b94: 93 85 04 00  	mv	a1, s1
     b98: 97 00 00 00  	auipc	ra, 0
     b9c: e7 80 00 00  	jalr	ra
     ba0: 13 05 89 00  	addi	a0, s2, 8
     ba4: 93 85 04 08  	addi	a1, s1, 128
     ba8: 13 06 80 00  	li	a2, 8
     bac: 93 06 00 10  	li	a3, 256
     bb0: 13 07 80 00  	li	a4, 8
     bb4: 93 07 00 01  	li	a5, 16
     bb8: 97 00 00 00  	auipc	ra, 0
     bbc: e7 80 00 00  	jalr	ra
     bc0: 13 05 09 01  	addi	a0, s2, 16
     bc4: 93 85 04 10  	addi	a1, s1, 256
     bc8: 13 06 80 00  	li	a2, 8
     bcc: 93 06 00 10  	li	a3, 256
     bd0: 13 07 80 00  	li	a4, 8
     bd4: 93 07 00 01  	li	a5, 16
     bd8: 97 00 00 00  	auipc	ra, 0
     bdc: e7 80 00 00  	jalr	ra
     be0: 13 05 89 01  	addi	a0, s2, 24
     be4: 93 85 04 18  	addi	a1, s1, 384
     be8: 13 06 80 00  	li	a2, 8
     bec: 93 06 00 10  	li	a3, 256
     bf0: 13 07 80 00  	li	a4, 8
     bf4: 93 07 00 01  	li	a5, 16
     bf8: 97 00 00 00  	auipc	ra, 0
     bfc: e7 80 00 00  	jalr	ra
     c00: 13 05 09 02  	addi	a0, s2, 32
     c04: 93 85 04 20  	addi	a1, s1, 512
     c08: 13 06 80 00  	li	a2, 8
     c0c: 93 06 00 10  	li	a3, 256
     c10: 13 07 80 00  	li	a4, 8
     c14: 93 07 00 01  	li	a5, 16
     c18: 97 00 00 00  	auipc	ra, 0
     c1c: e7 80 00 00  	jalr	ra
     c20: 13 05 89 02  	addi	a0, s2, 40
     c24: 93 85 04 28  	addi	a1, s1, 640
     c28: 13 06 80 00  	li	a2, 8
     c2c: 93 06 00 10  	li	a3, 256
     c30: 13 07 80 00  	li	a4, 8
     c34: 93 07 00 01  	li	a5, 16
     c38: 97 00 00 00  	auipc	ra, 0
     c3c: e7 80 00 00  	jalr	ra
     c40: 13 05 09 03  	addi	a0, s2, 48
     c44: 93 85 04 30  	addi	a1, s1, 768
     c48: 13 06 80 00  	li	a2, 8
     c4c: 93 06 00 10  	li	a3, 256
     c50: 13 07 80 00  	li	a4, 8
     c54: 93 07 00 01  	li	a5, 16
     c58: 97 00 00 00  	auipc	ra, 0
     c5c: e7 80 00 00  	jalr	ra
     c60: 13 05 89 03  	addi	a0, s2, 56
     c64: 93 85 04 38  	addi	a1, s1, 896
     c68: 13 06 80 00  	li	a2, 8
     c6c: 93 06 00 10  	li	a3, 256
     c70: 13 07 80 00  	li	a4, 8
     c74: 93 07 00 01  	li	a5, 16
     c78: 97 00 00 00  	auipc	ra, 0
     c7c: e7 80 00 00  	jalr	ra

00000c80 <.LBB0_37>:
     c80: 97 00 00 00  	auipc	ra, 0
     c84: e7 80 00 00  	jalr	ra

00000c88 <.Lpcrel_hi13>:
     c88: 17 05 00 00  	auipc	a0, 0
     c8c: 13 05 05 00  	mv	a0, a0

00000c90 <.Lpcrel_hi14>:
     c90: 97 05 00 00  	auipc	a1, 0
     c94: 93 8a 05 00  	mv	s5, a1
     c98: 93 06 30 00  	li	a3, 3
     c9c: 93 05 05 00  	mv	a1, a0
     ca0: 13 86 0a 00  	mv	a2, s5
     ca4: 97 00 00 00  	auipc	ra, 0
     ca8: e7 80 00 00  	jalr	ra
     cac: 97 00 00 00  	auipc	ra, 0
     cb0: e7 80 00 00  	jalr	ra

00000cb4 <.Lpcrel_hi15>:
     cb4: 17 05 00 00  	auipc	a0, 0
     cb8: 13 0b 05 00  	mv	s6, a0

00000cbc <.Lpcrel_hi16>:
     cbc: 17 05 00 00  	auipc	a0, 0
     cc0: 13 04 05 00  	mv	s0, a0
     cc4: 13 85 0a 00  	mv	a0, s5
     cc8: 93 05 0b 00  	mv	a1, s6
     ccc: 13 06 04 00  	mv	a2, s0
     cd0: 93 06 00 00  	li	a3, 0
     cd4: 97 00 00 00  	auipc	ra, 0
     cd8: e7 80 00 00  	jalr	ra
     cdc: b7 1d 00 00  	lui	s11, 1
     ce0: 13 85 0d f4  	addi	a0, s11, -192
     ce4: 93 05 00 04  	li	a1, 64
     ce8: 97 00 00 00  	auipc	ra, 0
     cec: e7 80 00 00  	jalr	ra
     cf0: 83 29 45 00  	lw	s3, 4(a0)
     cf4: 37 05 01 00  	lui	a0, 16
     cf8: 13 05 05 f4  	addi	a0, a0, -192
     cfc: 93 05 00 04  	li	a1, 64
     d00: 97 00 00 00  	auipc	ra, 0
     d04: e7 80 00 00  	jalr	ra
     d08: 03 2a 45 00  	lw	s4, 4(a0)
     d0c: 37 15 00 00  	lui	a0, 1
     d10: 93 05 00 04  	li	a1, 64
     d14: 97 00 00 00  	auipc	ra, 0
     d18: e7 80 00 00  	jalr	ra
     d1c: 03 29 45 00  	lw	s2, 4(a0)
     d20: 23 2a a1 01  	sw	s10, 20(sp)
     d24: 63 80 0c 00  	beqz	s9, 0xd24 <.Lpcrel_hi16+0x68>
     d28: 23 26 81 00  	sw	s0, 12(sp)
     d2c: 13 04 00 00  	li	s0, 0
     d30: 13 0d 00 40  	li	s10, 1024
     d34: 93 0c 00 01  	li	s9, 16
     d38: 23 24 41 01  	sw	s4, 8(sp)

00000d3c <.LBB0_39>:
     d3c: 93 04 00 00  	li	s1, 0
     d40: 93 0b 0a 00  	mv	s7, s4

00000d44 <.LBB0_40>:
     d44: 33 0c 9b 00  	add	s8, s6, s1
     d48: 13 06 10 00  	li	a2, 1
     d4c: 93 06 00 40  	li	a3, 1024
     d50: 13 07 00 10  	li	a4, 256
     d54: 93 07 00 01  	li	a5, 16
     d58: 13 05 0c 00  	mv	a0, s8
     d5c: 93 85 0b 00  	mv	a1, s7
     d60: 97 00 00 00  	auipc	ra, 0
     d64: e7 80 00 00  	jalr	ra
     d68: 13 05 1c 00  	addi	a0, s8, 1
     d6c: 93 85 8b 00  	addi	a1, s7, 8
     d70: 13 06 10 00  	li	a2, 1
     d74: 93 06 00 40  	li	a3, 1024
     d78: 13 07 00 10  	li	a4, 256
     d7c: 93 07 00 01  	li	a5, 16
     d80: 97 00 00 00  	auipc	ra, 0
     d84: e7 80 00 00  	jalr	ra
     d88: 13 05 2c 00  	addi	a0, s8, 2
     d8c: 93 85 0b 01  	addi	a1, s7, 16
     d90: 13 06 10 00  	li	a2, 1
     d94: 93 06 00 40  	li	a3, 1024
     d98: 13 07 00 10  	li	a4, 256
     d9c: 93 07 00 01  	li	a5, 16
     da0: 97 00 00 00  	auipc	ra, 0
     da4: e7 80 00 00  	jalr	ra
     da8: 13 05 3c 00  	addi	a0, s8, 3
     dac: 93 85 8b 01  	addi	a1, s7, 24
     db0: 13 06 10 00  	li	a2, 1
     db4: 93 06 00 40  	li	a3, 1024
     db8: 13 07 00 10  	li	a4, 256
     dbc: 93 07 00 01  	li	a5, 16
     dc0: 97 00 00 00  	auipc	ra, 0
     dc4: e7 80 00 00  	jalr	ra
     dc8: 13 05 4c 00  	addi	a0, s8, 4
     dcc: 93 85 0b 02  	addi	a1, s7, 32
     dd0: 13 06 10 00  	li	a2, 1
     dd4: 93 06 00 40  	li	a3, 1024
     dd8: 13 07 00 10  	li	a4, 256
     ddc: 93 07 00 01  	li	a5, 16
     de0: 97 00 00 00  	auipc	ra, 0
     de4: e7 80 00 00  	jalr	ra
     de8: 13 05 5c 00  	addi	a0, s8, 5
     dec: 93 85 8b 02  	addi	a1, s7, 40
     df0: 13 06 10 00  	li	a2, 1
     df4: 93 06 00 40  	li	a3, 1024
     df8: 13 07 00 10  	li	a4, 256
     dfc: 93 07 00 01  	li	a5, 16
     e00: 97 00 00 00  	auipc	ra, 0
     e04: e7 80 00 00  	jalr	ra
     e08: 13 05 6c 00  	addi	a0, s8, 6
     e0c: 93 85 0b 03  	addi	a1, s7, 48
     e10: 13 06 10 00  	li	a2, 1
     e14: 93 06 00 40  	li	a3, 1024
     e18: 13 07 00 10  	li	a4, 256
     e1c: 93 07 00 01  	li	a5, 16
     e20: 97 00 00 00  	auipc	ra, 0
     e24: e7 80 00 00  	jalr	ra
     e28: 13 05 7c 00  	addi	a0, s8, 7
     e2c: 93 85 8b 03  	addi	a1, s7, 56
     e30: 13 06 10 00  	li	a2, 1
     e34: 93 06 00 40  	li	a3, 1024
     e38: 13 07 00 10  	li	a4, 256
     e3c: 93 07 00 01  	li	a5, 16
     e40: 97 00 00 00  	auipc	ra, 0
     e44: e7 80 00 00  	jalr	ra
     e48: 93 84 04 08  	addi	s1, s1, 128
     e4c: 93 8b 1b 00  	addi	s7, s7, 1
     e50: 63 90 a4 01  	bne	s1, s10, 0xe50 <.LBB0_40+0x10c>
     e54: 13 04 14 00  	addi	s0, s0, 1
     e58: 13 0b 8b 00  	addi	s6, s6, 8
     e5c: 33 0a ba 01  	add	s4, s4, s11
     e60: 63 10 94 01  	bne	s0, s9, 0xe60 <.LBB0_40+0x11c>
     e64: 13 06 80 00  	li	a2, 8
     e68: 93 06 80 00  	li	a3, 8
     e6c: 13 07 00 10  	li	a4, 256
     e70: 93 07 00 01  	li	a5, 16
     e74: 13 85 0a 00  	mv	a0, s5
     e78: 93 85 09 00  	mv	a1, s3
     e7c: 97 00 00 00  	auipc	ra, 0
     e80: e7 80 00 00  	jalr	ra
     e84: 93 85 89 00  	addi	a1, s3, 8
     e88: 13 85 0a 08  	addi	a0, s5, 128
     e8c: 13 06 80 00  	li	a2, 8
     e90: 93 06 80 00  	li	a3, 8
     e94: 13 07 00 10  	li	a4, 256
     e98: 93 07 00 01  	li	a5, 16
     e9c: 97 00 00 00  	auipc	ra, 0
     ea0: e7 80 00 00  	jalr	ra
     ea4: 93 85 09 01  	addi	a1, s3, 16
     ea8: 13 85 0a 10  	addi	a0, s5, 256
     eac: 13 06 80 00  	li	a2, 8
     eb0: 93 06 80 00  	li	a3, 8
     eb4: 13 07 00 10  	li	a4, 256
     eb8: 93 07 00 01  	li	a5, 16
     ebc: 97 00 00 00  	auipc	ra, 0
     ec0: e7 80 00 00  	jalr	ra
     ec4: 93 85 89 01  	addi	a1, s3, 24
     ec8: 13 85 0a 18  	addi	a0, s5, 384
     ecc: 13 06 80 00  	li	a2, 8
     ed0: 93 06 80 00  	li	a3, 8
     ed4: 13 07 00 10  	li	a4, 256
     ed8: 93 07 00 01  	li	a5, 16
     edc: 97 00 00 00  	auipc	ra, 0
     ee0: e7 80 00 00  	jalr	ra
     ee4: 93 85 09 02  	addi	a1, s3, 32
     ee8: 13 85 0a 20  	addi	a0, s5, 512
     eec: 13 06 80 00  	li	a2, 8
     ef0: 93 06 80 00  	li	a3, 8
     ef4: 13 07 00 10  	li	a4, 256
     ef8: 93 07 00 01  	li	a5, 16
     efc: 97 00 00 00  	auipc	ra, 0
     f00: e7 80 00 00  	jalr	ra
     f04: 93 85 89 02  	addi	a1, s3, 40
     f08: 13 85 0a 28  	addi	a0, s5, 640
     f0c: 13 06 80 00  	li	a2, 8
     f10: 93 06 80 00  	li	a3, 8
     f14: 13 07 00 10  	li	a4, 256
     f18: 93 07 00 01  	li	a5, 16
     f1c: 97 00 00 00  	auipc	ra, 0
     f20: e7 80 00 00  	jalr	ra
     f24: 93 85 09 03  	addi	a1, s3, 48
     f28: 13 85 0a 30  	addi	a0, s5, 768
     f2c: 13 06 80 00  	li	a2, 8
     f30: 93 06 80 00  	li	a3, 8
     f34: 13 07 00 10  	li	a4, 256
     f38: 93 07 00 01  	li	a5, 16
     f3c: 97 00 00 00  	auipc	ra, 0
     f40: e7 80 00 00  	jalr	ra
     f44: 93 85 89 03  	addi	a1, s3, 56
     f48: 13 85 0a 38  	addi	a0, s5, 896
     f4c: 13 06 80 00  	li	a2, 8
     f50: 93 06 80 00  	li	a3, 8
     f54: 13 07 00 10  	li	a4, 256
     f58: 93 07 00 01  	li	a5, 16
     f5c: 97 00 00 00  	auipc	ra, 0
     f60: e7 80 00 00  	jalr	ra
     f64: 83 2c 81 01  	lw	s9, 24(sp)
     f68: 03 2d 41 01  	lw	s10, 20(sp)
     f6c: 03 24 c1 00  	lw	s0, 12(sp)
     f70: 03 2a 81 00  	lw	s4, 8(sp)

00000f74 <.LBB0_43>:
     f74: 97 00 00 00  	auipc	ra, 0
     f78: e7 80 00 00  	jalr	ra
     f7c: 93 06 10 00  	li	a3, 1
     f80: 13 85 09 00  	mv	a0, s3
     f84: 93 05 0a 00  	mv	a1, s4
     f88: 13 06 09 00  	mv	a2, s2
     f8c: 97 00 00 00  	auipc	ra, 0
     f90: e7 80 00 00  	jalr	ra
     f94: 63 00 0d 00  	beqz	s10, 0xf94 <.LBB0_43+0x20>
     f98: 73 d0 00 3c  	csrwi	pmpaddr16, 1
     f9c: 73 d0 10 3c  	csrwi	pmpaddr17, 1
     fa0: 73 d0 20 3c  	csrwi	pmpaddr18, 1
     fa4: 73 50 38 3c  	csrwi	pmpaddr19, 16
     fa8: 73 50 48 3c  	csrwi	pmpaddr20, 16
     fac: 73 d0 50 3c  	csrwi	pmpaddr21, 1
     fb0: 73 50 68 3c  	csrwi	pmpaddr22, 16
     fb4: 73 50 78 3c  	csrwi	pmpaddr23, 16
     fb8: 73 d0 80 3c  	csrwi	pmpaddr24, 1
     fbc: 73 50 90 3c  	csrwi	pmpaddr25, 0
     fc0: 73 50 a0 3c  	csrwi	pmpaddr26, 0
     fc4: 73 50 b0 3c  	csrwi	pmpaddr27, 0
     fc8: 73 d0 c0 3c  	csrwi	pmpaddr28, 1
     fcc: 73 50 d8 3c  	csrwi	pmpaddr29, 16
     fd0: 73 d0 e0 3c  	csrwi	pmpaddr30, 1
     fd4: 73 d0 f0 3c  	csrwi	pmpaddr31, 1
     fd8: 73 50 08 3d  	csrwi	pmpaddr32, 16
     fdc: 73 d0 10 3d  	csrwi	pmpaddr33, 1
     fe0: 73 50 20 3d  	csrwi	pmpaddr34, 0
     fe4: 73 50 30 3d  	csrwi	pmpaddr35, 0
     fe8: 73 50 40 3d  	csrwi	pmpaddr36, 0
     fec: 13 05 00 10  	li	a0, 256
     ff0: 73 10 55 3d  	csrw	pmpaddr37, a0
     ff4: 73 50 60 3d  	csrwi	pmpaddr38, 0
     ff8: b7 15 00 00  	lui	a1, 1
     ffc: 73 90 75 3d  	csrw	pmpaddr39, a1
    1000: 73 10 85 3d  	csrw	pmpaddr40, a0
    1004: 73 90 95 3d  	csrw	pmpaddr41, a1
    1008: 73 50 a0 3d  	csrwi	pmpaddr42, 0
    100c: 73 50 b0 3d  	csrwi	pmpaddr43, 0
    1010: 73 50 c0 3d  	csrwi	pmpaddr44, 0
    1014: 73 50 d0 3d  	csrwi	pmpaddr45, 0
    1018: 73 50 e0 3d  	csrwi	pmpaddr46, 0
    101c: 73 10 f5 3d  	csrw	pmpaddr47, a0
    1020: 73 90 05 3e  	csrw	pmpaddr48, a1
    1024: 73 50 10 3e  	csrwi	pmpaddr49, 0
    1028: 73 10 25 3e  	csrw	pmpaddr50, a0
    102c: 73 90 35 3e  	csrw	pmpaddr51, a1
    1030: 73 d0 40 3e  	csrwi	pmpaddr52, 1
    1034: 73 50 54 3e  	csrwi	pmpaddr53, 8
    1038: 73 d0 60 3e  	csrwi	pmpaddr54, 1
    103c: 73 50 74 3e  	csrwi	pmpaddr55, 8
    1040: 73 50 80 3e  	csrwi	pmpaddr56, 0
    1044: 73 50 90 3e  	csrwi	pmpaddr57, 0
    1048: 73 50 a2 3e  	csrwi	pmpaddr58, 4
    104c: 13 05 00 02  	li	a0, 32
    1050: 73 10 b5 3e  	csrw	pmpaddr59, a0
    1054: 73 50 c2 3e  	csrwi	pmpaddr60, 4
    1058: 73 10 d5 3e  	csrw	pmpaddr61, a0
    105c: 73 90 e9 3e  	csrw	pmpaddr62, s3
    1060: 73 10 fa 3e  	csrw	pmpaddr63, s4
    1064: 73 10 0a 3f  	csrw	1008, s4
    1068: 73 10 19 3f  	csrw	1009, s2
    106c: 73 10 29 3f  	csrw	1010, s2
    1070: 73 50 30 3f  	csrwi	1011, 0
    1074: 73 50 78 3f  	csrwi	1015, 16
    1078: 73 50 88 3f  	csrwi	1016, 16
    107c: 73 d0 90 3f  	csrwi	1017, 1
    1080: 13 05 00 08  	li	a0, 128
    1084: 73 10 a5 3f  	csrw	1018, a0
    1088: 73 50 b0 3f  	csrwi	1019, 0
    108c: 73 50 c0 3f  	csrwi	1020, 0
    1090: 73 50 d0 3f  	csrwi	1021, 0
    1094: 73 50 e0 3f  	csrwi	1022, 0
    1098: 73 d0 f0 3f  	csrwi	1023, 1
    109c: 73 d0 40 3f  	csrwi	1012, 1
    10a0: 73 d0 00 40  	csrwi	1024, 1
    10a4: 73 50 40 3f  	csrwi	1012, 0
    10a8: 73 50 40 3f  	csrwi	1012, 0
    10ac: 73 50 00 40  	csrwi	1024, 0
    10b0: 73 50 00 40  	csrwi	1024, 0

000010b4 <.LBB0_45>:
    10b4: 93 06 20 00  	li	a3, 2
    10b8: 13 85 09 00  	mv	a0, s3
    10bc: 93 05 0a 00  	mv	a1, s4
    10c0: 13 06 09 00  	mv	a2, s2
    10c4: 97 00 00 00  	auipc	ra, 0
    10c8: e7 80 00 00  	jalr	ra
    10cc: 97 00 00 00  	auipc	ra, 0
    10d0: e7 80 00 00  	jalr	ra
    10d4: 63 80 0c 00  	beqz	s9, 0x10d4 <.LBB0_45+0x20>
    10d8: 13 06 00 02  	li	a2, 32
    10dc: 93 06 00 10  	li	a3, 256
    10e0: 13 07 00 02  	li	a4, 32
    10e4: 93 07 00 01  	li	a5, 16
    10e8: 13 05 09 00  	mv	a0, s2
    10ec: 93 05 04 00  	mv	a1, s0
    10f0: 97 00 00 00  	auipc	ra, 0
    10f4: e7 80 00 00  	jalr	ra
    10f8: 13 05 09 02  	addi	a0, s2, 32
    10fc: 93 05 04 20  	addi	a1, s0, 512
    1100: 13 06 00 02  	li	a2, 32
    1104: 93 06 00 10  	li	a3, 256
    1108: 13 07 00 02  	li	a4, 32
    110c: 93 07 00 01  	li	a5, 16
    1110: 97 00 00 00  	auipc	ra, 0
    1114: e7 80 00 00  	jalr	ra
    1118: 13 05 09 04  	addi	a0, s2, 64
    111c: 93 05 04 40  	addi	a1, s0, 1024
    1120: 13 06 00 02  	li	a2, 32
    1124: 93 06 00 10  	li	a3, 256
    1128: 13 07 00 02  	li	a4, 32
    112c: 93 07 00 01  	li	a5, 16
    1130: 97 00 00 00  	auipc	ra, 0
    1134: e7 80 00 00  	jalr	ra
    1138: 13 05 09 06  	addi	a0, s2, 96
    113c: 93 05 04 60  	addi	a1, s0, 1536
    1140: 13 06 00 02  	li	a2, 32
    1144: 93 06 00 10  	li	a3, 256
    1148: 13 07 00 02  	li	a4, 32
    114c: 93 07 00 01  	li	a5, 16
    1150: 97 00 00 00  	auipc	ra, 0
    1154: e7 80 00 00  	jalr	ra
    1158: 13 05 09 08  	addi	a0, s2, 128
    115c: 13 04 f4 7f  	addi	s0, s0, 2047
    1160: 93 05 14 00  	addi	a1, s0, 1
    1164: 13 06 00 02  	li	a2, 32
    1168: 93 06 00 10  	li	a3, 256
    116c: 13 07 00 02  	li	a4, 32
    1170: 93 07 00 01  	li	a5, 16
    1174: 97 00 00 00  	auipc	ra, 0
    1178: e7 80 00 00  	jalr	ra
    117c: 13 05 09 0a  	addi	a0, s2, 160
    1180: 93 05 14 20  	addi	a1, s0, 513
    1184: 13 06 00 02  	li	a2, 32
    1188: 93 06 00 10  	li	a3, 256
    118c: 13 07 00 02  	li	a4, 32
    1190: 93 07 00 01  	li	a5, 16
    1194: 97 00 00 00  	auipc	ra, 0
    1198: e7 80 00 00  	jalr	ra
    119c: 13 05 09 0c  	addi	a0, s2, 192
    11a0: 93 05 14 40  	addi	a1, s0, 1025
    11a4: 13 06 00 02  	li	a2, 32
    11a8: 93 06 00 10  	li	a3, 256
    11ac: 13 07 00 02  	li	a4, 32
    11b0: 93 07 00 01  	li	a5, 16
    11b4: 97 00 00 00  	auipc	ra, 0
    11b8: e7 80 00 00  	jalr	ra
    11bc: 13 05 09 0e  	addi	a0, s2, 224
    11c0: 93 05 14 60  	addi	a1, s0, 1537
    11c4: 13 06 00 02  	li	a2, 32
    11c8: 93 06 00 10  	li	a3, 256
    11cc: 13 07 00 02  	li	a4, 32
    11d0: 93 07 00 01  	li	a5, 16
    11d4: 97 00 00 00  	auipc	ra, 0
    11d8: e7 80 00 00  	jalr	ra

000011dc <.LBB0_47>:
    11dc: 97 00 00 00  	auipc	ra, 0
    11e0: e7 80 00 00  	jalr	ra

000011e4 <.Lpcrel_hi17>:
    11e4: 17 05 00 00  	auipc	a0, 0
    11e8: 13 05 05 00  	mv	a0, a0

000011ec <.Lpcrel_hi18>:
    11ec: 97 05 00 00  	auipc	a1, 0
    11f0: 93 85 05 00  	mv	a1, a1

000011f4 <.Lpcrel_hi19>:
    11f4: 17 06 00 00  	auipc	a2, 0
    11f8: 93 04 06 00  	mv	s1, a2
    11fc: 93 06 30 00  	li	a3, 3
    1200: 13 86 04 00  	mv	a2, s1
    1204: 97 00 00 00  	auipc	ra, 0
    1208: e7 80 00 00  	jalr	ra
    120c: 97 00 00 00  	auipc	ra, 0
    1210: e7 80 00 00  	jalr	ra

00001214 <.Lpcrel_hi20>:
    1214: 17 05 00 00  	auipc	a0, 0
    1218: 13 05 05 00  	mv	a0, a0

0000121c <.Lpcrel_hi21>:
    121c: 97 05 00 00  	auipc	a1, 0
    1220: 13 86 05 00  	mv	a2, a1
    1224: 93 85 04 00  	mv	a1, s1
    1228: 93 06 00 00  	li	a3, 0
    122c: 97 00 00 00  	auipc	ra, 0
    1230: e7 80 00 00  	jalr	ra
    1234: 13 05 00 20  	li	a0, 512
    1238: 93 05 00 04  	li	a1, 64
    123c: 97 00 00 00  	auipc	ra, 0
    1240: e7 80 00 00  	jalr	ra
    1244: 83 24 45 00  	lw	s1, 4(a0)
    1248: 37 15 00 00  	lui	a0, 1
    124c: 93 05 00 04  	li	a1, 64
    1250: 97 00 00 00  	auipc	ra, 0
    1254: e7 80 00 00  	jalr	ra
    1258: 83 29 45 00  	lw	s3, 4(a0)
    125c: 37 15 00 00  	lui	a0, 1
    1260: 93 05 00 04  	li	a1, 64
    1264: 97 00 00 00  	auipc	ra, 0
    1268: e7 80 00 00  	jalr	ra
    126c: 03 29 45 00  	lw	s2, 4(a0)
    1270: 63 80 0c 00  	beqz	s9, 0x1270 <.Lpcrel_hi21+0x54>

00001274 <.Lpcrel_hi22>:
    1274: 17 05 00 00  	auipc	a0, 0
    1278: 13 05 05 00  	mv	a0, a0
    127c: 37 16 00 00  	lui	a2, 1
    1280: 93 85 09 00  	mv	a1, s3
    1284: 97 00 00 00  	auipc	ra, 0
    1288: e7 80 00 00  	jalr	ra

0000128c <.Lpcrel_hi23>:
    128c: 17 05 00 00  	auipc	a0, 0
    1290: 13 05 05 00  	mv	a0, a0
    1294: 13 06 00 20  	li	a2, 512
    1298: 93 85 04 00  	mv	a1, s1
    129c: 97 00 00 00  	auipc	ra, 0
    12a0: e7 80 00 00  	jalr	ra

000012a4 <.LBB0_49>:
    12a4: 97 00 00 00  	auipc	ra, 0
    12a8: e7 80 00 00  	jalr	ra
    12ac: 93 06 10 00  	li	a3, 1
    12b0: 13 85 04 00  	mv	a0, s1
    12b4: 93 85 09 00  	mv	a1, s3
    12b8: 13 06 09 00  	mv	a2, s2
    12bc: 97 00 00 00  	auipc	ra, 0
    12c0: e7 80 00 00  	jalr	ra
    12c4: 63 00 0d 00  	beqz	s10, 0x12c4 <.LBB0_49+0x20>
    12c8: 13 05 10 00  	li	a0, 1
    12cc: 93 15 b5 00  	slli	a1, a0, 11
    12d0: 33 85 b9 00  	add	a0, s3, a1
    12d4: b3 05 b9 00  	add	a1, s2, a1
    12d8: 13 06 00 08  	li	a2, 128
    12dc: 93 86 04 00  	mv	a3, s1
    12e0: 13 07 09 00  	mv	a4, s2
    12e4: 93 87 09 00  	mv	a5, s3

000012e8 <.LBB0_51>:
    12e8: 03 a8 06 00  	lw	a6, 0(a3)
    12ec: 83 a8 07 00  	lw	a7, 0(a5)
    12f0: 33 88 08 01  	add	a6, a7, a6
    12f4: 23 20 07 01  	sw	a6, 0(a4)
    12f8: 93 87 47 00  	addi	a5, a5, 4
    12fc: 13 07 47 00  	addi	a4, a4, 4
    1300: 13 06 f6 ff  	addi	a2, a2, -1
    1304: 93 86 46 00  	addi	a3, a3, 4
    1308: 63 10 06 00  	bnez	a2, 0x1308 <.LBB0_51+0x20>
    130c: 13 06 09 20  	addi	a2, s2, 512
    1310: 93 86 09 20  	addi	a3, s3, 512
    1314: 13 07 00 08  	li	a4, 128
    1318: 93 87 04 00  	mv	a5, s1

0000131c <.LBB0_53>:
    131c: 03 a8 07 00  	lw	a6, 0(a5)
    1320: 83 a8 06 00  	lw	a7, 0(a3)
    1324: 33 88 08 01  	add	a6, a7, a6
    1328: 23 20 06 01  	sw	a6, 0(a2)
    132c: 13 07 f7 ff  	addi	a4, a4, -1
    1330: 13 06 46 00  	addi	a2, a2, 4
    1334: 93 86 46 00  	addi	a3, a3, 4
    1338: 93 87 47 00  	addi	a5, a5, 4
    133c: 63 10 07 00  	bnez	a4, 0x133c <.LBB0_53+0x20>
    1340: 13 06 09 40  	addi	a2, s2, 1024
    1344: 93 86 09 40  	addi	a3, s3, 1024
    1348: 13 07 00 08  	li	a4, 128
    134c: 93 87 04 00  	mv	a5, s1

00001350 <.LBB0_55>:
    1350: 03 a8 07 00  	lw	a6, 0(a5)
    1354: 83 a8 06 00  	lw	a7, 0(a3)
    1358: 33 88 08 01  	add	a6, a7, a6
    135c: 23 20 06 01  	sw	a6, 0(a2)
    1360: 13 07 f7 ff  	addi	a4, a4, -1
    1364: 13 06 46 00  	addi	a2, a2, 4
    1368: 93 86 46 00  	addi	a3, a3, 4
    136c: 93 87 47 00  	addi	a5, a5, 4
    1370: 63 10 07 00  	bnez	a4, 0x1370 <.LBB0_55+0x20>
    1374: 13 06 09 60  	addi	a2, s2, 1536
    1378: 93 86 09 60  	addi	a3, s3, 1536
    137c: 13 07 00 08  	li	a4, 128
    1380: 93 87 04 00  	mv	a5, s1

00001384 <.LBB0_57>:
    1384: 03 a8 07 00  	lw	a6, 0(a5)
    1388: 83 a8 06 00  	lw	a7, 0(a3)
    138c: 33 88 08 01  	add	a6, a7, a6
    1390: 23 20 06 01  	sw	a6, 0(a2)
    1394: 13 07 f7 ff  	addi	a4, a4, -1
    1398: 13 06 46 00  	addi	a2, a2, 4
    139c: 93 86 46 00  	addi	a3, a3, 4
    13a0: 93 87 47 00  	addi	a5, a5, 4
    13a4: 63 10 07 00  	bnez	a4, 0x13a4 <.LBB0_57+0x20>
    13a8: 13 06 00 08  	li	a2, 128
    13ac: 93 86 04 00  	mv	a3, s1
    13b0: 13 07 05 00  	mv	a4, a0
    13b4: 93 87 05 00  	mv	a5, a1

000013b8 <.LBB0_59>:
    13b8: 03 a8 06 00  	lw	a6, 0(a3)
    13bc: 83 28 07 00  	lw	a7, 0(a4)
    13c0: 33 88 08 01  	add	a6, a7, a6
    13c4: 23 a0 07 01  	sw	a6, 0(a5)
    13c8: 13 06 f6 ff  	addi	a2, a2, -1
    13cc: 93 87 47 00  	addi	a5, a5, 4
    13d0: 13 07 47 00  	addi	a4, a4, 4
    13d4: 93 86 46 00  	addi	a3, a3, 4
    13d8: 63 10 06 00  	bnez	a2, 0x13d8 <.LBB0_59+0x20>
    13dc: 13 86 05 20  	addi	a2, a1, 512
    13e0: 93 06 05 20  	addi	a3, a0, 512
    13e4: 13 07 00 08  	li	a4, 128
    13e8: 93 87 04 00  	mv	a5, s1

000013ec <.LBB0_61>:
    13ec: 03 a8 07 00  	lw	a6, 0(a5)
    13f0: 83 a8 06 00  	lw	a7, 0(a3)
    13f4: 33 88 08 01  	add	a6, a7, a6
    13f8: 23 20 06 01  	sw	a6, 0(a2)
    13fc: 13 07 f7 ff  	addi	a4, a4, -1
    1400: 13 06 46 00  	addi	a2, a2, 4
    1404: 93 86 46 00  	addi	a3, a3, 4
    1408: 93 87 47 00  	addi	a5, a5, 4
    140c: 63 10 07 00  	bnez	a4, 0x140c <.LBB0_61+0x20>
    1410: 13 86 05 40  	addi	a2, a1, 1024
    1414: 93 06 05 40  	addi	a3, a0, 1024
    1418: 13 07 00 08  	li	a4, 128
    141c: 93 87 04 00  	mv	a5, s1

00001420 <.LBB0_63>:
    1420: 03 a8 07 00  	lw	a6, 0(a5)
    1424: 83 a8 06 00  	lw	a7, 0(a3)
    1428: 33 88 08 01  	add	a6, a7, a6
    142c: 23 20 06 01  	sw	a6, 0(a2)
    1430: 13 07 f7 ff  	addi	a4, a4, -1
    1434: 13 06 46 00  	addi	a2, a2, 4
    1438: 93 86 46 00  	addi	a3, a3, 4
    143c: 93 87 47 00  	addi	a5, a5, 4
    1440: 63 10 07 00  	bnez	a4, 0x1440 <.LBB0_63+0x20>
    1444: 93 85 05 60  	addi	a1, a1, 1536
    1448: 13 05 05 60  	addi	a0, a0, 1536
    144c: 13 06 00 08  	li	a2, 128
    1450: 93 86 04 00  	mv	a3, s1

00001454 <.LBB0_65>:
    1454: 03 a7 06 00  	lw	a4, 0(a3)
    1458: 83 27 05 00  	lw	a5, 0(a0)
    145c: 33 87 e7 00  	add	a4, a5, a4
    1460: 23 a0 e5 00  	sw	a4, 0(a1)
    1464: 13 06 f6 ff  	addi	a2, a2, -1
    1468: 93 85 45 00  	addi	a1, a1, 4
    146c: 13 05 45 00  	addi	a0, a0, 4
    1470: 93 86 46 00  	addi	a3, a3, 4
    1474: 63 10 06 00  	bnez	a2, 0x1474 <.LBB0_65+0x20>

00001478 <.LBB0_66>:
    1478: 93 06 20 00  	li	a3, 2
    147c: 13 85 04 00  	mv	a0, s1
    1480: 93 85 09 00  	mv	a1, s3
    1484: 13 06 09 00  	mv	a2, s2
    1488: 97 00 00 00  	auipc	ra, 0
    148c: e7 80 00 00  	jalr	ra
    1490: 97 00 00 00  	auipc	ra, 0
    1494: e7 80 00 00  	jalr	ra
    1498: 63 80 0c 00  	beqz	s9, 0x1498 <.LBB0_66+0x20>

0000149c <.Lpcrel_hi24>:
    149c: 17 05 00 00  	auipc	a0, 0
    14a0: 93 05 05 00  	mv	a1, a0
    14a4: 37 16 00 00  	lui	a2, 1
    14a8: 13 05 09 00  	mv	a0, s2
    14ac: 97 00 00 00  	auipc	ra, 0
    14b0: e7 80 00 00  	jalr	ra

000014b4 <.LBB0_68>:
    14b4: 97 00 00 00  	auipc	ra, 0
    14b8: e7 80 00 00  	jalr	ra

000014bc <.Lpcrel_hi25>:
    14bc: 17 05 00 00  	auipc	a0, 0
    14c0: 13 05 05 00  	mv	a0, a0

000014c4 <.Lpcrel_hi26>:
    14c4: 97 05 00 00  	auipc	a1, 0
    14c8: 93 85 05 00  	mv	a1, a1

000014cc <.Lpcrel_hi27>:
    14cc: 17 06 00 00  	auipc	a2, 0
    14d0: 13 0a 06 00  	mv	s4, a2
    14d4: 93 06 30 00  	li	a3, 3
    14d8: 13 06 0a 00  	mv	a2, s4
    14dc: 97 00 00 00  	auipc	ra, 0
    14e0: e7 80 00 00  	jalr	ra
    14e4: 97 00 00 00  	auipc	ra, 0
    14e8: e7 80 00 00  	jalr	ra

000014ec <.Lpcrel_hi28>:
    14ec: 17 05 00 00  	auipc	a0, 0
    14f0: 93 04 05 00  	mv	s1, a0
    14f4: 13 05 0a 00  	mv	a0, s4
    14f8: 93 05 0a 00  	mv	a1, s4
    14fc: 13 86 04 00  	mv	a2, s1
    1500: 93 06 00 00  	li	a3, 0
    1504: 97 00 00 00  	auipc	ra, 0
    1508: e7 80 00 00  	jalr	ra
    150c: 37 15 00 00  	lui	a0, 1
    1510: 93 05 00 04  	li	a1, 64
    1514: 37 14 00 00  	lui	s0, 1
    1518: 97 00 00 00  	auipc	ra, 0
    151c: e7 80 00 00  	jalr	ra
    1520: 83 29 45 00  	lw	s3, 4(a0)
    1524: 13 05 04 f4  	addi	a0, s0, -192
    1528: 93 05 00 04  	li	a1, 64
    152c: 97 00 00 00  	auipc	ra, 0
    1530: e7 80 00 00  	jalr	ra
    1534: 03 29 45 00  	lw	s2, 4(a0)
    1538: 63 80 0c 00  	beqz	s9, 0x1538 <.Lpcrel_hi28+0x4c>
    153c: 13 06 00 02  	li	a2, 32
    1540: 93 06 00 02  	li	a3, 32
    1544: 13 07 00 10  	li	a4, 256
    1548: 93 07 00 01  	li	a5, 16
    154c: 13 05 0a 00  	mv	a0, s4
    1550: 93 85 09 00  	mv	a1, s3
    1554: 97 00 00 00  	auipc	ra, 0
    1558: e7 80 00 00  	jalr	ra
    155c: 93 85 09 02  	addi	a1, s3, 32
    1560: 13 05 0a 20  	addi	a0, s4, 512
    1564: 13 06 00 02  	li	a2, 32
    1568: 93 06 00 02  	li	a3, 32
    156c: 13 07 00 10  	li	a4, 256
    1570: 93 07 00 01  	li	a5, 16
    1574: 97 00 00 00  	auipc	ra, 0
    1578: e7 80 00 00  	jalr	ra
    157c: 93 85 09 04  	addi	a1, s3, 64
    1580: 13 05 0a 40  	addi	a0, s4, 1024
    1584: 13 06 00 02  	li	a2, 32
    1588: 93 06 00 02  	li	a3, 32
    158c: 13 07 00 10  	li	a4, 256
    1590: 93 07 00 01  	li	a5, 16
    1594: 97 00 00 00  	auipc	ra, 0
    1598: e7 80 00 00  	jalr	ra
    159c: 93 85 09 06  	addi	a1, s3, 96
    15a0: 13 05 0a 60  	addi	a0, s4, 1536
    15a4: 13 06 00 02  	li	a2, 32
    15a8: 93 06 00 02  	li	a3, 32
    15ac: 13 07 00 10  	li	a4, 256
    15b0: 93 07 00 01  	li	a5, 16
    15b4: 97 00 00 00  	auipc	ra, 0
    15b8: e7 80 00 00  	jalr	ra
    15bc: 93 85 09 08  	addi	a1, s3, 128
    15c0: 13 04 fa 7f  	addi	s0, s4, 2047
    15c4: 13 05 14 00  	addi	a0, s0, 1
    15c8: 13 06 00 02  	li	a2, 32
    15cc: 93 06 00 02  	li	a3, 32
    15d0: 13 07 00 10  	li	a4, 256
    15d4: 93 07 00 01  	li	a5, 16
    15d8: 97 00 00 00  	auipc	ra, 0
    15dc: e7 80 00 00  	jalr	ra
    15e0: 93 85 09 0a  	addi	a1, s3, 160
    15e4: 13 05 14 20  	addi	a0, s0, 513
    15e8: 13 06 00 02  	li	a2, 32
    15ec: 93 06 00 02  	li	a3, 32
    15f0: 13 07 00 10  	li	a4, 256
    15f4: 93 07 00 01  	li	a5, 16
    15f8: 97 00 00 00  	auipc	ra, 0
    15fc: e7 80 00 00  	jalr	ra
    1600: 93 85 09 0c  	addi	a1, s3, 192
    1604: 13 05 14 40  	addi	a0, s0, 1025
    1608: 13 06 00 02  	li	a2, 32
    160c: 93 06 00 02  	li	a3, 32
    1610: 13 07 00 10  	li	a4, 256
    1614: 93 07 00 01  	li	a5, 16
    1618: 97 00 00 00  	auipc	ra, 0
    161c: e7 80 00 00  	jalr	ra
    1620: 93 85 09 0e  	addi	a1, s3, 224
    1624: 13 05 14 60  	addi	a0, s0, 1537
    1628: 13 06 00 02  	li	a2, 32
    162c: 93 06 00 02  	li	a3, 32
    1630: 13 07 00 10  	li	a4, 256
    1634: 93 07 00 01  	li	a5, 16
    1638: 97 00 00 00  	auipc	ra, 0
    163c: e7 80 00 00  	jalr	ra

00001640 <.LBB0_70>:
    1640: 97 00 00 00  	auipc	ra, 0
    1644: e7 80 00 00  	jalr	ra
    1648: 93 06 10 00  	li	a3, 1
    164c: 13 85 09 00  	mv	a0, s3
    1650: 93 85 09 00  	mv	a1, s3
    1654: 13 06 09 00  	mv	a2, s2
    1658: 97 00 00 00  	auipc	ra, 0
    165c: e7 80 00 00  	jalr	ra
    1660: 63 00 0d 00  	beqz	s10, 0x1660 <.LBB0_70+0x20>
    1664: 73 d0 00 3c  	csrwi	pmpaddr16, 1
    1668: 73 d0 10 3c  	csrwi	pmpaddr17, 1
    166c: 73 d0 20 3c  	csrwi	pmpaddr18, 1
    1670: 73 d0 30 3c  	csrwi	pmpaddr19, 1
    1674: 73 50 48 3c  	csrwi	pmpaddr20, 16
    1678: 73 d0 50 3c  	csrwi	pmpaddr21, 1
    167c: 73 d0 60 3c  	csrwi	pmpaddr22, 1
    1680: 73 50 78 3c  	csrwi	pmpaddr23, 16
    1684: 73 d0 80 3c  	csrwi	pmpaddr24, 1
    1688: 73 d0 90 3c  	csrwi	pmpaddr25, 1
    168c: 73 50 a8 3c  	csrwi	pmpaddr26, 16
    1690: 73 d0 b0 3c  	csrwi	pmpaddr27, 1
    1694: 73 d0 c0 3c  	csrwi	pmpaddr28, 1
    1698: 73 50 d8 3c  	csrwi	pmpaddr29, 16
    169c: 73 d0 e0 3c  	csrwi	pmpaddr30, 1
    16a0: 73 50 f0 3c  	csrwi	pmpaddr31, 0
    16a4: 73 50 00 3d  	csrwi	pmpaddr32, 0
    16a8: 73 50 10 3d  	csrwi	pmpaddr33, 0
    16ac: 73 50 20 3d  	csrwi	pmpaddr34, 0
    16b0: 73 50 30 3d  	csrwi	pmpaddr35, 0
    16b4: 73 50 40 3d  	csrwi	pmpaddr36, 0
    16b8: 73 50 50 3d  	csrwi	pmpaddr37, 0
    16bc: 73 50 60 3d  	csrwi	pmpaddr38, 0
    16c0: 73 50 70 3d  	csrwi	pmpaddr39, 0
    16c4: 73 50 80 3d  	csrwi	pmpaddr40, 0
    16c8: 73 50 90 3d  	csrwi	pmpaddr41, 0
    16cc: 73 50 a0 3d  	csrwi	pmpaddr42, 0
    16d0: 73 50 b0 3d  	csrwi	pmpaddr43, 0
    16d4: 13 05 00 10  	li	a0, 256
    16d8: 73 10 c5 3d  	csrw	pmpaddr44, a0
    16dc: b7 15 00 00  	lui	a1, 1
    16e0: 73 90 d5 3d  	csrw	pmpaddr45, a1
    16e4: 73 50 e0 3d  	csrwi	pmpaddr46, 0
    16e8: 73 10 f5 3d  	csrw	pmpaddr47, a0
    16ec: 73 90 05 3e  	csrw	pmpaddr48, a1
    16f0: 73 50 10 3e  	csrwi	pmpaddr49, 0
    16f4: 73 50 20 3e  	csrwi	pmpaddr50, 0
    16f8: 73 50 30 3e  	csrwi	pmpaddr51, 0
    16fc: 73 d0 40 3e  	csrwi	pmpaddr52, 1
    1700: 73 50 54 3e  	csrwi	pmpaddr53, 8
    1704: 73 d0 60 3e  	csrwi	pmpaddr54, 1
    1708: 73 50 74 3e  	csrwi	pmpaddr55, 8
    170c: 73 d0 80 3e  	csrwi	pmpaddr56, 1
    1710: 73 50 94 3e  	csrwi	pmpaddr57, 8
    1714: 73 50 a2 3e  	csrwi	pmpaddr58, 4
    1718: 13 05 00 02  	li	a0, 32
    171c: 73 10 b5 3e  	csrw	pmpaddr59, a0
    1720: 73 50 c0 3e  	csrwi	pmpaddr60, 0
    1724: 73 50 d0 3e  	csrwi	pmpaddr61, 0
    1728: 37 05 00 10  	lui	a0, 65536
    172c: 93 05 05 08  	addi	a1, a0, 128
    1730: 73 90 e5 3e  	csrw	pmpaddr62, a1
    1734: 13 05 05 04  	addi	a0, a0, 64
    1738: 73 10 f5 3e  	csrw	pmpaddr63, a0
    173c: 73 10 09 3f  	csrw	1008, s2
    1740: 73 90 19 3f  	csrw	1009, s3
    1744: 73 90 29 3f  	csrw	1010, s3
    1748: 73 50 30 3f  	csrwi	1011, 0
    174c: 73 d0 70 3f  	csrwi	1015, 1
    1750: 73 50 88 3f  	csrwi	1016, 16
    1754: 73 d0 90 3f  	csrwi	1017, 1
    1758: 73 50 a0 3f  	csrwi	1018, 0
    175c: 37 85 24 7f  	lui	a0, 520776
    1760: 73 10 b5 3f  	csrw	1019, a0
    1764: 13 05 00 18  	li	a0, 384
    1768: 73 10 c5 3f  	csrw	1020, a0
    176c: 37 45 fd 55  	lui	a0, 352212
    1770: 13 05 b5 e1  	addi	a0, a0, -485
    1774: 73 10 d5 3f  	csrw	1021, a0
    1778: 73 50 e8 3f  	csrwi	1022, 16
    177c: 73 50 f0 3f  	csrwi	1023, 0
    1780: 73 d0 40 3f  	csrwi	1012, 1
    1784: 73 d0 00 40  	csrwi	1024, 1
    1788: 73 50 40 3f  	csrwi	1012, 0
    178c: 73 50 40 3f  	csrwi	1012, 0
    1790: 73 50 00 40  	csrwi	1024, 0
    1794: 73 50 00 40  	csrwi	1024, 0

00001798 <.LBB0_72>:
    1798: 93 06 20 00  	li	a3, 2
    179c: 13 85 09 00  	mv	a0, s3
    17a0: 93 85 09 00  	mv	a1, s3
    17a4: 13 06 09 00  	mv	a2, s2
    17a8: 97 00 00 00  	auipc	ra, 0
    17ac: e7 80 00 00  	jalr	ra
    17b0: 97 00 00 00  	auipc	ra, 0
    17b4: e7 80 00 00  	jalr	ra
    17b8: 63 80 0c 00  	beqz	s9, 0x17b8 <.LBB0_72+0x20>
    17bc: 13 06 80 00  	li	a2, 8
    17c0: 93 06 00 10  	li	a3, 256
    17c4: 13 07 80 00  	li	a4, 8
    17c8: 93 07 00 01  	li	a5, 16
    17cc: 13 05 09 00  	mv	a0, s2
    17d0: 93 85 04 00  	mv	a1, s1
    17d4: 97 00 00 00  	auipc	ra, 0
    17d8: e7 80 00 00  	jalr	ra
    17dc: 13 05 89 00  	addi	a0, s2, 8
    17e0: 93 85 04 08  	addi	a1, s1, 128
    17e4: 13 06 80 00  	li	a2, 8
    17e8: 93 06 00 10  	li	a3, 256
    17ec: 13 07 80 00  	li	a4, 8
    17f0: 93 07 00 01  	li	a5, 16
    17f4: 97 00 00 00  	auipc	ra, 0
    17f8: e7 80 00 00  	jalr	ra
    17fc: 13 05 09 01  	addi	a0, s2, 16
    1800: 93 85 04 10  	addi	a1, s1, 256
    1804: 13 06 80 00  	li	a2, 8
    1808: 93 06 00 10  	li	a3, 256
    180c: 13 07 80 00  	li	a4, 8
    1810: 93 07 00 01  	li	a5, 16
    1814: 97 00 00 00  	auipc	ra, 0
    1818: e7 80 00 00  	jalr	ra
    181c: 13 05 89 01  	addi	a0, s2, 24
    1820: 93 85 04 18  	addi	a1, s1, 384
    1824: 13 06 80 00  	li	a2, 8
    1828: 93 06 00 10  	li	a3, 256
    182c: 13 07 80 00  	li	a4, 8
    1830: 93 07 00 01  	li	a5, 16
    1834: 97 00 00 00  	auipc	ra, 0
    1838: e7 80 00 00  	jalr	ra
    183c: 13 05 09 02  	addi	a0, s2, 32
    1840: 93 85 04 20  	addi	a1, s1, 512
    1844: 13 06 80 00  	li	a2, 8
    1848: 93 06 00 10  	li	a3, 256
    184c: 13 07 80 00  	li	a4, 8
    1850: 93 07 00 01  	li	a5, 16
    1854: 97 00 00 00  	auipc	ra, 0
    1858: e7 80 00 00  	jalr	ra
    185c: 13 05 89 02  	addi	a0, s2, 40
    1860: 93 85 04 28  	addi	a1, s1, 640
    1864: 13 06 80 00  	li	a2, 8
    1868: 93 06 00 10  	li	a3, 256
    186c: 13 07 80 00  	li	a4, 8
    1870: 93 07 00 01  	li	a5, 16
    1874: 97 00 00 00  	auipc	ra, 0
    1878: e7 80 00 00  	jalr	ra
    187c: 13 05 09 03  	addi	a0, s2, 48
    1880: 93 85 04 30  	addi	a1, s1, 768
    1884: 13 06 80 00  	li	a2, 8
    1888: 93 06 00 10  	li	a3, 256
    188c: 13 07 80 00  	li	a4, 8
    1890: 93 07 00 01  	li	a5, 16
    1894: 97 00 00 00  	auipc	ra, 0
    1898: e7 80 00 00  	jalr	ra
    189c: 13 05 89 03  	addi	a0, s2, 56
    18a0: 93 85 04 38  	addi	a1, s1, 896
    18a4: 13 06 80 00  	li	a2, 8
    18a8: 93 06 00 10  	li	a3, 256
    18ac: 13 07 80 00  	li	a4, 8
    18b0: 93 07 00 01  	li	a5, 16
    18b4: 97 00 00 00  	auipc	ra, 0
    18b8: e7 80 00 00  	jalr	ra

000018bc <.LBB0_74>:
    18bc: 97 00 00 00  	auipc	ra, 0
    18c0: e7 80 00 00  	jalr	ra

000018c4 <.Lpcrel_hi29>:
    18c4: 17 05 00 00  	auipc	a0, 0
    18c8: 13 05 05 00  	mv	a0, a0

000018cc <.Lpcrel_hi30>:
    18cc: 97 05 00 00  	auipc	a1, 0
    18d0: 93 8a 05 00  	mv	s5, a1
    18d4: 93 06 30 00  	li	a3, 3
    18d8: 93 05 05 00  	mv	a1, a0
    18dc: 13 86 0a 00  	mv	a2, s5
    18e0: 97 00 00 00  	auipc	ra, 0
    18e4: e7 80 00 00  	jalr	ra
    18e8: 97 00 00 00  	auipc	ra, 0
    18ec: e7 80 00 00  	jalr	ra

000018f0 <.Lpcrel_hi31>:
    18f0: 17 05 00 00  	auipc	a0, 0
    18f4: 13 0b 05 00  	mv	s6, a0

000018f8 <.Lpcrel_hi32>:
    18f8: 17 05 00 00  	auipc	a0, 0
    18fc: 13 04 05 00  	mv	s0, a0
    1900: 13 85 0a 00  	mv	a0, s5
    1904: 93 05 0b 00  	mv	a1, s6
    1908: 13 06 04 00  	mv	a2, s0
    190c: 93 06 00 00  	li	a3, 0
    1910: 97 00 00 00  	auipc	ra, 0
    1914: e7 80 00 00  	jalr	ra
    1918: b7 1d 00 00  	lui	s11, 1
    191c: 13 85 0d f4  	addi	a0, s11, -192
    1920: 93 05 00 04  	li	a1, 64
    1924: 97 00 00 00  	auipc	ra, 0
    1928: e7 80 00 00  	jalr	ra
    192c: 83 29 45 00  	lw	s3, 4(a0)
    1930: 37 05 01 00  	lui	a0, 16
    1934: 13 05 05 f4  	addi	a0, a0, -192
    1938: 93 05 00 04  	li	a1, 64
    193c: 97 00 00 00  	auipc	ra, 0
    1940: e7 80 00 00  	jalr	ra
    1944: 03 2a 45 00  	lw	s4, 4(a0)
    1948: 37 15 00 00  	lui	a0, 1
    194c: 93 05 00 04  	li	a1, 64
    1950: 97 00 00 00  	auipc	ra, 0
    1954: e7 80 00 00  	jalr	ra
    1958: 03 29 45 00  	lw	s2, 4(a0)
    195c: 63 80 0c 00  	beqz	s9, 0x195c <.Lpcrel_hi32+0x64>
    1960: 23 26 81 00  	sw	s0, 12(sp)
    1964: 13 04 00 00  	li	s0, 0
    1968: 13 0d 00 40  	li	s10, 1024
    196c: 93 0c 00 01  	li	s9, 16
    1970: 23 24 41 01  	sw	s4, 8(sp)

00001974 <.LBB0_76>:
    1974: 93 04 00 00  	li	s1, 0
    1978: 93 0b 0a 00  	mv	s7, s4

0000197c <.LBB0_77>:
    197c: 33 0c 9b 00  	add	s8, s6, s1
    1980: 13 06 10 00  	li	a2, 1
    1984: 93 06 00 40  	li	a3, 1024
    1988: 13 07 00 10  	li	a4, 256
    198c: 93 07 00 01  	li	a5, 16
    1990: 13 05 0c 00  	mv	a0, s8
    1994: 93 85 0b 00  	mv	a1, s7
    1998: 97 00 00 00  	auipc	ra, 0
    199c: e7 80 00 00  	jalr	ra
    19a0: 13 05 1c 00  	addi	a0, s8, 1
    19a4: 93 85 8b 00  	addi	a1, s7, 8
    19a8: 13 06 10 00  	li	a2, 1
    19ac: 93 06 00 40  	li	a3, 1024
    19b0: 13 07 00 10  	li	a4, 256
    19b4: 93 07 00 01  	li	a5, 16
    19b8: 97 00 00 00  	auipc	ra, 0
    19bc: e7 80 00 00  	jalr	ra
    19c0: 13 05 2c 00  	addi	a0, s8, 2
    19c4: 93 85 0b 01  	addi	a1, s7, 16
    19c8: 13 06 10 00  	li	a2, 1
    19cc: 93 06 00 40  	li	a3, 1024
    19d0: 13 07 00 10  	li	a4, 256
    19d4: 93 07 00 01  	li	a5, 16
    19d8: 97 00 00 00  	auipc	ra, 0
    19dc: e7 80 00 00  	jalr	ra
    19e0: 13 05 3c 00  	addi	a0, s8, 3
    19e4: 93 85 8b 01  	addi	a1, s7, 24
    19e8: 13 06 10 00  	li	a2, 1
    19ec: 93 06 00 40  	li	a3, 1024
    19f0: 13 07 00 10  	li	a4, 256
    19f4: 93 07 00 01  	li	a5, 16
    19f8: 97 00 00 00  	auipc	ra, 0
    19fc: e7 80 00 00  	jalr	ra
    1a00: 13 05 4c 00  	addi	a0, s8, 4
    1a04: 93 85 0b 02  	addi	a1, s7, 32
    1a08: 13 06 10 00  	li	a2, 1
    1a0c: 93 06 00 40  	li	a3, 1024
    1a10: 13 07 00 10  	li	a4, 256
    1a14: 93 07 00 01  	li	a5, 16
    1a18: 97 00 00 00  	auipc	ra, 0
    1a1c: e7 80 00 00  	jalr	ra
    1a20: 13 05 5c 00  	addi	a0, s8, 5
    1a24: 93 85 8b 02  	addi	a1, s7, 40
    1a28: 13 06 10 00  	li	a2, 1
    1a2c: 93 06 00 40  	li	a3, 1024
    1a30: 13 07 00 10  	li	a4, 256
    1a34: 93 07 00 01  	li	a5, 16
    1a38: 97 00 00 00  	auipc	ra, 0
    1a3c: e7 80 00 00  	jalr	ra
    1a40: 13 05 6c 00  	addi	a0, s8, 6
    1a44: 93 85 0b 03  	addi	a1, s7, 48
    1a48: 13 06 10 00  	li	a2, 1
    1a4c: 93 06 00 40  	li	a3, 1024
    1a50: 13 07 00 10  	li	a4, 256
    1a54: 93 07 00 01  	li	a5, 16
    1a58: 97 00 00 00  	auipc	ra, 0
    1a5c: e7 80 00 00  	jalr	ra
    1a60: 13 05 7c 00  	addi	a0, s8, 7
    1a64: 93 85 8b 03  	addi	a1, s7, 56
    1a68: 13 06 10 00  	li	a2, 1
    1a6c: 93 06 00 40  	li	a3, 1024
    1a70: 13 07 00 10  	li	a4, 256
    1a74: 93 07 00 01  	li	a5, 16
    1a78: 97 00 00 00  	auipc	ra, 0
    1a7c: e7 80 00 00  	jalr	ra
    1a80: 93 84 04 08  	addi	s1, s1, 128
    1a84: 93 8b 1b 00  	addi	s7, s7, 1
    1a88: 63 90 a4 01  	bne	s1, s10, 0x1a88 <.LBB0_77+0x10c>
    1a8c: 13 04 14 00  	addi	s0, s0, 1
    1a90: 13 0b 8b 00  	addi	s6, s6, 8
    1a94: 33 0a ba 01  	add	s4, s4, s11
    1a98: 63 10 94 01  	bne	s0, s9, 0x1a98 <.LBB0_77+0x11c>
    1a9c: 13 06 80 00  	li	a2, 8
    1aa0: 93 06 80 00  	li	a3, 8
    1aa4: 13 07 00 10  	li	a4, 256
    1aa8: 93 07 00 01  	li	a5, 16
    1aac: 13 85 0a 00  	mv	a0, s5
    1ab0: 93 85 09 00  	mv	a1, s3
    1ab4: 97 00 00 00  	auipc	ra, 0
    1ab8: e7 80 00 00  	jalr	ra
    1abc: 93 85 89 00  	addi	a1, s3, 8
    1ac0: 13 85 0a 08  	addi	a0, s5, 128
    1ac4: 13 06 80 00  	li	a2, 8
    1ac8: 93 06 80 00  	li	a3, 8
    1acc: 13 07 00 10  	li	a4, 256
    1ad0: 93 07 00 01  	li	a5, 16
    1ad4: 97 00 00 00  	auipc	ra, 0
    1ad8: e7 80 00 00  	jalr	ra
    1adc: 93 85 09 01  	addi	a1, s3, 16
    1ae0: 13 85 0a 10  	addi	a0, s5, 256
    1ae4: 13 06 80 00  	li	a2, 8
    1ae8: 93 06 80 00  	li	a3, 8
    1aec: 13 07 00 10  	li	a4, 256
    1af0: 93 07 00 01  	li	a5, 16
    1af4: 97 00 00 00  	auipc	ra, 0
    1af8: e7 80 00 00  	jalr	ra
    1afc: 93 85 89 01  	addi	a1, s3, 24
    1b00: 13 85 0a 18  	addi	a0, s5, 384
    1b04: 13 06 80 00  	li	a2, 8
    1b08: 93 06 80 00  	li	a3, 8
    1b0c: 13 07 00 10  	li	a4, 256
    1b10: 93 07 00 01  	li	a5, 16
    1b14: 97 00 00 00  	auipc	ra, 0
    1b18: e7 80 00 00  	jalr	ra
    1b1c: 93 85 09 02  	addi	a1, s3, 32
    1b20: 13 85 0a 20  	addi	a0, s5, 512
    1b24: 13 06 80 00  	li	a2, 8
    1b28: 93 06 80 00  	li	a3, 8
    1b2c: 13 07 00 10  	li	a4, 256
    1b30: 93 07 00 01  	li	a5, 16
    1b34: 97 00 00 00  	auipc	ra, 0
    1b38: e7 80 00 00  	jalr	ra
    1b3c: 93 85 89 02  	addi	a1, s3, 40
    1b40: 13 85 0a 28  	addi	a0, s5, 640
    1b44: 13 06 80 00  	li	a2, 8
    1b48: 93 06 80 00  	li	a3, 8
    1b4c: 13 07 00 10  	li	a4, 256
    1b50: 93 07 00 01  	li	a5, 16
    1b54: 97 00 00 00  	auipc	ra, 0
    1b58: e7 80 00 00  	jalr	ra
    1b5c: 93 85 09 03  	addi	a1, s3, 48
    1b60: 13 85 0a 30  	addi	a0, s5, 768
    1b64: 13 06 80 00  	li	a2, 8
    1b68: 93 06 80 00  	li	a3, 8
    1b6c: 13 07 00 10  	li	a4, 256
    1b70: 93 07 00 01  	li	a5, 16
    1b74: 97 00 00 00  	auipc	ra, 0
    1b78: e7 80 00 00  	jalr	ra
    1b7c: 93 85 89 03  	addi	a1, s3, 56
    1b80: 13 85 0a 38  	addi	a0, s5, 896
    1b84: 13 06 80 00  	li	a2, 8
    1b88: 93 06 80 00  	li	a3, 8
    1b8c: 13 07 00 10  	li	a4, 256
    1b90: 93 07 00 01  	li	a5, 16
    1b94: 97 00 00 00  	auipc	ra, 0
    1b98: e7 80 00 00  	jalr	ra
    1b9c: 83 2c 81 01  	lw	s9, 24(sp)
    1ba0: 03 2d 41 01  	lw	s10, 20(sp)
    1ba4: 03 24 c1 00  	lw	s0, 12(sp)
    1ba8: 03 2a 81 00  	lw	s4, 8(sp)

00001bac <.LBB0_80>:
    1bac: 97 00 00 00  	auipc	ra, 0
    1bb0: e7 80 00 00  	jalr	ra
    1bb4: 93 06 10 00  	li	a3, 1
    1bb8: 13 85 09 00  	mv	a0, s3
    1bbc: 93 05 0a 00  	mv	a1, s4
    1bc0: 13 06 09 00  	mv	a2, s2
    1bc4: 97 00 00 00  	auipc	ra, 0
    1bc8: e7 80 00 00  	jalr	ra
    1bcc: 63 00 0d 00  	beqz	s10, 0x1bcc <.LBB0_80+0x20>
    1bd0: 73 d0 00 3c  	csrwi	pmpaddr16, 1
    1bd4: 73 d0 10 3c  	csrwi	pmpaddr17, 1
    1bd8: 73 d0 20 3c  	csrwi	pmpaddr18, 1
    1bdc: 73 50 38 3c  	csrwi	pmpaddr19, 16
    1be0: 73 50 48 3c  	csrwi	pmpaddr20, 16
    1be4: 73 d0 50 3c  	csrwi	pmpaddr21, 1
    1be8: 73 50 68 3c  	csrwi	pmpaddr22, 16
    1bec: 73 50 78 3c  	csrwi	pmpaddr23, 16
    1bf0: 73 d0 80 3c  	csrwi	pmpaddr24, 1
    1bf4: 73 50 90 3c  	csrwi	pmpaddr25, 0
    1bf8: 73 50 a0 3c  	csrwi	pmpaddr26, 0
    1bfc: 73 50 b0 3c  	csrwi	pmpaddr27, 0
    1c00: 73 d0 c0 3c  	csrwi	pmpaddr28, 1
    1c04: 73 50 d8 3c  	csrwi	pmpaddr29, 16
    1c08: 73 d0 e0 3c  	csrwi	pmpaddr30, 1
    1c0c: 73 d0 f0 3c  	csrwi	pmpaddr31, 1
    1c10: 73 50 08 3d  	csrwi	pmpaddr32, 16
    1c14: 73 d0 10 3d  	csrwi	pmpaddr33, 1
    1c18: 73 50 20 3d  	csrwi	pmpaddr34, 0
    1c1c: 73 50 30 3d  	csrwi	pmpaddr35, 0
    1c20: 73 50 40 3d  	csrwi	pmpaddr36, 0
    1c24: 13 05 00 10  	li	a0, 256
    1c28: 73 10 55 3d  	csrw	pmpaddr37, a0
    1c2c: 73 50 60 3d  	csrwi	pmpaddr38, 0
    1c30: b7 15 00 00  	lui	a1, 1
    1c34: 73 90 75 3d  	csrw	pmpaddr39, a1
    1c38: 73 10 85 3d  	csrw	pmpaddr40, a0
    1c3c: 73 90 95 3d  	csrw	pmpaddr41, a1
    1c40: 73 50 a0 3d  	csrwi	pmpaddr42, 0
    1c44: 73 50 b0 3d  	csrwi	pmpaddr43, 0
    1c48: 73 50 c0 3d  	csrwi	pmpaddr44, 0
    1c4c: 73 50 d0 3d  	csrwi	pmpaddr45, 0
    1c50: 73 50 e0 3d  	csrwi	pmpaddr46, 0
    1c54: 73 10 f5 3d  	csrw	pmpaddr47, a0
    1c58: 73 90 05 3e  	csrw	pmpaddr48, a1
    1c5c: 73 50 10 3e  	csrwi	pmpaddr49, 0
    1c60: 73 10 25 3e  	csrw	pmpaddr50, a0
    1c64: 73 90 35 3e  	csrw	pmpaddr51, a1
    1c68: 73 d0 40 3e  	csrwi	pmpaddr52, 1
    1c6c: 73 50 54 3e  	csrwi	pmpaddr53, 8
    1c70: 73 d0 60 3e  	csrwi	pmpaddr54, 1
    1c74: 73 50 74 3e  	csrwi	pmpaddr55, 8
    1c78: 73 50 80 3e  	csrwi	pmpaddr56, 0
    1c7c: 73 50 90 3e  	csrwi	pmpaddr57, 0
    1c80: 73 50 a2 3e  	csrwi	pmpaddr58, 4
    1c84: 13 05 00 02  	li	a0, 32
    1c88: 73 10 b5 3e  	csrw	pmpaddr59, a0
    1c8c: 73 50 c2 3e  	csrwi	pmpaddr60, 4
    1c90: 73 10 d5 3e  	csrw	pmpaddr61, a0
    1c94: 73 90 e9 3e  	csrw	pmpaddr62, s3
    1c98: 73 10 fa 3e  	csrw	pmpaddr63, s4
    1c9c: 73 10 0a 3f  	csrw	1008, s4
    1ca0: 73 10 19 3f  	csrw	1009, s2
    1ca4: 73 10 29 3f  	csrw	1010, s2
    1ca8: 73 50 30 3f  	csrwi	1011, 0
    1cac: 73 50 78 3f  	csrwi	1015, 16
    1cb0: 73 50 88 3f  	csrwi	1016, 16
    1cb4: 73 d0 90 3f  	csrwi	1017, 1
    1cb8: 13 05 00 08  	li	a0, 128
    1cbc: 73 10 a5 3f  	csrw	1018, a0
    1cc0: 73 50 b0 3f  	csrwi	1019, 0
    1cc4: 73 50 c0 3f  	csrwi	1020, 0
    1cc8: 73 50 d0 3f  	csrwi	1021, 0
    1ccc: 73 50 e0 3f  	csrwi	1022, 0
    1cd0: 73 d0 f0 3f  	csrwi	1023, 1
    1cd4: 73 d0 40 3f  	csrwi	1012, 1
    1cd8: 73 d0 00 40  	csrwi	1024, 1
    1cdc: 73 50 40 3f  	csrwi	1012, 0
    1ce0: 73 50 40 3f  	csrwi	1012, 0
    1ce4: 73 50 00 40  	csrwi	1024, 0
    1ce8: 73 50 00 40  	csrwi	1024, 0

00001cec <.LBB0_82>:
    1cec: 93 06 20 00  	li	a3, 2
    1cf0: 13 85 09 00  	mv	a0, s3
    1cf4: 93 05 0a 00  	mv	a1, s4
    1cf8: 13 06 09 00  	mv	a2, s2
    1cfc: 97 00 00 00  	auipc	ra, 0
    1d00: e7 80 00 00  	jalr	ra
    1d04: 97 00 00 00  	auipc	ra, 0
    1d08: e7 80 00 00  	jalr	ra
    1d0c: 63 80 0c 00  	beqz	s9, 0x1d0c <.LBB0_82+0x20>
    1d10: 13 06 00 02  	li	a2, 32
    1d14: 93 06 00 10  	li	a3, 256
    1d18: 13 07 00 02  	li	a4, 32
    1d1c: 93 07 00 01  	li	a5, 16
    1d20: 13 05 09 00  	mv	a0, s2
    1d24: 93 05 04 00  	mv	a1, s0
    1d28: 97 00 00 00  	auipc	ra, 0
    1d2c: e7 80 00 00  	jalr	ra
    1d30: 13 05 09 02  	addi	a0, s2, 32
    1d34: 93 05 04 20  	addi	a1, s0, 512
    1d38: 13 06 00 02  	li	a2, 32
    1d3c: 93 06 00 10  	li	a3, 256
    1d40: 13 07 00 02  	li	a4, 32
    1d44: 93 07 00 01  	li	a5, 16
    1d48: 97 00 00 00  	auipc	ra, 0
    1d4c: e7 80 00 00  	jalr	ra
    1d50: 13 05 09 04  	addi	a0, s2, 64
    1d54: 93 05 04 40  	addi	a1, s0, 1024
    1d58: 13 06 00 02  	li	a2, 32
    1d5c: 93 06 00 10  	li	a3, 256
    1d60: 13 07 00 02  	li	a4, 32
    1d64: 93 07 00 01  	li	a5, 16
    1d68: 97 00 00 00  	auipc	ra, 0
    1d6c: e7 80 00 00  	jalr	ra
    1d70: 13 05 09 06  	addi	a0, s2, 96
    1d74: 93 05 04 60  	addi	a1, s0, 1536
    1d78: 13 06 00 02  	li	a2, 32
    1d7c: 93 06 00 10  	li	a3, 256
    1d80: 13 07 00 02  	li	a4, 32
    1d84: 93 07 00 01  	li	a5, 16
    1d88: 97 00 00 00  	auipc	ra, 0
    1d8c: e7 80 00 00  	jalr	ra
    1d90: 13 05 09 08  	addi	a0, s2, 128
    1d94: 13 04 f4 7f  	addi	s0, s0, 2047
    1d98: 93 05 14 00  	addi	a1, s0, 1
    1d9c: 13 06 00 02  	li	a2, 32
    1da0: 93 06 00 10  	li	a3, 256
    1da4: 13 07 00 02  	li	a4, 32
    1da8: 93 07 00 01  	li	a5, 16
    1dac: 97 00 00 00  	auipc	ra, 0
    1db0: e7 80 00 00  	jalr	ra
    1db4: 13 05 09 0a  	addi	a0, s2, 160
    1db8: 93 05 14 20  	addi	a1, s0, 513
    1dbc: 13 06 00 02  	li	a2, 32
    1dc0: 93 06 00 10  	li	a3, 256
    1dc4: 13 07 00 02  	li	a4, 32
    1dc8: 93 07 00 01  	li	a5, 16
    1dcc: 97 00 00 00  	auipc	ra, 0
    1dd0: e7 80 00 00  	jalr	ra
    1dd4: 13 05 09 0c  	addi	a0, s2, 192
    1dd8: 93 05 14 40  	addi	a1, s0, 1025
    1ddc: 13 06 00 02  	li	a2, 32
    1de0: 93 06 00 10  	li	a3, 256
    1de4: 13 07 00 02  	li	a4, 32
    1de8: 93 07 00 01  	li	a5, 16
    1dec: 97 00 00 00  	auipc	ra, 0
    1df0: e7 80 00 00  	jalr	ra
    1df4: 13 05 09 0e  	addi	a0, s2, 224
    1df8: 93 05 14 60  	addi	a1, s0, 1537
    1dfc: 13 06 00 02  	li	a2, 32
    1e00: 93 06 00 10  	li	a3, 256
    1e04: 13 07 00 02  	li	a4, 32
    1e08: 93 07 00 01  	li	a5, 16
    1e0c: 97 00 00 00  	auipc	ra, 0
    1e10: e7 80 00 00  	jalr	ra

00001e14 <.LBB0_84>:
    1e14: 97 00 00 00  	auipc	ra, 0
    1e18: e7 80 00 00  	jalr	ra

00001e1c <.Lpcrel_hi33>:
    1e1c: 17 05 00 00  	auipc	a0, 0
    1e20: 13 05 05 00  	mv	a0, a0

00001e24 <.Lpcrel_hi34>:
    1e24: 97 05 00 00  	auipc	a1, 0
    1e28: 93 85 05 00  	mv	a1, a1

00001e2c <.Lpcrel_hi35>:
    1e2c: 17 06 00 00  	auipc	a2, 0
    1e30: 93 04 06 00  	mv	s1, a2
    1e34: 93 06 30 00  	li	a3, 3
    1e38: 13 86 04 00  	mv	a2, s1
    1e3c: 97 00 00 00  	auipc	ra, 0
    1e40: e7 80 00 00  	jalr	ra
    1e44: 97 00 00 00  	auipc	ra, 0
    1e48: e7 80 00 00  	jalr	ra

00001e4c <.Lpcrel_hi36>:
    1e4c: 17 05 00 00  	auipc	a0, 0
    1e50: 13 05 05 00  	mv	a0, a0

00001e54 <.Lpcrel_hi37>:
    1e54: 97 05 00 00  	auipc	a1, 0
    1e58: 13 86 05 00  	mv	a2, a1
    1e5c: 93 85 04 00  	mv	a1, s1
    1e60: 93 06 00 00  	li	a3, 0
    1e64: 97 00 00 00  	auipc	ra, 0
    1e68: e7 80 00 00  	jalr	ra
    1e6c: 13 05 00 20  	li	a0, 512
    1e70: 93 05 00 04  	li	a1, 64
    1e74: 97 00 00 00  	auipc	ra, 0
    1e78: e7 80 00 00  	jalr	ra
    1e7c: 83 24 45 00  	lw	s1, 4(a0)
    1e80: 37 15 00 00  	lui	a0, 1
    1e84: 93 05 00 04  	li	a1, 64
    1e88: 97 00 00 00  	auipc	ra, 0
    1e8c: e7 80 00 00  	jalr	ra
    1e90: 83 29 45 00  	lw	s3, 4(a0)
    1e94: 37 15 00 00  	lui	a0, 1
    1e98: 93 05 00 04  	li	a1, 64
    1e9c: 97 00 00 00  	auipc	ra, 0
    1ea0: e7 80 00 00  	jalr	ra
    1ea4: 03 29 45 00  	lw	s2, 4(a0)
    1ea8: 63 80 0c 00  	beqz	s9, 0x1ea8 <.Lpcrel_hi37+0x54>

00001eac <.Lpcrel_hi38>:
    1eac: 17 05 00 00  	auipc	a0, 0
    1eb0: 13 05 05 00  	mv	a0, a0
    1eb4: 37 16 00 00  	lui	a2, 1
    1eb8: 93 85 09 00  	mv	a1, s3
    1ebc: 97 00 00 00  	auipc	ra, 0
    1ec0: e7 80 00 00  	jalr	ra

00001ec4 <.Lpcrel_hi39>:
    1ec4: 17 05 00 00  	auipc	a0, 0
    1ec8: 13 05 05 00  	mv	a0, a0
    1ecc: 13 06 00 20  	li	a2, 512
    1ed0: 93 85 04 00  	mv	a1, s1
    1ed4: 97 00 00 00  	auipc	ra, 0
    1ed8: e7 80 00 00  	jalr	ra

00001edc <.LBB0_86>:
    1edc: 97 00 00 00  	auipc	ra, 0
    1ee0: e7 80 00 00  	jalr	ra
    1ee4: 93 06 10 00  	li	a3, 1
    1ee8: 13 85 04 00  	mv	a0, s1
    1eec: 93 85 09 00  	mv	a1, s3
    1ef0: 13 06 09 00  	mv	a2, s2
    1ef4: 97 00 00 00  	auipc	ra, 0
    1ef8: e7 80 00 00  	jalr	ra
    1efc: 63 00 0d 00  	beqz	s10, 0x1efc <.LBB0_86+0x20>
    1f00: 13 05 10 00  	li	a0, 1
    1f04: 93 15 b5 00  	slli	a1, a0, 11
    1f08: 33 85 b9 00  	add	a0, s3, a1
    1f0c: b3 05 b9 00  	add	a1, s2, a1
    1f10: 13 06 00 08  	li	a2, 128
    1f14: 93 86 04 00  	mv	a3, s1
    1f18: 13 07 09 00  	mv	a4, s2
    1f1c: 93 87 09 00  	mv	a5, s3

00001f20 <.LBB0_88>:
    1f20: 03 a8 06 00  	lw	a6, 0(a3)
    1f24: 83 a8 07 00  	lw	a7, 0(a5)
    1f28: 33 88 08 01  	add	a6, a7, a6
    1f2c: 23 20 07 01  	sw	a6, 0(a4)
    1f30: 93 87 47 00  	addi	a5, a5, 4
    1f34: 13 07 47 00  	addi	a4, a4, 4
    1f38: 13 06 f6 ff  	addi	a2, a2, -1
    1f3c: 93 86 46 00  	addi	a3, a3, 4
    1f40: 63 10 06 00  	bnez	a2, 0x1f40 <.LBB0_88+0x20>
    1f44: 13 06 09 20  	addi	a2, s2, 512
    1f48: 93 86 09 20  	addi	a3, s3, 512
    1f4c: 13 07 00 08  	li	a4, 128
    1f50: 93 87 04 00  	mv	a5, s1

00001f54 <.LBB0_90>:
    1f54: 03 a8 07 00  	lw	a6, 0(a5)
    1f58: 83 a8 06 00  	lw	a7, 0(a3)
    1f5c: 33 88 08 01  	add	a6, a7, a6
    1f60: 23 20 06 01  	sw	a6, 0(a2)
    1f64: 13 07 f7 ff  	addi	a4, a4, -1
    1f68: 13 06 46 00  	addi	a2, a2, 4
    1f6c: 93 86 46 00  	addi	a3, a3, 4
    1f70: 93 87 47 00  	addi	a5, a5, 4
    1f74: 63 10 07 00  	bnez	a4, 0x1f74 <.LBB0_90+0x20>
    1f78: 13 06 09 40  	addi	a2, s2, 1024
    1f7c: 93 86 09 40  	addi	a3, s3, 1024
    1f80: 13 07 00 08  	li	a4, 128
    1f84: 93 87 04 00  	mv	a5, s1

00001f88 <.LBB0_92>:
    1f88: 03 a8 07 00  	lw	a6, 0(a5)
    1f8c: 83 a8 06 00  	lw	a7, 0(a3)
    1f90: 33 88 08 01  	add	a6, a7, a6
    1f94: 23 20 06 01  	sw	a6, 0(a2)
    1f98: 13 07 f7 ff  	addi	a4, a4, -1
    1f9c: 13 06 46 00  	addi	a2, a2, 4
    1fa0: 93 86 46 00  	addi	a3, a3, 4
    1fa4: 93 87 47 00  	addi	a5, a5, 4
    1fa8: 63 10 07 00  	bnez	a4, 0x1fa8 <.LBB0_92+0x20>
    1fac: 13 06 09 60  	addi	a2, s2, 1536
    1fb0: 93 86 09 60  	addi	a3, s3, 1536
    1fb4: 13 07 00 08  	li	a4, 128
    1fb8: 93 87 04 00  	mv	a5, s1

00001fbc <.LBB0_94>:
    1fbc: 03 a8 07 00  	lw	a6, 0(a5)
    1fc0: 83 a8 06 00  	lw	a7, 0(a3)
    1fc4: 33 88 08 01  	add	a6, a7, a6
    1fc8: 23 20 06 01  	sw	a6, 0(a2)
    1fcc: 13 07 f7 ff  	addi	a4, a4, -1
    1fd0: 13 06 46 00  	addi	a2, a2, 4
    1fd4: 93 86 46 00  	addi	a3, a3, 4
    1fd8: 93 87 47 00  	addi	a5, a5, 4
    1fdc: 63 10 07 00  	bnez	a4, 0x1fdc <.LBB0_94+0x20>
    1fe0: 13 06 00 08  	li	a2, 128
    1fe4: 93 86 04 00  	mv	a3, s1
    1fe8: 13 07 05 00  	mv	a4, a0
    1fec: 93 87 05 00  	mv	a5, a1

00001ff0 <.LBB0_96>:
    1ff0: 03 a8 06 00  	lw	a6, 0(a3)
    1ff4: 83 28 07 00  	lw	a7, 0(a4)
    1ff8: 33 88 08 01  	add	a6, a7, a6
    1ffc: 23 a0 07 01  	sw	a6, 0(a5)
    2000: 13 06 f6 ff  	addi	a2, a2, -1
    2004: 93 87 47 00  	addi	a5, a5, 4
    2008: 13 07 47 00  	addi	a4, a4, 4
    200c: 93 86 46 00  	addi	a3, a3, 4
    2010: 63 10 06 00  	bnez	a2, 0x2010 <.LBB0_96+0x20>
    2014: 13 86 05 20  	addi	a2, a1, 512
    2018: 93 06 05 20  	addi	a3, a0, 512
    201c: 13 07 00 08  	li	a4, 128
    2020: 93 87 04 00  	mv	a5, s1

00002024 <.LBB0_98>:
    2024: 03 a8 07 00  	lw	a6, 0(a5)
    2028: 83 a8 06 00  	lw	a7, 0(a3)
    202c: 33 88 08 01  	add	a6, a7, a6
    2030: 23 20 06 01  	sw	a6, 0(a2)
    2034: 13 07 f7 ff  	addi	a4, a4, -1
    2038: 13 06 46 00  	addi	a2, a2, 4
    203c: 93 86 46 00  	addi	a3, a3, 4
    2040: 93 87 47 00  	addi	a5, a5, 4
    2044: 63 10 07 00  	bnez	a4, 0x2044 <.LBB0_98+0x20>
    2048: 13 86 05 40  	addi	a2, a1, 1024
    204c: 93 06 05 40  	addi	a3, a0, 1024
    2050: 13 07 00 08  	li	a4, 128
    2054: 93 87 04 00  	mv	a5, s1

00002058 <.LBB0_100>:
    2058: 03 a8 07 00  	lw	a6, 0(a5)
    205c: 83 a8 06 00  	lw	a7, 0(a3)
    2060: 33 88 08 01  	add	a6, a7, a6
    2064: 23 20 06 01  	sw	a6, 0(a2)
    2068: 13 07 f7 ff  	addi	a4, a4, -1
    206c: 13 06 46 00  	addi	a2, a2, 4
    2070: 93 86 46 00  	addi	a3, a3, 4
    2074: 93 87 47 00  	addi	a5, a5, 4
    2078: 63 10 07 00  	bnez	a4, 0x2078 <.LBB0_100+0x20>
    207c: 93 85 05 60  	addi	a1, a1, 1536
    2080: 13 05 05 60  	addi	a0, a0, 1536
    2084: 13 06 00 08  	li	a2, 128
    2088: 93 86 04 00  	mv	a3, s1

0000208c <.LBB0_102>:
    208c: 03 a7 06 00  	lw	a4, 0(a3)
    2090: 83 27 05 00  	lw	a5, 0(a0)
    2094: 33 87 e7 00  	add	a4, a5, a4
    2098: 23 a0 e5 00  	sw	a4, 0(a1)
    209c: 13 06 f6 ff  	addi	a2, a2, -1
    20a0: 93 85 45 00  	addi	a1, a1, 4
    20a4: 13 05 45 00  	addi	a0, a0, 4
    20a8: 93 86 46 00  	addi	a3, a3, 4
    20ac: 63 10 06 00  	bnez	a2, 0x20ac <.LBB0_102+0x20>

000020b0 <.LBB0_103>:
    20b0: 93 06 20 00  	li	a3, 2
    20b4: 13 85 04 00  	mv	a0, s1
    20b8: 93 85 09 00  	mv	a1, s3
    20bc: 13 06 09 00  	mv	a2, s2
    20c0: 97 00 00 00  	auipc	ra, 0
    20c4: e7 80 00 00  	jalr	ra
    20c8: 97 00 00 00  	auipc	ra, 0
    20cc: e7 80 00 00  	jalr	ra
    20d0: 63 80 0c 00  	beqz	s9, 0x20d0 <.LBB0_103+0x20>

000020d4 <.Lpcrel_hi40>:
    20d4: 17 05 00 00  	auipc	a0, 0
    20d8: 93 05 05 00  	mv	a1, a0
    20dc: 37 16 00 00  	lui	a2, 1
    20e0: 13 05 09 00  	mv	a0, s2
    20e4: 97 00 00 00  	auipc	ra, 0
    20e8: e7 80 00 00  	jalr	ra

000020ec <.LBB0_105>:
    20ec: 97 00 00 00  	auipc	ra, 0
    20f0: e7 80 00 00  	jalr	ra

000020f4 <.Lpcrel_hi41>:
    20f4: 17 05 00 00  	auipc	a0, 0
    20f8: 13 05 05 00  	mv	a0, a0

000020fc <.Lpcrel_hi42>:
    20fc: 97 05 00 00  	auipc	a1, 0
    2100: 93 85 05 00  	mv	a1, a1

00002104 <.Lpcrel_hi43>:
    2104: 17 06 00 00  	auipc	a2, 0
    2108: 13 0a 06 00  	mv	s4, a2
    210c: 93 06 30 00  	li	a3, 3
    2110: 13 06 0a 00  	mv	a2, s4
    2114: 97 00 00 00  	auipc	ra, 0
    2118: e7 80 00 00  	jalr	ra
    211c: 97 00 00 00  	auipc	ra, 0
    2120: e7 80 00 00  	jalr	ra

00002124 <.Lpcrel_hi44>:
    2124: 17 05 00 00  	auipc	a0, 0
    2128: 93 04 05 00  	mv	s1, a0
    212c: 13 05 0a 00  	mv	a0, s4
    2130: 93 05 0a 00  	mv	a1, s4
    2134: 13 86 04 00  	mv	a2, s1
    2138: 93 06 00 00  	li	a3, 0
    213c: 97 00 00 00  	auipc	ra, 0
    2140: e7 80 00 00  	jalr	ra
    2144: 37 15 00 00  	lui	a0, 1
    2148: 93 05 00 04  	li	a1, 64
    214c: 37 14 00 00  	lui	s0, 1
    2150: 97 00 00 00  	auipc	ra, 0
    2154: e7 80 00 00  	jalr	ra
    2158: 83 29 45 00  	lw	s3, 4(a0)
    215c: 13 05 04 f4  	addi	a0, s0, -192
    2160: 93 05 00 04  	li	a1, 64
    2164: 97 00 00 00  	auipc	ra, 0
    2168: e7 80 00 00  	jalr	ra
    216c: 03 29 45 00  	lw	s2, 4(a0)
    2170: 63 80 0c 00  	beqz	s9, 0x2170 <.Lpcrel_hi44+0x4c>
    2174: 13 06 00 02  	li	a2, 32
    2178: 93 06 00 02  	li	a3, 32
    217c: 13 07 00 10  	li	a4, 256
    2180: 93 07 00 01  	li	a5, 16
    2184: 13 05 0a 00  	mv	a0, s4
    2188: 93 85 09 00  	mv	a1, s3
    218c: 97 00 00 00  	auipc	ra, 0
    2190: e7 80 00 00  	jalr	ra
    2194: 93 85 09 02  	addi	a1, s3, 32
    2198: 13 05 0a 20  	addi	a0, s4, 512
    219c: 13 06 00 02  	li	a2, 32
    21a0: 93 06 00 02  	li	a3, 32
    21a4: 13 07 00 10  	li	a4, 256
    21a8: 93 07 00 01  	li	a5, 16
    21ac: 97 00 00 00  	auipc	ra, 0
    21b0: e7 80 00 00  	jalr	ra
    21b4: 93 85 09 04  	addi	a1, s3, 64
    21b8: 13 05 0a 40  	addi	a0, s4, 1024
    21bc: 13 06 00 02  	li	a2, 32
    21c0: 93 06 00 02  	li	a3, 32
    21c4: 13 07 00 10  	li	a4, 256
    21c8: 93 07 00 01  	li	a5, 16
    21cc: 97 00 00 00  	auipc	ra, 0
    21d0: e7 80 00 00  	jalr	ra
    21d4: 93 85 09 06  	addi	a1, s3, 96
    21d8: 13 05 0a 60  	addi	a0, s4, 1536
    21dc: 13 06 00 02  	li	a2, 32
    21e0: 93 06 00 02  	li	a3, 32
    21e4: 13 07 00 10  	li	a4, 256
    21e8: 93 07 00 01  	li	a5, 16
    21ec: 97 00 00 00  	auipc	ra, 0
    21f0: e7 80 00 00  	jalr	ra
    21f4: 93 85 09 08  	addi	a1, s3, 128
    21f8: 13 04 fa 7f  	addi	s0, s4, 2047
    21fc: 13 05 14 00  	addi	a0, s0, 1
    2200: 13 06 00 02  	li	a2, 32
    2204: 93 06 00 02  	li	a3, 32
    2208: 13 07 00 10  	li	a4, 256
    220c: 93 07 00 01  	li	a5, 16
    2210: 97 00 00 00  	auipc	ra, 0
    2214: e7 80 00 00  	jalr	ra
    2218: 93 85 09 0a  	addi	a1, s3, 160
    221c: 13 05 14 20  	addi	a0, s0, 513
    2220: 13 06 00 02  	li	a2, 32
    2224: 93 06 00 02  	li	a3, 32
    2228: 13 07 00 10  	li	a4, 256
    222c: 93 07 00 01  	li	a5, 16
    2230: 97 00 00 00  	auipc	ra, 0
    2234: e7 80 00 00  	jalr	ra
    2238: 93 85 09 0c  	addi	a1, s3, 192
    223c: 13 05 14 40  	addi	a0, s0, 1025
    2240: 13 06 00 02  	li	a2, 32
    2244: 93 06 00 02  	li	a3, 32
    2248: 13 07 00 10  	li	a4, 256
    224c: 93 07 00 01  	li	a5, 16
    2250: 97 00 00 00  	auipc	ra, 0
    2254: e7 80 00 00  	jalr	ra
    2258: 93 85 09 0e  	addi	a1, s3, 224
    225c: 13 05 14 60  	addi	a0, s0, 1537
    2260: 13 06 00 02  	li	a2, 32
    2264: 93 06 00 02  	li	a3, 32
    2268: 13 07 00 10  	li	a4, 256
    226c: 93 07 00 01  	li	a5, 16
    2270: 97 00 00 00  	auipc	ra, 0
    2274: e7 80 00 00  	jalr	ra

00002278 <.LBB0_107>:
    2278: 97 00 00 00  	auipc	ra, 0
    227c: e7 80 00 00  	jalr	ra
    2280: 93 06 10 00  	li	a3, 1
    2284: 13 85 09 00  	mv	a0, s3
    2288: 93 85 09 00  	mv	a1, s3
    228c: 13 06 09 00  	mv	a2, s2
    2290: 97 00 00 00  	auipc	ra, 0
    2294: e7 80 00 00  	jalr	ra
    2298: 63 00 0d 00  	beqz	s10, 0x2298 <.LBB0_107+0x20>
    229c: 73 d0 00 3c  	csrwi	pmpaddr16, 1
    22a0: 73 d0 10 3c  	csrwi	pmpaddr17, 1
    22a4: 73 d0 20 3c  	csrwi	pmpaddr18, 1
    22a8: 73 d0 30 3c  	csrwi	pmpaddr19, 1
    22ac: 73 50 48 3c  	csrwi	pmpaddr20, 16
    22b0: 73 d0 50 3c  	csrwi	pmpaddr21, 1
    22b4: 73 d0 60 3c  	csrwi	pmpaddr22, 1
    22b8: 73 50 78 3c  	csrwi	pmpaddr23, 16
    22bc: 73 d0 80 3c  	csrwi	pmpaddr24, 1
    22c0: 73 d0 90 3c  	csrwi	pmpaddr25, 1
    22c4: 73 50 a8 3c  	csrwi	pmpaddr26, 16
    22c8: 73 d0 b0 3c  	csrwi	pmpaddr27, 1
    22cc: 73 d0 c0 3c  	csrwi	pmpaddr28, 1
    22d0: 73 50 d8 3c  	csrwi	pmpaddr29, 16
    22d4: 73 d0 e0 3c  	csrwi	pmpaddr30, 1
    22d8: 73 50 f0 3c  	csrwi	pmpaddr31, 0
    22dc: 73 50 00 3d  	csrwi	pmpaddr32, 0
    22e0: 73 50 10 3d  	csrwi	pmpaddr33, 0
    22e4: 73 50 20 3d  	csrwi	pmpaddr34, 0
    22e8: 73 50 30 3d  	csrwi	pmpaddr35, 0
    22ec: 73 50 40 3d  	csrwi	pmpaddr36, 0
    22f0: 73 50 50 3d  	csrwi	pmpaddr37, 0
    22f4: 73 50 60 3d  	csrwi	pmpaddr38, 0
    22f8: 73 50 70 3d  	csrwi	pmpaddr39, 0
    22fc: 73 50 80 3d  	csrwi	pmpaddr40, 0
    2300: 73 50 90 3d  	csrwi	pmpaddr41, 0
    2304: 73 50 a0 3d  	csrwi	pmpaddr42, 0
    2308: 73 50 b0 3d  	csrwi	pmpaddr43, 0
    230c: 13 05 00 10  	li	a0, 256
    2310: 73 10 c5 3d  	csrw	pmpaddr44, a0
    2314: b7 15 00 00  	lui	a1, 1
    2318: 73 90 d5 3d  	csrw	pmpaddr45, a1
    231c: 73 50 e0 3d  	csrwi	pmpaddr46, 0
    2320: 73 10 f5 3d  	csrw	pmpaddr47, a0
    2324: 73 90 05 3e  	csrw	pmpaddr48, a1
    2328: 73 50 10 3e  	csrwi	pmpaddr49, 0
    232c: 73 50 20 3e  	csrwi	pmpaddr50, 0
    2330: 73 50 30 3e  	csrwi	pmpaddr51, 0
    2334: 73 d0 40 3e  	csrwi	pmpaddr52, 1
    2338: 73 50 54 3e  	csrwi	pmpaddr53, 8
    233c: 73 d0 60 3e  	csrwi	pmpaddr54, 1
    2340: 73 50 74 3e  	csrwi	pmpaddr55, 8
    2344: 73 d0 80 3e  	csrwi	pmpaddr56, 1
    2348: 73 50 94 3e  	csrwi	pmpaddr57, 8
    234c: 73 50 a2 3e  	csrwi	pmpaddr58, 4
    2350: 13 05 00 02  	li	a0, 32
    2354: 73 10 b5 3e  	csrw	pmpaddr59, a0
    2358: 73 50 c0 3e  	csrwi	pmpaddr60, 0
    235c: 73 50 d0 3e  	csrwi	pmpaddr61, 0
    2360: 37 05 00 10  	lui	a0, 65536
    2364: 93 05 05 08  	addi	a1, a0, 128
    2368: 73 90 e5 3e  	csrw	pmpaddr62, a1
    236c: 13 05 05 04  	addi	a0, a0, 64
    2370: 73 10 f5 3e  	csrw	pmpaddr63, a0
    2374: 73 10 09 3f  	csrw	1008, s2
    2378: 73 90 19 3f  	csrw	1009, s3
    237c: 73 90 29 3f  	csrw	1010, s3
    2380: 73 50 30 3f  	csrwi	1011, 0
    2384: 73 d0 70 3f  	csrwi	1015, 1
    2388: 73 50 88 3f  	csrwi	1016, 16
    238c: 73 d0 90 3f  	csrwi	1017, 1
    2390: 73 50 a0 3f  	csrwi	1018, 0
    2394: 37 85 21 7f  	lui	a0, 520728
    2398: 73 10 b5 3f  	csrw	1019, a0
    239c: 13 05 00 18  	li	a0, 384
    23a0: 73 10 c5 3f  	csrw	1020, a0
    23a4: 37 05 a2 46  	lui	a0, 289312
    23a8: 13 05 d5 9a  	addi	a0, a0, -1619
    23ac: 73 10 d5 3f  	csrw	1021, a0
    23b0: 73 50 e8 3f  	csrwi	1022, 16
    23b4: 73 50 f0 3f  	csrwi	1023, 0
    23b8: 73 d0 40 3f  	csrwi	1012, 1
    23bc: 73 d0 00 40  	csrwi	1024, 1
    23c0: 73 50 40 3f  	csrwi	1012, 0
    23c4: 73 50 40 3f  	csrwi	1012, 0
    23c8: 73 50 00 40  	csrwi	1024, 0
    23cc: 73 50 00 40  	csrwi	1024, 0

000023d0 <.LBB0_109>:
    23d0: 93 06 20 00  	li	a3, 2
    23d4: 13 85 09 00  	mv	a0, s3
    23d8: 93 85 09 00  	mv	a1, s3
    23dc: 13 06 09 00  	mv	a2, s2
    23e0: 97 00 00 00  	auipc	ra, 0
    23e4: e7 80 00 00  	jalr	ra
    23e8: 97 00 00 00  	auipc	ra, 0
    23ec: e7 80 00 00  	jalr	ra
    23f0: 63 80 0c 00  	beqz	s9, 0x23f0 <.LBB0_109+0x20>
    23f4: 13 06 80 00  	li	a2, 8
    23f8: 93 06 00 10  	li	a3, 256
    23fc: 13 07 80 00  	li	a4, 8
    2400: 93 07 00 01  	li	a5, 16
    2404: 13 05 09 00  	mv	a0, s2
    2408: 93 85 04 00  	mv	a1, s1
    240c: 97 00 00 00  	auipc	ra, 0
    2410: e7 80 00 00  	jalr	ra
    2414: 13 05 89 00  	addi	a0, s2, 8
    2418: 93 85 04 08  	addi	a1, s1, 128
    241c: 13 06 80 00  	li	a2, 8
    2420: 93 06 00 10  	li	a3, 256
    2424: 13 07 80 00  	li	a4, 8
    2428: 93 07 00 01  	li	a5, 16
    242c: 97 00 00 00  	auipc	ra, 0
    2430: e7 80 00 00  	jalr	ra
    2434: 13 05 09 01  	addi	a0, s2, 16
    2438: 93 85 04 10  	addi	a1, s1, 256
    243c: 13 06 80 00  	li	a2, 8
    2440: 93 06 00 10  	li	a3, 256
    2444: 13 07 80 00  	li	a4, 8
    2448: 93 07 00 01  	li	a5, 16
    244c: 97 00 00 00  	auipc	ra, 0
    2450: e7 80 00 00  	jalr	ra
    2454: 13 05 89 01  	addi	a0, s2, 24
    2458: 93 85 04 18  	addi	a1, s1, 384
    245c: 13 06 80 00  	li	a2, 8
    2460: 93 06 00 10  	li	a3, 256
    2464: 13 07 80 00  	li	a4, 8
    2468: 93 07 00 01  	li	a5, 16
    246c: 97 00 00 00  	auipc	ra, 0
    2470: e7 80 00 00  	jalr	ra
    2474: 13 05 09 02  	addi	a0, s2, 32
    2478: 93 85 04 20  	addi	a1, s1, 512
    247c: 13 06 80 00  	li	a2, 8
    2480: 93 06 00 10  	li	a3, 256
    2484: 13 07 80 00  	li	a4, 8
    2488: 93 07 00 01  	li	a5, 16
    248c: 97 00 00 00  	auipc	ra, 0
    2490: e7 80 00 00  	jalr	ra
    2494: 13 05 89 02  	addi	a0, s2, 40
    2498: 93 85 04 28  	addi	a1, s1, 640
    249c: 13 06 80 00  	li	a2, 8
    24a0: 93 06 00 10  	li	a3, 256
    24a4: 13 07 80 00  	li	a4, 8
    24a8: 93 07 00 01  	li	a5, 16
    24ac: 97 00 00 00  	auipc	ra, 0
    24b0: e7 80 00 00  	jalr	ra
    24b4: 13 05 09 03  	addi	a0, s2, 48
    24b8: 93 85 04 30  	addi	a1, s1, 768
    24bc: 13 06 80 00  	li	a2, 8
    24c0: 93 06 00 10  	li	a3, 256
    24c4: 13 07 80 00  	li	a4, 8
    24c8: 93 07 00 01  	li	a5, 16
    24cc: 97 00 00 00  	auipc	ra, 0
    24d0: e7 80 00 00  	jalr	ra
    24d4: 13 05 89 03  	addi	a0, s2, 56
    24d8: 93 85 04 38  	addi	a1, s1, 896
    24dc: 13 06 80 00  	li	a2, 8
    24e0: 93 06 00 10  	li	a3, 256
    24e4: 13 07 80 00  	li	a4, 8
    24e8: 93 07 00 01  	li	a5, 16
    24ec: 97 00 00 00  	auipc	ra, 0
    24f0: e7 80 00 00  	jalr	ra

000024f4 <.LBB0_111>:
    24f4: 97 00 00 00  	auipc	ra, 0
    24f8: e7 80 00 00  	jalr	ra

000024fc <.Lpcrel_hi45>:
    24fc: 17 05 00 00  	auipc	a0, 0
    2500: 13 05 05 00  	mv	a0, a0

00002504 <.Lpcrel_hi46>:
    2504: 97 05 00 00  	auipc	a1, 0
    2508: 93 8a 05 00  	mv	s5, a1
    250c: 93 06 30 00  	li	a3, 3
    2510: 93 05 05 00  	mv	a1, a0
    2514: 13 86 0a 00  	mv	a2, s5
    2518: 97 00 00 00  	auipc	ra, 0
    251c: e7 80 00 00  	jalr	ra
    2520: 97 00 00 00  	auipc	ra, 0
    2524: e7 80 00 00  	jalr	ra

00002528 <.Lpcrel_hi47>:
    2528: 17 05 00 00  	auipc	a0, 0
    252c: 13 0b 05 00  	mv	s6, a0

00002530 <.Lpcrel_hi48>:
    2530: 17 05 00 00  	auipc	a0, 0
    2534: 13 04 05 00  	mv	s0, a0
    2538: 13 85 0a 00  	mv	a0, s5
    253c: 93 05 0b 00  	mv	a1, s6
    2540: 13 06 04 00  	mv	a2, s0
    2544: 93 06 00 00  	li	a3, 0
    2548: 97 00 00 00  	auipc	ra, 0
    254c: e7 80 00 00  	jalr	ra
    2550: b7 1d 00 00  	lui	s11, 1
    2554: 13 85 0d f4  	addi	a0, s11, -192
    2558: 93 05 00 04  	li	a1, 64
    255c: 97 00 00 00  	auipc	ra, 0
    2560: e7 80 00 00  	jalr	ra
    2564: 83 29 45 00  	lw	s3, 4(a0)
    2568: 37 05 01 00  	lui	a0, 16
    256c: 13 05 05 f4  	addi	a0, a0, -192
    2570: 93 05 00 04  	li	a1, 64
    2574: 97 00 00 00  	auipc	ra, 0
    2578: e7 80 00 00  	jalr	ra
    257c: 03 2a 45 00  	lw	s4, 4(a0)
    2580: 37 15 00 00  	lui	a0, 1
    2584: 93 05 00 04  	li	a1, 64
    2588: 97 00 00 00  	auipc	ra, 0
    258c: e7 80 00 00  	jalr	ra
    2590: 03 29 45 00  	lw	s2, 4(a0)
    2594: 63 80 0c 00  	beqz	s9, 0x2594 <.Lpcrel_hi48+0x64>
    2598: 23 26 81 00  	sw	s0, 12(sp)
    259c: 13 04 00 00  	li	s0, 0
    25a0: 13 0d 00 40  	li	s10, 1024
    25a4: 93 0c 00 01  	li	s9, 16
    25a8: 23 24 41 01  	sw	s4, 8(sp)

000025ac <.LBB0_113>:
    25ac: 93 04 00 00  	li	s1, 0
    25b0: 93 0b 0a 00  	mv	s7, s4

000025b4 <.LBB0_114>:
    25b4: 33 0c 9b 00  	add	s8, s6, s1
    25b8: 13 06 10 00  	li	a2, 1
    25bc: 93 06 00 40  	li	a3, 1024
    25c0: 13 07 00 10  	li	a4, 256
    25c4: 93 07 00 01  	li	a5, 16
    25c8: 13 05 0c 00  	mv	a0, s8
    25cc: 93 85 0b 00  	mv	a1, s7
    25d0: 97 00 00 00  	auipc	ra, 0
    25d4: e7 80 00 00  	jalr	ra
    25d8: 13 05 1c 00  	addi	a0, s8, 1
    25dc: 93 85 8b 00  	addi	a1, s7, 8
    25e0: 13 06 10 00  	li	a2, 1
    25e4: 93 06 00 40  	li	a3, 1024
    25e8: 13 07 00 10  	li	a4, 256
    25ec: 93 07 00 01  	li	a5, 16
    25f0: 97 00 00 00  	auipc	ra, 0
    25f4: e7 80 00 00  	jalr	ra
    25f8: 13 05 2c 00  	addi	a0, s8, 2
    25fc: 93 85 0b 01  	addi	a1, s7, 16
    2600: 13 06 10 00  	li	a2, 1
    2604: 93 06 00 40  	li	a3, 1024
    2608: 13 07 00 10  	li	a4, 256
    260c: 93 07 00 01  	li	a5, 16
    2610: 97 00 00 00  	auipc	ra, 0
    2614: e7 80 00 00  	jalr	ra
    2618: 13 05 3c 00  	addi	a0, s8, 3
    261c: 93 85 8b 01  	addi	a1, s7, 24
    2620: 13 06 10 00  	li	a2, 1
    2624: 93 06 00 40  	li	a3, 1024
    2628: 13 07 00 10  	li	a4, 256
    262c: 93 07 00 01  	li	a5, 16
    2630: 97 00 00 00  	auipc	ra, 0
    2634: e7 80 00 00  	jalr	ra
    2638: 13 05 4c 00  	addi	a0, s8, 4
    263c: 93 85 0b 02  	addi	a1, s7, 32
    2640: 13 06 10 00  	li	a2, 1
    2644: 93 06 00 40  	li	a3, 1024
    2648: 13 07 00 10  	li	a4, 256
    264c: 93 07 00 01  	li	a5, 16
    2650: 97 00 00 00  	auipc	ra, 0
    2654: e7 80 00 00  	jalr	ra
    2658: 13 05 5c 00  	addi	a0, s8, 5
    265c: 93 85 8b 02  	addi	a1, s7, 40
    2660: 13 06 10 00  	li	a2, 1
    2664: 93 06 00 40  	li	a3, 1024
    2668: 13 07 00 10  	li	a4, 256
    266c: 93 07 00 01  	li	a5, 16
    2670: 97 00 00 00  	auipc	ra, 0
    2674: e7 80 00 00  	jalr	ra
    2678: 13 05 6c 00  	addi	a0, s8, 6
    267c: 93 85 0b 03  	addi	a1, s7, 48
    2680: 13 06 10 00  	li	a2, 1
    2684: 93 06 00 40  	li	a3, 1024
    2688: 13 07 00 10  	li	a4, 256
    268c: 93 07 00 01  	li	a5, 16
    2690: 97 00 00 00  	auipc	ra, 0
    2694: e7 80 00 00  	jalr	ra
    2698: 13 05 7c 00  	addi	a0, s8, 7
    269c: 93 85 8b 03  	addi	a1, s7, 56
    26a0: 13 06 10 00  	li	a2, 1
    26a4: 93 06 00 40  	li	a3, 1024
    26a8: 13 07 00 10  	li	a4, 256
    26ac: 93 07 00 01  	li	a5, 16
    26b0: 97 00 00 00  	auipc	ra, 0
    26b4: e7 80 00 00  	jalr	ra
    26b8: 93 84 04 08  	addi	s1, s1, 128
    26bc: 93 8b 1b 00  	addi	s7, s7, 1
    26c0: 63 90 a4 01  	bne	s1, s10, 0x26c0 <.LBB0_114+0x10c>
    26c4: 13 04 14 00  	addi	s0, s0, 1
    26c8: 13 0b 8b 00  	addi	s6, s6, 8
    26cc: 33 0a ba 01  	add	s4, s4, s11
    26d0: 63 10 94 01  	bne	s0, s9, 0x26d0 <.LBB0_114+0x11c>
    26d4: 13 06 80 00  	li	a2, 8
    26d8: 93 06 80 00  	li	a3, 8
    26dc: 13 07 00 10  	li	a4, 256
    26e0: 93 07 00 01  	li	a5, 16
    26e4: 13 85 0a 00  	mv	a0, s5
    26e8: 93 85 09 00  	mv	a1, s3
    26ec: 97 00 00 00  	auipc	ra, 0
    26f0: e7 80 00 00  	jalr	ra
    26f4: 93 85 89 00  	addi	a1, s3, 8
    26f8: 13 85 0a 08  	addi	a0, s5, 128
    26fc: 13 06 80 00  	li	a2, 8
    2700: 93 06 80 00  	li	a3, 8
    2704: 13 07 00 10  	li	a4, 256
    2708: 93 07 00 01  	li	a5, 16
    270c: 97 00 00 00  	auipc	ra, 0
    2710: e7 80 00 00  	jalr	ra
    2714: 93 85 09 01  	addi	a1, s3, 16
    2718: 13 85 0a 10  	addi	a0, s5, 256
    271c: 13 06 80 00  	li	a2, 8
    2720: 93 06 80 00  	li	a3, 8
    2724: 13 07 00 10  	li	a4, 256
    2728: 93 07 00 01  	li	a5, 16
    272c: 97 00 00 00  	auipc	ra, 0
    2730: e7 80 00 00  	jalr	ra
    2734: 93 85 89 01  	addi	a1, s3, 24
    2738: 13 85 0a 18  	addi	a0, s5, 384
    273c: 13 06 80 00  	li	a2, 8
    2740: 93 06 80 00  	li	a3, 8
    2744: 13 07 00 10  	li	a4, 256
    2748: 93 07 00 01  	li	a5, 16
    274c: 97 00 00 00  	auipc	ra, 0
    2750: e7 80 00 00  	jalr	ra
    2754: 93 85 09 02  	addi	a1, s3, 32
    2758: 13 85 0a 20  	addi	a0, s5, 512
    275c: 13 06 80 00  	li	a2, 8
    2760: 93 06 80 00  	li	a3, 8
    2764: 13 07 00 10  	li	a4, 256
    2768: 93 07 00 01  	li	a5, 16
    276c: 97 00 00 00  	auipc	ra, 0
    2770: e7 80 00 00  	jalr	ra
    2774: 93 85 89 02  	addi	a1, s3, 40
    2778: 13 85 0a 28  	addi	a0, s5, 640
    277c: 13 06 80 00  	li	a2, 8
    2780: 93 06 80 00  	li	a3, 8
    2784: 13 07 00 10  	li	a4, 256
    2788: 93 07 00 01  	li	a5, 16
    278c: 97 00 00 00  	auipc	ra, 0
    2790: e7 80 00 00  	jalr	ra
    2794: 93 85 09 03  	addi	a1, s3, 48
    2798: 13 85 0a 30  	addi	a0, s5, 768
    279c: 13 06 80 00  	li	a2, 8
    27a0: 93 06 80 00  	li	a3, 8
    27a4: 13 07 00 10  	li	a4, 256
    27a8: 93 07 00 01  	li	a5, 16
    27ac: 97 00 00 00  	auipc	ra, 0
    27b0: e7 80 00 00  	jalr	ra
    27b4: 93 85 89 03  	addi	a1, s3, 56
    27b8: 13 85 0a 38  	addi	a0, s5, 896
    27bc: 13 06 80 00  	li	a2, 8
    27c0: 93 06 80 00  	li	a3, 8
    27c4: 13 07 00 10  	li	a4, 256
    27c8: 93 07 00 01  	li	a5, 16
    27cc: 97 00 00 00  	auipc	ra, 0
    27d0: e7 80 00 00  	jalr	ra
    27d4: 83 2c 81 01  	lw	s9, 24(sp)
    27d8: 03 2d 41 01  	lw	s10, 20(sp)
    27dc: 03 24 c1 00  	lw	s0, 12(sp)
    27e0: 03 2a 81 00  	lw	s4, 8(sp)

000027e4 <.LBB0_117>:
    27e4: 97 00 00 00  	auipc	ra, 0
    27e8: e7 80 00 00  	jalr	ra
    27ec: 93 06 10 00  	li	a3, 1
    27f0: 13 85 09 00  	mv	a0, s3
    27f4: 93 05 0a 00  	mv	a1, s4
    27f8: 13 06 09 00  	mv	a2, s2
    27fc: 97 00 00 00  	auipc	ra, 0
    2800: e7 80 00 00  	jalr	ra
    2804: 63 00 0d 00  	beqz	s10, 0x2804 <.LBB0_117+0x20>
    2808: 73 d0 00 3c  	csrwi	pmpaddr16, 1
    280c: 73 d0 10 3c  	csrwi	pmpaddr17, 1
    2810: 73 d0 20 3c  	csrwi	pmpaddr18, 1
    2814: 73 50 38 3c  	csrwi	pmpaddr19, 16
    2818: 73 50 48 3c  	csrwi	pmpaddr20, 16
    281c: 73 d0 50 3c  	csrwi	pmpaddr21, 1
    2820: 73 50 68 3c  	csrwi	pmpaddr22, 16
    2824: 73 50 78 3c  	csrwi	pmpaddr23, 16
    2828: 73 d0 80 3c  	csrwi	pmpaddr24, 1
    282c: 73 50 90 3c  	csrwi	pmpaddr25, 0
    2830: 73 50 a0 3c  	csrwi	pmpaddr26, 0
    2834: 73 50 b0 3c  	csrwi	pmpaddr27, 0
    2838: 73 d0 c0 3c  	csrwi	pmpaddr28, 1
    283c: 73 50 d8 3c  	csrwi	pmpaddr29, 16
    2840: 73 d0 e0 3c  	csrwi	pmpaddr30, 1
    2844: 73 d0 f0 3c  	csrwi	pmpaddr31, 1
    2848: 73 50 08 3d  	csrwi	pmpaddr32, 16
    284c: 73 d0 10 3d  	csrwi	pmpaddr33, 1
    2850: 73 50 20 3d  	csrwi	pmpaddr34, 0
    2854: 73 50 30 3d  	csrwi	pmpaddr35, 0
    2858: 73 50 40 3d  	csrwi	pmpaddr36, 0
    285c: 13 05 00 10  	li	a0, 256
    2860: 73 10 55 3d  	csrw	pmpaddr37, a0
    2864: 73 50 60 3d  	csrwi	pmpaddr38, 0
    2868: b7 15 00 00  	lui	a1, 1
    286c: 73 90 75 3d  	csrw	pmpaddr39, a1
    2870: 73 10 85 3d  	csrw	pmpaddr40, a0
    2874: 73 90 95 3d  	csrw	pmpaddr41, a1
    2878: 73 50 a0 3d  	csrwi	pmpaddr42, 0
    287c: 73 50 b0 3d  	csrwi	pmpaddr43, 0
    2880: 73 50 c0 3d  	csrwi	pmpaddr44, 0
    2884: 73 50 d0 3d  	csrwi	pmpaddr45, 0
    2888: 73 50 e0 3d  	csrwi	pmpaddr46, 0
    288c: 73 10 f5 3d  	csrw	pmpaddr47, a0
    2890: 73 90 05 3e  	csrw	pmpaddr48, a1
    2894: 73 50 10 3e  	csrwi	pmpaddr49, 0
    2898: 73 10 25 3e  	csrw	pmpaddr50, a0
    289c: 73 90 35 3e  	csrw	pmpaddr51, a1
    28a0: 73 d0 40 3e  	csrwi	pmpaddr52, 1
    28a4: 73 50 54 3e  	csrwi	pmpaddr53, 8
    28a8: 73 d0 60 3e  	csrwi	pmpaddr54, 1
    28ac: 73 50 74 3e  	csrwi	pmpaddr55, 8
    28b0: 73 50 80 3e  	csrwi	pmpaddr56, 0
    28b4: 73 50 90 3e  	csrwi	pmpaddr57, 0
    28b8: 73 50 a2 3e  	csrwi	pmpaddr58, 4
    28bc: 13 05 00 02  	li	a0, 32
    28c0: 73 10 b5 3e  	csrw	pmpaddr59, a0
    28c4: 73 50 c2 3e  	csrwi	pmpaddr60, 4
    28c8: 73 10 d5 3e  	csrw	pmpaddr61, a0
    28cc: 73 90 e9 3e  	csrw	pmpaddr62, s3
    28d0: 73 10 fa 3e  	csrw	pmpaddr63, s4
    28d4: 73 10 0a 3f  	csrw	1008, s4
    28d8: 73 10 19 3f  	csrw	1009, s2
    28dc: 73 10 29 3f  	csrw	1010, s2
    28e0: 73 50 30 3f  	csrwi	1011, 0
    28e4: 73 50 78 3f  	csrwi	1015, 16
    28e8: 73 50 88 3f  	csrwi	1016, 16
    28ec: 73 d0 90 3f  	csrwi	1017, 1
    28f0: 13 05 00 08  	li	a0, 128
    28f4: 73 10 a5 3f  	csrw	1018, a0
    28f8: 73 50 b0 3f  	csrwi	1019, 0
    28fc: 73 50 c0 3f  	csrwi	1020, 0
    2900: 73 50 d0 3f  	csrwi	1021, 0
    2904: 73 50 e0 3f  	csrwi	1022, 0
    2908: 73 d0 f0 3f  	csrwi	1023, 1
    290c: 73 d0 40 3f  	csrwi	1012, 1
    2910: 73 d0 00 40  	csrwi	1024, 1
    2914: 73 50 40 3f  	csrwi	1012, 0
    2918: 73 50 40 3f  	csrwi	1012, 0
    291c: 73 50 00 40  	csrwi	1024, 0
    2920: 73 50 00 40  	csrwi	1024, 0

00002924 <.LBB0_119>:
    2924: 93 06 20 00  	li	a3, 2
    2928: 13 85 09 00  	mv	a0, s3
    292c: 93 05 0a 00  	mv	a1, s4
    2930: 13 06 09 00  	mv	a2, s2
    2934: 97 00 00 00  	auipc	ra, 0
    2938: e7 80 00 00  	jalr	ra
    293c: 97 00 00 00  	auipc	ra, 0
    2940: e7 80 00 00  	jalr	ra
    2944: 63 80 0c 00  	beqz	s9, 0x2944 <.LBB0_119+0x20>
    2948: 13 06 00 02  	li	a2, 32
    294c: 93 06 00 10  	li	a3, 256
    2950: 13 07 00 02  	li	a4, 32
    2954: 93 07 00 01  	li	a5, 16
    2958: 13 05 09 00  	mv	a0, s2
    295c: 93 05 04 00  	mv	a1, s0
    2960: 97 00 00 00  	auipc	ra, 0
    2964: e7 80 00 00  	jalr	ra
    2968: 13 05 09 02  	addi	a0, s2, 32
    296c: 93 05 04 20  	addi	a1, s0, 512
    2970: 13 06 00 02  	li	a2, 32
    2974: 93 06 00 10  	li	a3, 256
    2978: 13 07 00 02  	li	a4, 32
    297c: 93 07 00 01  	li	a5, 16
    2980: 97 00 00 00  	auipc	ra, 0
    2984: e7 80 00 00  	jalr	ra
    2988: 13 05 09 04  	addi	a0, s2, 64
    298c: 93 05 04 40  	addi	a1, s0, 1024
    2990: 13 06 00 02  	li	a2, 32
    2994: 93 06 00 10  	li	a3, 256
    2998: 13 07 00 02  	li	a4, 32
    299c: 93 07 00 01  	li	a5, 16
    29a0: 97 00 00 00  	auipc	ra, 0
    29a4: e7 80 00 00  	jalr	ra
    29a8: 13 05 09 06  	addi	a0, s2, 96
    29ac: 93 05 04 60  	addi	a1, s0, 1536
    29b0: 13 06 00 02  	li	a2, 32
    29b4: 93 06 00 10  	li	a3, 256
    29b8: 13 07 00 02  	li	a4, 32
    29bc: 93 07 00 01  	li	a5, 16
    29c0: 97 00 00 00  	auipc	ra, 0
    29c4: e7 80 00 00  	jalr	ra
    29c8: 13 05 09 08  	addi	a0, s2, 128
    29cc: 13 04 f4 7f  	addi	s0, s0, 2047
    29d0: 93 05 14 00  	addi	a1, s0, 1
    29d4: 13 06 00 02  	li	a2, 32
    29d8: 93 06 00 10  	li	a3, 256
    29dc: 13 07 00 02  	li	a4, 32
    29e0: 93 07 00 01  	li	a5, 16
    29e4: 97 00 00 00  	auipc	ra, 0
    29e8: e7 80 00 00  	jalr	ra
    29ec: 13 05 09 0a  	addi	a0, s2, 160
    29f0: 93 05 14 20  	addi	a1, s0, 513
    29f4: 13 06 00 02  	li	a2, 32
    29f8: 93 06 00 10  	li	a3, 256
    29fc: 13 07 00 02  	li	a4, 32
    2a00: 93 07 00 01  	li	a5, 16
    2a04: 97 00 00 00  	auipc	ra, 0
    2a08: e7 80 00 00  	jalr	ra
    2a0c: 13 05 09 0c  	addi	a0, s2, 192
    2a10: 93 05 14 40  	addi	a1, s0, 1025
    2a14: 13 06 00 02  	li	a2, 32
    2a18: 93 06 00 10  	li	a3, 256
    2a1c: 13 07 00 02  	li	a4, 32
    2a20: 93 07 00 01  	li	a5, 16
    2a24: 97 00 00 00  	auipc	ra, 0
    2a28: e7 80 00 00  	jalr	ra
    2a2c: 13 05 09 0e  	addi	a0, s2, 224
    2a30: 93 05 14 60  	addi	a1, s0, 1537
    2a34: 13 06 00 02  	li	a2, 32
    2a38: 93 06 00 10  	li	a3, 256
    2a3c: 13 07 00 02  	li	a4, 32
    2a40: 93 07 00 01  	li	a5, 16
    2a44: 97 00 00 00  	auipc	ra, 0
    2a48: e7 80 00 00  	jalr	ra

00002a4c <.LBB0_121>:
    2a4c: 97 00 00 00  	auipc	ra, 0
    2a50: e7 80 00 00  	jalr	ra

00002a54 <.Lpcrel_hi49>:
    2a54: 17 05 00 00  	auipc	a0, 0
    2a58: 13 05 05 00  	mv	a0, a0

00002a5c <.Lpcrel_hi50>:
    2a5c: 97 05 00 00  	auipc	a1, 0
    2a60: 93 85 05 00  	mv	a1, a1

00002a64 <.Lpcrel_hi51>:
    2a64: 17 06 00 00  	auipc	a2, 0
    2a68: 93 04 06 00  	mv	s1, a2
    2a6c: 93 06 30 00  	li	a3, 3
    2a70: 13 86 04 00  	mv	a2, s1
    2a74: 97 00 00 00  	auipc	ra, 0
    2a78: e7 80 00 00  	jalr	ra
    2a7c: 97 00 00 00  	auipc	ra, 0
    2a80: e7 80 00 00  	jalr	ra

00002a84 <.Lpcrel_hi52>:
    2a84: 17 05 00 00  	auipc	a0, 0
    2a88: 13 05 05 00  	mv	a0, a0

00002a8c <.Lpcrel_hi53>:
    2a8c: 97 05 00 00  	auipc	a1, 0
    2a90: 13 86 05 00  	mv	a2, a1
    2a94: 93 85 04 00  	mv	a1, s1
    2a98: 93 06 00 00  	li	a3, 0
    2a9c: 97 00 00 00  	auipc	ra, 0
    2aa0: e7 80 00 00  	jalr	ra
    2aa4: 13 05 00 20  	li	a0, 512
    2aa8: 93 05 00 04  	li	a1, 64
    2aac: 97 00 00 00  	auipc	ra, 0
    2ab0: e7 80 00 00  	jalr	ra
    2ab4: 83 24 45 00  	lw	s1, 4(a0)
    2ab8: 37 15 00 00  	lui	a0, 1
    2abc: 93 05 00 04  	li	a1, 64
    2ac0: 97 00 00 00  	auipc	ra, 0
    2ac4: e7 80 00 00  	jalr	ra
    2ac8: 83 29 45 00  	lw	s3, 4(a0)
    2acc: 37 15 00 00  	lui	a0, 1
    2ad0: 93 05 00 04  	li	a1, 64
    2ad4: 97 00 00 00  	auipc	ra, 0
    2ad8: e7 80 00 00  	jalr	ra
    2adc: 03 29 45 00  	lw	s2, 4(a0)
    2ae0: 63 80 0c 00  	beqz	s9, 0x2ae0 <.Lpcrel_hi53+0x54>

00002ae4 <.Lpcrel_hi54>:
    2ae4: 17 05 00 00  	auipc	a0, 0
    2ae8: 13 05 05 00  	mv	a0, a0
    2aec: 37 16 00 00  	lui	a2, 1
    2af0: 93 85 09 00  	mv	a1, s3
    2af4: 97 00 00 00  	auipc	ra, 0
    2af8: e7 80 00 00  	jalr	ra

00002afc <.Lpcrel_hi55>:
    2afc: 17 05 00 00  	auipc	a0, 0
    2b00: 13 05 05 00  	mv	a0, a0
    2b04: 13 06 00 20  	li	a2, 512
    2b08: 93 85 04 00  	mv	a1, s1
    2b0c: 97 00 00 00  	auipc	ra, 0
    2b10: e7 80 00 00  	jalr	ra

00002b14 <.LBB0_123>:
    2b14: 97 00 00 00  	auipc	ra, 0
    2b18: e7 80 00 00  	jalr	ra
    2b1c: 93 06 10 00  	li	a3, 1
    2b20: 13 85 04 00  	mv	a0, s1
    2b24: 93 85 09 00  	mv	a1, s3
    2b28: 13 06 09 00  	mv	a2, s2
    2b2c: 97 00 00 00  	auipc	ra, 0
    2b30: e7 80 00 00  	jalr	ra
    2b34: 63 00 0d 00  	beqz	s10, 0x2b34 <.LBB0_123+0x20>
    2b38: 13 05 10 00  	li	a0, 1
    2b3c: 93 15 b5 00  	slli	a1, a0, 11
    2b40: 33 85 b9 00  	add	a0, s3, a1
    2b44: b3 05 b9 00  	add	a1, s2, a1
    2b48: 13 06 00 08  	li	a2, 128
    2b4c: 93 86 04 00  	mv	a3, s1
    2b50: 13 07 09 00  	mv	a4, s2
    2b54: 93 87 09 00  	mv	a5, s3

00002b58 <.LBB0_125>:
    2b58: 03 a8 06 00  	lw	a6, 0(a3)
    2b5c: 83 a8 07 00  	lw	a7, 0(a5)
    2b60: 33 88 08 01  	add	a6, a7, a6
    2b64: 23 20 07 01  	sw	a6, 0(a4)
    2b68: 93 87 47 00  	addi	a5, a5, 4
    2b6c: 13 07 47 00  	addi	a4, a4, 4
    2b70: 13 06 f6 ff  	addi	a2, a2, -1
    2b74: 93 86 46 00  	addi	a3, a3, 4
    2b78: 63 10 06 00  	bnez	a2, 0x2b78 <.LBB0_125+0x20>
    2b7c: 13 06 09 20  	addi	a2, s2, 512
    2b80: 93 86 09 20  	addi	a3, s3, 512
    2b84: 13 07 00 08  	li	a4, 128
    2b88: 93 87 04 00  	mv	a5, s1

00002b8c <.LBB0_127>:
    2b8c: 03 a8 07 00  	lw	a6, 0(a5)
    2b90: 83 a8 06 00  	lw	a7, 0(a3)
    2b94: 33 88 08 01  	add	a6, a7, a6
    2b98: 23 20 06 01  	sw	a6, 0(a2)
    2b9c: 13 07 f7 ff  	addi	a4, a4, -1
    2ba0: 13 06 46 00  	addi	a2, a2, 4
    2ba4: 93 86 46 00  	addi	a3, a3, 4
    2ba8: 93 87 47 00  	addi	a5, a5, 4
    2bac: 63 10 07 00  	bnez	a4, 0x2bac <.LBB0_127+0x20>
    2bb0: 13 06 09 40  	addi	a2, s2, 1024
    2bb4: 93 86 09 40  	addi	a3, s3, 1024
    2bb8: 13 07 00 08  	li	a4, 128
    2bbc: 93 87 04 00  	mv	a5, s1

00002bc0 <.LBB0_129>:
    2bc0: 03 a8 07 00  	lw	a6, 0(a5)
    2bc4: 83 a8 06 00  	lw	a7, 0(a3)
    2bc8: 33 88 08 01  	add	a6, a7, a6
    2bcc: 23 20 06 01  	sw	a6, 0(a2)
    2bd0: 13 07 f7 ff  	addi	a4, a4, -1
    2bd4: 13 06 46 00  	addi	a2, a2, 4
    2bd8: 93 86 46 00  	addi	a3, a3, 4
    2bdc: 93 87 47 00  	addi	a5, a5, 4
    2be0: 63 10 07 00  	bnez	a4, 0x2be0 <.LBB0_129+0x20>
    2be4: 13 06 09 60  	addi	a2, s2, 1536
    2be8: 93 86 09 60  	addi	a3, s3, 1536
    2bec: 13 07 00 08  	li	a4, 128
    2bf0: 93 87 04 00  	mv	a5, s1

00002bf4 <.LBB0_131>:
    2bf4: 03 a8 07 00  	lw	a6, 0(a5)
    2bf8: 83 a8 06 00  	lw	a7, 0(a3)
    2bfc: 33 88 08 01  	add	a6, a7, a6
    2c00: 23 20 06 01  	sw	a6, 0(a2)
    2c04: 13 07 f7 ff  	addi	a4, a4, -1
    2c08: 13 06 46 00  	addi	a2, a2, 4
    2c0c: 93 86 46 00  	addi	a3, a3, 4
    2c10: 93 87 47 00  	addi	a5, a5, 4
    2c14: 63 10 07 00  	bnez	a4, 0x2c14 <.LBB0_131+0x20>
    2c18: 13 06 00 08  	li	a2, 128
    2c1c: 93 86 04 00  	mv	a3, s1
    2c20: 13 07 05 00  	mv	a4, a0
    2c24: 93 87 05 00  	mv	a5, a1

00002c28 <.LBB0_133>:
    2c28: 03 a8 06 00  	lw	a6, 0(a3)
    2c2c: 83 28 07 00  	lw	a7, 0(a4)
    2c30: 33 88 08 01  	add	a6, a7, a6
    2c34: 23 a0 07 01  	sw	a6, 0(a5)
    2c38: 13 06 f6 ff  	addi	a2, a2, -1
    2c3c: 93 87 47 00  	addi	a5, a5, 4
    2c40: 13 07 47 00  	addi	a4, a4, 4
    2c44: 93 86 46 00  	addi	a3, a3, 4
    2c48: 63 10 06 00  	bnez	a2, 0x2c48 <.LBB0_133+0x20>
    2c4c: 13 86 05 20  	addi	a2, a1, 512
    2c50: 93 06 05 20  	addi	a3, a0, 512
    2c54: 13 07 00 08  	li	a4, 128
    2c58: 93 87 04 00  	mv	a5, s1

00002c5c <.LBB0_135>:
    2c5c: 03 a8 07 00  	lw	a6, 0(a5)
    2c60: 83 a8 06 00  	lw	a7, 0(a3)
    2c64: 33 88 08 01  	add	a6, a7, a6
    2c68: 23 20 06 01  	sw	a6, 0(a2)
    2c6c: 13 07 f7 ff  	addi	a4, a4, -1
    2c70: 13 06 46 00  	addi	a2, a2, 4
    2c74: 93 86 46 00  	addi	a3, a3, 4
    2c78: 93 87 47 00  	addi	a5, a5, 4
    2c7c: 63 10 07 00  	bnez	a4, 0x2c7c <.LBB0_135+0x20>
    2c80: 13 86 05 40  	addi	a2, a1, 1024
    2c84: 93 06 05 40  	addi	a3, a0, 1024
    2c88: 13 07 00 08  	li	a4, 128
    2c8c: 93 87 04 00  	mv	a5, s1

00002c90 <.LBB0_137>:
    2c90: 03 a8 07 00  	lw	a6, 0(a5)
    2c94: 83 a8 06 00  	lw	a7, 0(a3)
    2c98: 33 88 08 01  	add	a6, a7, a6
    2c9c: 23 20 06 01  	sw	a6, 0(a2)
    2ca0: 13 07 f7 ff  	addi	a4, a4, -1
    2ca4: 13 06 46 00  	addi	a2, a2, 4
    2ca8: 93 86 46 00  	addi	a3, a3, 4
    2cac: 93 87 47 00  	addi	a5, a5, 4
    2cb0: 63 10 07 00  	bnez	a4, 0x2cb0 <.LBB0_137+0x20>
    2cb4: 93 85 05 60  	addi	a1, a1, 1536
    2cb8: 13 05 05 60  	addi	a0, a0, 1536
    2cbc: 13 06 00 08  	li	a2, 128
    2cc0: 93 86 04 00  	mv	a3, s1

00002cc4 <.LBB0_139>:
    2cc4: 03 a7 06 00  	lw	a4, 0(a3)
    2cc8: 83 27 05 00  	lw	a5, 0(a0)
    2ccc: 33 87 e7 00  	add	a4, a5, a4
    2cd0: 23 a0 e5 00  	sw	a4, 0(a1)
    2cd4: 13 06 f6 ff  	addi	a2, a2, -1
    2cd8: 93 85 45 00  	addi	a1, a1, 4
    2cdc: 13 05 45 00  	addi	a0, a0, 4
    2ce0: 93 86 46 00  	addi	a3, a3, 4
    2ce4: 63 10 06 00  	bnez	a2, 0x2ce4 <.LBB0_139+0x20>

00002ce8 <.LBB0_140>:
    2ce8: 93 06 20 00  	li	a3, 2
    2cec: 13 85 04 00  	mv	a0, s1
    2cf0: 93 85 09 00  	mv	a1, s3
    2cf4: 13 06 09 00  	mv	a2, s2
    2cf8: 97 00 00 00  	auipc	ra, 0
    2cfc: e7 80 00 00  	jalr	ra
    2d00: 97 00 00 00  	auipc	ra, 0
    2d04: e7 80 00 00  	jalr	ra
    2d08: 63 80 0c 00  	beqz	s9, 0x2d08 <.LBB0_140+0x20>

00002d0c <.Lpcrel_hi56>:
    2d0c: 17 05 00 00  	auipc	a0, 0
    2d10: 93 05 05 00  	mv	a1, a0
    2d14: 37 16 00 00  	lui	a2, 1
    2d18: 13 05 09 00  	mv	a0, s2
    2d1c: 97 00 00 00  	auipc	ra, 0
    2d20: e7 80 00 00  	jalr	ra

00002d24 <.LBB0_142>:
    2d24: 97 00 00 00  	auipc	ra, 0
    2d28: e7 80 00 00  	jalr	ra

00002d2c <.Lpcrel_hi57>:
    2d2c: 17 05 00 00  	auipc	a0, 0
    2d30: 13 05 05 00  	mv	a0, a0

00002d34 <.Lpcrel_hi58>:
    2d34: 97 05 00 00  	auipc	a1, 0
    2d38: 93 85 05 00  	mv	a1, a1

00002d3c <.Lpcrel_hi59>:
    2d3c: 17 06 00 00  	auipc	a2, 0
    2d40: 13 0a 06 00  	mv	s4, a2
    2d44: 93 06 30 00  	li	a3, 3
    2d48: 13 06 0a 00  	mv	a2, s4
    2d4c: 97 00 00 00  	auipc	ra, 0
    2d50: e7 80 00 00  	jalr	ra
    2d54: 97 00 00 00  	auipc	ra, 0
    2d58: e7 80 00 00  	jalr	ra

00002d5c <.Lpcrel_hi60>:
    2d5c: 17 05 00 00  	auipc	a0, 0
    2d60: 93 04 05 00  	mv	s1, a0
    2d64: 13 05 0a 00  	mv	a0, s4
    2d68: 93 05 0a 00  	mv	a1, s4
    2d6c: 13 86 04 00  	mv	a2, s1
    2d70: 93 06 00 00  	li	a3, 0
    2d74: 97 00 00 00  	auipc	ra, 0
    2d78: e7 80 00 00  	jalr	ra
    2d7c: 37 15 00 00  	lui	a0, 1
    2d80: 93 05 00 04  	li	a1, 64
    2d84: 37 14 00 00  	lui	s0, 1
    2d88: 97 00 00 00  	auipc	ra, 0
    2d8c: e7 80 00 00  	jalr	ra
    2d90: 83 29 45 00  	lw	s3, 4(a0)
    2d94: 13 05 04 f4  	addi	a0, s0, -192
    2d98: 93 05 00 04  	li	a1, 64
    2d9c: 97 00 00 00  	auipc	ra, 0
    2da0: e7 80 00 00  	jalr	ra
    2da4: 03 29 45 00  	lw	s2, 4(a0)
    2da8: 63 80 0c 00  	beqz	s9, 0x2da8 <.Lpcrel_hi60+0x4c>
    2dac: 13 06 00 02  	li	a2, 32
    2db0: 93 06 00 02  	li	a3, 32
    2db4: 13 07 00 10  	li	a4, 256
    2db8: 93 07 00 01  	li	a5, 16
    2dbc: 13 05 0a 00  	mv	a0, s4
    2dc0: 93 85 09 00  	mv	a1, s3
    2dc4: 97 00 00 00  	auipc	ra, 0
    2dc8: e7 80 00 00  	jalr	ra
    2dcc: 93 85 09 02  	addi	a1, s3, 32
    2dd0: 13 05 0a 20  	addi	a0, s4, 512
    2dd4: 13 06 00 02  	li	a2, 32
    2dd8: 93 06 00 02  	li	a3, 32
    2ddc: 13 07 00 10  	li	a4, 256
    2de0: 93 07 00 01  	li	a5, 16
    2de4: 97 00 00 00  	auipc	ra, 0
    2de8: e7 80 00 00  	jalr	ra
    2dec: 93 85 09 04  	addi	a1, s3, 64
    2df0: 13 05 0a 40  	addi	a0, s4, 1024
    2df4: 13 06 00 02  	li	a2, 32
    2df8: 93 06 00 02  	li	a3, 32
    2dfc: 13 07 00 10  	li	a4, 256
    2e00: 93 07 00 01  	li	a5, 16
    2e04: 97 00 00 00  	auipc	ra, 0
    2e08: e7 80 00 00  	jalr	ra
    2e0c: 93 85 09 06  	addi	a1, s3, 96
    2e10: 13 05 0a 60  	addi	a0, s4, 1536
    2e14: 13 06 00 02  	li	a2, 32
    2e18: 93 06 00 02  	li	a3, 32
    2e1c: 13 07 00 10  	li	a4, 256
    2e20: 93 07 00 01  	li	a5, 16
    2e24: 97 00 00 00  	auipc	ra, 0
    2e28: e7 80 00 00  	jalr	ra
    2e2c: 93 85 09 08  	addi	a1, s3, 128
    2e30: 13 04 fa 7f  	addi	s0, s4, 2047
    2e34: 13 05 14 00  	addi	a0, s0, 1
    2e38: 13 06 00 02  	li	a2, 32
    2e3c: 93 06 00 02  	li	a3, 32
    2e40: 13 07 00 10  	li	a4, 256
    2e44: 93 07 00 01  	li	a5, 16
    2e48: 97 00 00 00  	auipc	ra, 0
    2e4c: e7 80 00 00  	jalr	ra
    2e50: 93 85 09 0a  	addi	a1, s3, 160
    2e54: 13 05 14 20  	addi	a0, s0, 513
    2e58: 13 06 00 02  	li	a2, 32
    2e5c: 93 06 00 02  	li	a3, 32
    2e60: 13 07 00 10  	li	a4, 256
    2e64: 93 07 00 01  	li	a5, 16
    2e68: 97 00 00 00  	auipc	ra, 0
    2e6c: e7 80 00 00  	jalr	ra
    2e70: 93 85 09 0c  	addi	a1, s3, 192
    2e74: 13 05 14 40  	addi	a0, s0, 1025
    2e78: 13 06 00 02  	li	a2, 32
    2e7c: 93 06 00 02  	li	a3, 32
    2e80: 13 07 00 10  	li	a4, 256
    2e84: 93 07 00 01  	li	a5, 16
    2e88: 97 00 00 00  	auipc	ra, 0
    2e8c: e7 80 00 00  	jalr	ra
    2e90: 93 85 09 0e  	addi	a1, s3, 224
    2e94: 13 05 14 60  	addi	a0, s0, 1537
    2e98: 13 06 00 02  	li	a2, 32
    2e9c: 93 06 00 02  	li	a3, 32
    2ea0: 13 07 00 10  	li	a4, 256
    2ea4: 93 07 00 01  	li	a5, 16
    2ea8: 97 00 00 00  	auipc	ra, 0
    2eac: e7 80 00 00  	jalr	ra

00002eb0 <.LBB0_144>:
    2eb0: 97 00 00 00  	auipc	ra, 0
    2eb4: e7 80 00 00  	jalr	ra
    2eb8: 93 06 10 00  	li	a3, 1
    2ebc: 13 85 09 00  	mv	a0, s3
    2ec0: 93 85 09 00  	mv	a1, s3
    2ec4: 13 06 09 00  	mv	a2, s2
    2ec8: 97 00 00 00  	auipc	ra, 0
    2ecc: e7 80 00 00  	jalr	ra
    2ed0: 63 00 0d 00  	beqz	s10, 0x2ed0 <.LBB0_144+0x20>
    2ed4: 73 d0 00 3c  	csrwi	pmpaddr16, 1
    2ed8: 73 d0 10 3c  	csrwi	pmpaddr17, 1
    2edc: 73 d0 20 3c  	csrwi	pmpaddr18, 1
    2ee0: 73 d0 30 3c  	csrwi	pmpaddr19, 1
    2ee4: 73 50 48 3c  	csrwi	pmpaddr20, 16
    2ee8: 73 d0 50 3c  	csrwi	pmpaddr21, 1
    2eec: 73 d0 60 3c  	csrwi	pmpaddr22, 1
    2ef0: 73 50 78 3c  	csrwi	pmpaddr23, 16
    2ef4: 73 d0 80 3c  	csrwi	pmpaddr24, 1
    2ef8: 73 d0 90 3c  	csrwi	pmpaddr25, 1
    2efc: 73 50 a8 3c  	csrwi	pmpaddr26, 16
    2f00: 73 d0 b0 3c  	csrwi	pmpaddr27, 1
    2f04: 73 d0 c0 3c  	csrwi	pmpaddr28, 1
    2f08: 73 50 d8 3c  	csrwi	pmpaddr29, 16
    2f0c: 73 d0 e0 3c  	csrwi	pmpaddr30, 1
    2f10: 73 50 f0 3c  	csrwi	pmpaddr31, 0
    2f14: 73 50 00 3d  	csrwi	pmpaddr32, 0
    2f18: 73 50 10 3d  	csrwi	pmpaddr33, 0
    2f1c: 73 50 20 3d  	csrwi	pmpaddr34, 0
    2f20: 73 50 30 3d  	csrwi	pmpaddr35, 0
    2f24: 73 50 40 3d  	csrwi	pmpaddr36, 0
    2f28: 73 50 50 3d  	csrwi	pmpaddr37, 0
    2f2c: 73 50 60 3d  	csrwi	pmpaddr38, 0
    2f30: 73 50 70 3d  	csrwi	pmpaddr39, 0
    2f34: 73 50 80 3d  	csrwi	pmpaddr40, 0
    2f38: 73 50 90 3d  	csrwi	pmpaddr41, 0
    2f3c: 73 50 a0 3d  	csrwi	pmpaddr42, 0
    2f40: 73 50 b0 3d  	csrwi	pmpaddr43, 0
    2f44: 13 05 00 10  	li	a0, 256
    2f48: 73 10 c5 3d  	csrw	pmpaddr44, a0
    2f4c: b7 15 00 00  	lui	a1, 1
    2f50: 73 90 d5 3d  	csrw	pmpaddr45, a1
    2f54: 73 50 e0 3d  	csrwi	pmpaddr46, 0
    2f58: 73 10 f5 3d  	csrw	pmpaddr47, a0
    2f5c: 73 90 05 3e  	csrw	pmpaddr48, a1
    2f60: 73 50 10 3e  	csrwi	pmpaddr49, 0
    2f64: 73 50 20 3e  	csrwi	pmpaddr50, 0
    2f68: 73 50 30 3e  	csrwi	pmpaddr51, 0
    2f6c: 73 d0 40 3e  	csrwi	pmpaddr52, 1
    2f70: 73 50 54 3e  	csrwi	pmpaddr53, 8
    2f74: 73 d0 60 3e  	csrwi	pmpaddr54, 1
    2f78: 73 50 74 3e  	csrwi	pmpaddr55, 8
    2f7c: 73 d0 80 3e  	csrwi	pmpaddr56, 1
    2f80: 73 50 94 3e  	csrwi	pmpaddr57, 8
    2f84: 73 50 a2 3e  	csrwi	pmpaddr58, 4
    2f88: 13 05 00 02  	li	a0, 32
    2f8c: 73 10 b5 3e  	csrw	pmpaddr59, a0
    2f90: 73 50 c0 3e  	csrwi	pmpaddr60, 0
    2f94: 73 50 d0 3e  	csrwi	pmpaddr61, 0
    2f98: 37 05 00 10  	lui	a0, 65536
    2f9c: 93 05 05 08  	addi	a1, a0, 128
    2fa0: 73 90 e5 3e  	csrw	pmpaddr62, a1
    2fa4: 13 05 05 04  	addi	a0, a0, 64
    2fa8: 73 10 f5 3e  	csrw	pmpaddr63, a0
    2fac: 73 10 09 3f  	csrw	1008, s2
    2fb0: 73 90 19 3f  	csrw	1009, s3
    2fb4: 73 90 29 3f  	csrw	1010, s3
    2fb8: 73 50 30 3f  	csrwi	1011, 0
    2fbc: 73 d0 70 3f  	csrwi	1015, 1
    2fc0: 73 50 88 3f  	csrwi	1016, 16
    2fc4: 73 d0 90 3f  	csrwi	1017, 1
    2fc8: 73 50 a0 3f  	csrwi	1018, 0
    2fcc: 37 85 23 7f  	lui	a0, 520760
    2fd0: 73 10 b5 3f  	csrw	1019, a0
    2fd4: 13 05 00 18  	li	a0, 384
    2fd8: 73 10 c5 3f  	csrw	1020, a0
    2fdc: 37 f5 d1 55  	lui	a0, 351519
    2fe0: 13 05 05 85  	addi	a0, a0, -1968
    2fe4: 73 10 d5 3f  	csrw	1021, a0
    2fe8: 73 50 e8 3f  	csrwi	1022, 16
    2fec: 73 50 f0 3f  	csrwi	1023, 0
    2ff0: 73 d0 40 3f  	csrwi	1012, 1
    2ff4: 73 d0 00 40  	csrwi	1024, 1
    2ff8: 73 50 40 3f  	csrwi	1012, 0
    2ffc: 73 50 40 3f  	csrwi	1012, 0
    3000: 73 50 00 40  	csrwi	1024, 0
    3004: 73 50 00 40  	csrwi	1024, 0

00003008 <.LBB0_146>:
    3008: 93 06 20 00  	li	a3, 2
    300c: 13 85 09 00  	mv	a0, s3
    3010: 93 85 09 00  	mv	a1, s3
    3014: 13 06 09 00  	mv	a2, s2
    3018: 97 00 00 00  	auipc	ra, 0
    301c: e7 80 00 00  	jalr	ra
    3020: 97 00 00 00  	auipc	ra, 0
    3024: e7 80 00 00  	jalr	ra
    3028: 63 80 0c 00  	beqz	s9, 0x3028 <.LBB0_146+0x20>
    302c: 13 06 80 00  	li	a2, 8
    3030: 93 06 00 10  	li	a3, 256
    3034: 13 07 80 00  	li	a4, 8
    3038: 93 07 00 01  	li	a5, 16
    303c: 13 05 09 00  	mv	a0, s2
    3040: 93 85 04 00  	mv	a1, s1
    3044: 97 00 00 00  	auipc	ra, 0
    3048: e7 80 00 00  	jalr	ra
    304c: 13 05 89 00  	addi	a0, s2, 8
    3050: 93 85 04 08  	addi	a1, s1, 128
    3054: 13 06 80 00  	li	a2, 8
    3058: 93 06 00 10  	li	a3, 256
    305c: 13 07 80 00  	li	a4, 8
    3060: 93 07 00 01  	li	a5, 16
    3064: 97 00 00 00  	auipc	ra, 0
    3068: e7 80 00 00  	jalr	ra
    306c: 13 05 09 01  	addi	a0, s2, 16
    3070: 93 85 04 10  	addi	a1, s1, 256
    3074: 13 06 80 00  	li	a2, 8
    3078: 93 06 00 10  	li	a3, 256
    307c: 13 07 80 00  	li	a4, 8
    3080: 93 07 00 01  	li	a5, 16
    3084: 97 00 00 00  	auipc	ra, 0
    3088: e7 80 00 00  	jalr	ra
    308c: 13 05 89 01  	addi	a0, s2, 24
    3090: 93 85 04 18  	addi	a1, s1, 384
    3094: 13 06 80 00  	li	a2, 8
    3098: 93 06 00 10  	li	a3, 256
    309c: 13 07 80 00  	li	a4, 8
    30a0: 93 07 00 01  	li	a5, 16
    30a4: 97 00 00 00  	auipc	ra, 0
    30a8: e7 80 00 00  	jalr	ra
    30ac: 13 05 09 02  	addi	a0, s2, 32
    30b0: 93 85 04 20  	addi	a1, s1, 512
    30b4: 13 06 80 00  	li	a2, 8
    30b8: 93 06 00 10  	li	a3, 256
    30bc: 13 07 80 00  	li	a4, 8
    30c0: 93 07 00 01  	li	a5, 16
    30c4: 97 00 00 00  	auipc	ra, 0
    30c8: e7 80 00 00  	jalr	ra
    30cc: 13 05 89 02  	addi	a0, s2, 40
    30d0: 93 85 04 28  	addi	a1, s1, 640
    30d4: 13 06 80 00  	li	a2, 8
    30d8: 93 06 00 10  	li	a3, 256
    30dc: 13 07 80 00  	li	a4, 8
    30e0: 93 07 00 01  	li	a5, 16
    30e4: 97 00 00 00  	auipc	ra, 0
    30e8: e7 80 00 00  	jalr	ra
    30ec: 13 05 09 03  	addi	a0, s2, 48
    30f0: 93 85 04 30  	addi	a1, s1, 768
    30f4: 13 06 80 00  	li	a2, 8
    30f8: 93 06 00 10  	li	a3, 256
    30fc: 13 07 80 00  	li	a4, 8
    3100: 93 07 00 01  	li	a5, 16
    3104: 97 00 00 00  	auipc	ra, 0
    3108: e7 80 00 00  	jalr	ra
    310c: 13 05 89 03  	addi	a0, s2, 56
    3110: 93 85 04 38  	addi	a1, s1, 896
    3114: 13 06 80 00  	li	a2, 8
    3118: 93 06 00 10  	li	a3, 256
    311c: 13 07 80 00  	li	a4, 8
    3120: 93 07 00 01  	li	a5, 16
    3124: 97 00 00 00  	auipc	ra, 0
    3128: e7 80 00 00  	jalr	ra

0000312c <.LBB0_148>:
    312c: 97 00 00 00  	auipc	ra, 0
    3130: e7 80 00 00  	jalr	ra

00003134 <.Lpcrel_hi61>:
    3134: 17 05 00 00  	auipc	a0, 0
    3138: 13 05 05 00  	mv	a0, a0

0000313c <.Lpcrel_hi62>:
    313c: 97 05 00 00  	auipc	a1, 0
    3140: 13 8a 05 00  	mv	s4, a1
    3144: 93 06 30 00  	li	a3, 3
    3148: 93 05 05 00  	mv	a1, a0
    314c: 13 06 0a 00  	mv	a2, s4
    3150: 97 00 00 00  	auipc	ra, 0
    3154: e7 80 00 00  	jalr	ra
    3158: 97 00 00 00  	auipc	ra, 0
    315c: e7 80 00 00  	jalr	ra

00003160 <.Lpcrel_hi63>:
    3160: 17 05 00 00  	auipc	a0, 0
    3164: 93 0a 05 00  	mv	s5, a0

00003168 <.Lpcrel_hi64>:
    3168: 17 05 00 00  	auipc	a0, 0
    316c: 13 06 05 00  	mv	a2, a0
    3170: 13 05 0a 00  	mv	a0, s4
    3174: 93 85 0a 00  	mv	a1, s5
    3178: 93 06 00 00  	li	a3, 0
    317c: 97 00 00 00  	auipc	ra, 0
    3180: e7 80 00 00  	jalr	ra
    3184: 37 15 00 00  	lui	a0, 1
    3188: 13 09 05 f4  	addi	s2, a0, -192
    318c: 93 05 00 04  	li	a1, 64
    3190: 13 0c 00 04  	li	s8, 64
    3194: 13 05 09 00  	mv	a0, s2
    3198: 97 00 00 00  	auipc	ra, 0
    319c: e7 80 00 00  	jalr	ra
    31a0: 83 24 45 00  	lw	s1, 4(a0)
    31a4: 93 05 00 04  	li	a1, 64
    31a8: 13 05 09 00  	mv	a0, s2
    31ac: 97 00 00 00  	auipc	ra, 0
    31b0: e7 80 00 00  	jalr	ra
    31b4: 83 29 45 00  	lw	s3, 4(a0)
    31b8: 13 05 00 10  	li	a0, 256
    31bc: 93 05 00 04  	li	a1, 64
    31c0: 97 00 00 00  	auipc	ra, 0
    31c4: e7 80 00 00  	jalr	ra
    31c8: 03 29 45 00  	lw	s2, 4(a0)
    31cc: 63 80 0c 00  	beqz	s9, 0x31cc <.Lpcrel_hi64+0x64>
    31d0: 13 04 00 00  	li	s0, 0
    31d4: 13 8b 09 00  	mv	s6, s3

000031d8 <.LBB0_150>:
    31d8: b3 0b 54 01  	add	s7, s0, s5
    31dc: 13 06 10 00  	li	a2, 1
    31e0: 93 06 00 04  	li	a3, 64
    31e4: 13 07 00 10  	li	a4, 256
    31e8: 93 07 00 01  	li	a5, 16
    31ec: 13 85 0b 00  	mv	a0, s7
    31f0: 93 05 0b 00  	mv	a1, s6
    31f4: 97 00 00 00  	auipc	ra, 0
    31f8: e7 80 00 00  	jalr	ra
    31fc: 13 85 1b 00  	addi	a0, s7, 1
    3200: 93 05 8b 00  	addi	a1, s6, 8
    3204: 13 06 10 00  	li	a2, 1
    3208: 93 06 00 04  	li	a3, 64
    320c: 13 07 00 10  	li	a4, 256
    3210: 93 07 00 01  	li	a5, 16
    3214: 97 00 00 00  	auipc	ra, 0
    3218: e7 80 00 00  	jalr	ra
    321c: 13 85 2b 00  	addi	a0, s7, 2
    3220: 93 05 0b 01  	addi	a1, s6, 16
    3224: 13 06 10 00  	li	a2, 1
    3228: 93 06 00 04  	li	a3, 64
    322c: 13 07 00 10  	li	a4, 256
    3230: 93 07 00 01  	li	a5, 16
    3234: 97 00 00 00  	auipc	ra, 0
    3238: e7 80 00 00  	jalr	ra
    323c: 13 85 3b 00  	addi	a0, s7, 3
    3240: 93 05 8b 01  	addi	a1, s6, 24
    3244: 13 06 10 00  	li	a2, 1
    3248: 93 06 00 04  	li	a3, 64
    324c: 13 07 00 10  	li	a4, 256
    3250: 93 07 00 01  	li	a5, 16
    3254: 97 00 00 00  	auipc	ra, 0
    3258: e7 80 00 00  	jalr	ra
    325c: 13 85 4b 00  	addi	a0, s7, 4
    3260: 93 05 0b 02  	addi	a1, s6, 32
    3264: 13 06 10 00  	li	a2, 1
    3268: 93 06 00 04  	li	a3, 64
    326c: 13 07 00 10  	li	a4, 256
    3270: 93 07 00 01  	li	a5, 16
    3274: 97 00 00 00  	auipc	ra, 0
    3278: e7 80 00 00  	jalr	ra
    327c: 13 85 5b 00  	addi	a0, s7, 5
    3280: 93 05 8b 02  	addi	a1, s6, 40
    3284: 13 06 10 00  	li	a2, 1
    3288: 93 06 00 04  	li	a3, 64
    328c: 13 07 00 10  	li	a4, 256
    3290: 93 07 00 01  	li	a5, 16
    3294: 97 00 00 00  	auipc	ra, 0
    3298: e7 80 00 00  	jalr	ra
    329c: 13 85 6b 00  	addi	a0, s7, 6
    32a0: 93 05 0b 03  	addi	a1, s6, 48
    32a4: 13 06 10 00  	li	a2, 1
    32a8: 93 06 00 04  	li	a3, 64
    32ac: 13 07 00 10  	li	a4, 256
    32b0: 93 07 00 01  	li	a5, 16
    32b4: 97 00 00 00  	auipc	ra, 0
    32b8: e7 80 00 00  	jalr	ra
    32bc: 13 85 7b 00  	addi	a0, s7, 7
    32c0: 93 05 8b 03  	addi	a1, s6, 56
    32c4: 13 06 10 00  	li	a2, 1
    32c8: 93 06 00 04  	li	a3, 64
    32cc: 13 07 00 10  	li	a4, 256
    32d0: 93 07 00 01  	li	a5, 16
    32d4: 97 00 00 00  	auipc	ra, 0
    32d8: e7 80 00 00  	jalr	ra
    32dc: 13 04 84 00  	addi	s0, s0, 8
    32e0: 13 0b 1b 00  	addi	s6, s6, 1
    32e4: 63 10 84 01  	bne	s0, s8, 0x32e4 <.LBB0_150+0x10c>
    32e8: 13 06 80 00  	li	a2, 8
    32ec: 93 06 80 00  	li	a3, 8
    32f0: 13 07 00 10  	li	a4, 256
    32f4: 93 07 00 01  	li	a5, 16
    32f8: 13 05 0a 00  	mv	a0, s4
    32fc: 93 85 04 00  	mv	a1, s1
    3300: 97 00 00 00  	auipc	ra, 0
    3304: e7 80 00 00  	jalr	ra
    3308: 93 85 84 00  	addi	a1, s1, 8
    330c: 13 05 0a 08  	addi	a0, s4, 128
    3310: 13 06 80 00  	li	a2, 8
    3314: 93 06 80 00  	li	a3, 8
    3318: 13 07 00 10  	li	a4, 256
    331c: 93 07 00 01  	li	a5, 16
    3320: 97 00 00 00  	auipc	ra, 0
    3324: e7 80 00 00  	jalr	ra
    3328: 93 85 04 01  	addi	a1, s1, 16
    332c: 13 05 0a 10  	addi	a0, s4, 256
    3330: 13 06 80 00  	li	a2, 8
    3334: 93 06 80 00  	li	a3, 8
    3338: 13 07 00 10  	li	a4, 256
    333c: 93 07 00 01  	li	a5, 16
    3340: 97 00 00 00  	auipc	ra, 0
    3344: e7 80 00 00  	jalr	ra
    3348: 93 85 84 01  	addi	a1, s1, 24
    334c: 13 05 0a 18  	addi	a0, s4, 384
    3350: 13 06 80 00  	li	a2, 8
    3354: 93 06 80 00  	li	a3, 8
    3358: 13 07 00 10  	li	a4, 256
    335c: 93 07 00 01  	li	a5, 16
    3360: 97 00 00 00  	auipc	ra, 0
    3364: e7 80 00 00  	jalr	ra
    3368: 93 85 04 02  	addi	a1, s1, 32
    336c: 13 05 0a 20  	addi	a0, s4, 512
    3370: 13 06 80 00  	li	a2, 8
    3374: 93 06 80 00  	li	a3, 8
    3378: 13 07 00 10  	li	a4, 256
    337c: 93 07 00 01  	li	a5, 16
    3380: 97 00 00 00  	auipc	ra, 0
    3384: e7 80 00 00  	jalr	ra
    3388: 93 85 84 02  	addi	a1, s1, 40
    338c: 13 05 0a 28  	addi	a0, s4, 640
    3390: 13 06 80 00  	li	a2, 8
    3394: 93 06 80 00  	li	a3, 8
    3398: 13 07 00 10  	li	a4, 256
    339c: 93 07 00 01  	li	a5, 16
    33a0: 97 00 00 00  	auipc	ra, 0
    33a4: e7 80 00 00  	jalr	ra
    33a8: 93 85 04 03  	addi	a1, s1, 48
    33ac: 13 05 0a 30  	addi	a0, s4, 768
    33b0: 13 06 80 00  	li	a2, 8
    33b4: 93 06 80 00  	li	a3, 8
    33b8: 13 07 00 10  	li	a4, 256
    33bc: 93 07 00 01  	li	a5, 16
    33c0: 97 00 00 00  	auipc	ra, 0
    33c4: e7 80 00 00  	jalr	ra
    33c8: 93 85 84 03  	addi	a1, s1, 56
    33cc: 13 05 0a 38  	addi	a0, s4, 896
    33d0: 13 06 80 00  	li	a2, 8
    33d4: 93 06 80 00  	li	a3, 8
    33d8: 13 07 00 10  	li	a4, 256
    33dc: 93 07 00 01  	li	a5, 16
    33e0: 97 00 00 00  	auipc	ra, 0
    33e4: e7 80 00 00  	jalr	ra

000033e8 <.LBB0_152>:
    33e8: 97 00 00 00  	auipc	ra, 0
    33ec: e7 80 00 00  	jalr	ra
    33f0: 93 06 10 00  	li	a3, 1
    33f4: 13 85 04 00  	mv	a0, s1
    33f8: 93 85 09 00  	mv	a1, s3
    33fc: 13 06 09 00  	mv	a2, s2
    3400: 97 00 00 00  	auipc	ra, 0
    3404: e7 80 00 00  	jalr	ra
    3408: 63 00 0d 00  	beqz	s10, 0x3408 <.LBB0_152+0x20>
    340c: 73 d0 00 3c  	csrwi	pmpaddr16, 1
    3410: 73 d0 10 3c  	csrwi	pmpaddr17, 1
    3414: 73 d0 20 3c  	csrwi	pmpaddr18, 1
    3418: 73 50 38 3c  	csrwi	pmpaddr19, 16
    341c: 73 d0 40 3c  	csrwi	pmpaddr20, 1
    3420: 73 d0 50 3c  	csrwi	pmpaddr21, 1
    3424: 73 50 68 3c  	csrwi	pmpaddr22, 16
    3428: 73 d0 70 3c  	csrwi	pmpaddr23, 1
    342c: 73 d0 80 3c  	csrwi	pmpaddr24, 1
    3430: 73 50 90 3c  	csrwi	pmpaddr25, 0
    3434: 73 50 a0 3c  	csrwi	pmpaddr26, 0
    3438: 73 50 b0 3c  	csrwi	pmpaddr27, 0
    343c: 73 d0 c0 3c  	csrwi	pmpaddr28, 1
    3440: 73 d0 d0 3c  	csrwi	pmpaddr29, 1
    3444: 73 d0 e0 3c  	csrwi	pmpaddr30, 1
    3448: 73 d0 f0 3c  	csrwi	pmpaddr31, 1
    344c: 73 d0 00 3d  	csrwi	pmpaddr32, 1
    3450: 73 d0 10 3d  	csrwi	pmpaddr33, 1
    3454: 73 50 20 3d  	csrwi	pmpaddr34, 0
    3458: 73 50 30 3d  	csrwi	pmpaddr35, 0
    345c: 73 50 40 3d  	csrwi	pmpaddr36, 0
    3460: 13 05 00 10  	li	a0, 256
    3464: 73 10 55 3d  	csrw	pmpaddr37, a0
    3468: 73 50 60 3d  	csrwi	pmpaddr38, 0
    346c: b7 15 00 00  	lui	a1, 1
    3470: 73 90 75 3d  	csrw	pmpaddr39, a1
    3474: 73 10 85 3d  	csrw	pmpaddr40, a0
    3478: 73 90 95 3d  	csrw	pmpaddr41, a1
    347c: 73 50 a0 3d  	csrwi	pmpaddr42, 0
    3480: 73 50 b0 3d  	csrwi	pmpaddr43, 0
    3484: 73 50 c0 3d  	csrwi	pmpaddr44, 0
    3488: 73 50 d0 3d  	csrwi	pmpaddr45, 0
    348c: 73 50 e0 3d  	csrwi	pmpaddr46, 0
    3490: 73 10 f5 3d  	csrw	pmpaddr47, a0
    3494: 73 10 05 3e  	csrw	pmpaddr48, a0
    3498: 73 50 10 3e  	csrwi	pmpaddr49, 0
    349c: 73 10 25 3e  	csrw	pmpaddr50, a0
    34a0: 73 10 35 3e  	csrw	pmpaddr51, a0
    34a4: 73 d0 40 3e  	csrwi	pmpaddr52, 1
    34a8: 73 50 54 3e  	csrwi	pmpaddr53, 8
    34ac: 73 d0 60 3e  	csrwi	pmpaddr54, 1
    34b0: 73 50 74 3e  	csrwi	pmpaddr55, 8
    34b4: 73 50 80 3e  	csrwi	pmpaddr56, 0
    34b8: 73 50 90 3e  	csrwi	pmpaddr57, 0
    34bc: 73 50 a2 3e  	csrwi	pmpaddr58, 4
    34c0: 13 05 00 02  	li	a0, 32
    34c4: 73 10 b5 3e  	csrw	pmpaddr59, a0
    34c8: 73 50 c2 3e  	csrwi	pmpaddr60, 4
    34cc: 73 10 d5 3e  	csrw	pmpaddr61, a0
    34d0: 73 90 e4 3e  	csrw	pmpaddr62, s1
    34d4: 73 90 f9 3e  	csrw	pmpaddr63, s3
    34d8: 73 90 09 3f  	csrw	1008, s3
    34dc: 73 10 19 3f  	csrw	1009, s2
    34e0: 73 10 29 3f  	csrw	1010, s2
    34e4: 73 50 30 3f  	csrwi	1011, 0
    34e8: 73 50 78 3f  	csrwi	1015, 16
    34ec: 73 d0 80 3f  	csrwi	1016, 1
    34f0: 73 d0 90 3f  	csrwi	1017, 1
    34f4: 13 05 00 08  	li	a0, 128
    34f8: 73 10 a5 3f  	csrw	1018, a0
    34fc: 73 50 b0 3f  	csrwi	1019, 0
    3500: 73 50 c0 3f  	csrwi	1020, 0
    3504: 73 50 d0 3f  	csrwi	1021, 0
    3508: 73 50 e0 3f  	csrwi	1022, 0
    350c: 73 d0 f0 3f  	csrwi	1023, 1
    3510: 73 d0 40 3f  	csrwi	1012, 1
    3514: 73 d0 00 40  	csrwi	1024, 1
    3518: 73 50 40 3f  	csrwi	1012, 0
    351c: 73 50 40 3f  	csrwi	1012, 0
    3520: 73 50 00 40  	csrwi	1024, 0
    3524: 73 50 00 40  	csrwi	1024, 0

00003528 <.LBB0_154>:
    3528: 93 06 20 00  	li	a3, 2
    352c: 13 85 04 00  	mv	a0, s1
    3530: 93 85 09 00  	mv	a1, s3
    3534: 13 06 09 00  	mv	a2, s2
    3538: 97 00 00 00  	auipc	ra, 0
    353c: e7 80 00 00  	jalr	ra
    3540: 97 00 00 00  	auipc	ra, 0
    3544: e7 80 00 00  	jalr	ra
    3548: 63 80 0c 00  	beqz	s9, 0x3548 <.LBB0_154+0x20>

0000354c <.Lpcrel_hi65>:
    354c: 17 05 00 00  	auipc	a0, 0
    3550: 93 05 05 00  	mv	a1, a0
    3554: 13 06 00 10  	li	a2, 256
    3558: 13 05 09 00  	mv	a0, s2
    355c: 97 00 00 00  	auipc	ra, 0
    3560: e7 80 00 00  	jalr	ra

00003564 <.LBB0_156>:
    3564: 97 00 00 00  	auipc	ra, 0
    3568: e7 80 00 00  	jalr	ra

0000356c <.Lpcrel_hi66>:
    356c: 17 05 00 00  	auipc	a0, 0
    3570: 13 05 05 00  	mv	a0, a0

00003574 <.Lpcrel_hi67>:
    3574: 97 05 00 00  	auipc	a1, 0
    3578: 93 85 05 00  	mv	a1, a1

0000357c <.Lpcrel_hi68>:
    357c: 17 06 00 00  	auipc	a2, 0
    3580: 93 04 06 00  	mv	s1, a2
    3584: 93 06 30 00  	li	a3, 3
    3588: 13 86 04 00  	mv	a2, s1
    358c: 97 00 00 00  	auipc	ra, 0
    3590: e7 80 00 00  	jalr	ra
    3594: 97 00 00 00  	auipc	ra, 0
    3598: e7 80 00 00  	jalr	ra

0000359c <.Lpcrel_hi69>:
    359c: 17 05 00 00  	auipc	a0, 0
    35a0: 13 05 05 00  	mv	a0, a0

000035a4 <.Lpcrel_hi70>:
    35a4: 97 05 00 00  	auipc	a1, 0
    35a8: 13 86 05 00  	mv	a2, a1
    35ac: 93 85 04 00  	mv	a1, s1
    35b0: 93 06 00 00  	li	a3, 0
    35b4: 97 00 00 00  	auipc	ra, 0
    35b8: e7 80 00 00  	jalr	ra
    35bc: 13 05 00 02  	li	a0, 32
    35c0: 93 05 00 04  	li	a1, 64
    35c4: 97 00 00 00  	auipc	ra, 0
    35c8: e7 80 00 00  	jalr	ra
    35cc: 83 24 45 00  	lw	s1, 4(a0)
    35d0: 13 05 00 10  	li	a0, 256
    35d4: 93 05 00 04  	li	a1, 64
    35d8: 97 00 00 00  	auipc	ra, 0
    35dc: e7 80 00 00  	jalr	ra
    35e0: 83 29 45 00  	lw	s3, 4(a0)
    35e4: 13 05 00 10  	li	a0, 256
    35e8: 93 05 00 04  	li	a1, 64
    35ec: 97 00 00 00  	auipc	ra, 0
    35f0: e7 80 00 00  	jalr	ra
    35f4: 03 29 45 00  	lw	s2, 4(a0)
    35f8: 63 80 0c 00  	beqz	s9, 0x35f8 <.Lpcrel_hi70+0x54>

000035fc <.Lpcrel_hi71>:
    35fc: 17 05 00 00  	auipc	a0, 0
    3600: 13 05 05 00  	mv	a0, a0
    3604: 13 06 00 10  	li	a2, 256
    3608: 93 85 09 00  	mv	a1, s3
    360c: 97 00 00 00  	auipc	ra, 0
    3610: e7 80 00 00  	jalr	ra

00003614 <.Lpcrel_hi72>:
    3614: 17 05 00 00  	auipc	a0, 0
    3618: 13 05 05 00  	mv	a0, a0
    361c: 13 06 00 02  	li	a2, 32
    3620: 93 85 04 00  	mv	a1, s1
    3624: 97 00 00 00  	auipc	ra, 0
    3628: e7 80 00 00  	jalr	ra

0000362c <.LBB0_158>:
    362c: 97 00 00 00  	auipc	ra, 0
    3630: e7 80 00 00  	jalr	ra
    3634: 93 06 10 00  	li	a3, 1
    3638: 13 85 04 00  	mv	a0, s1
    363c: 93 85 09 00  	mv	a1, s3
    3640: 13 06 09 00  	mv	a2, s2
    3644: 97 00 00 00  	auipc	ra, 0
    3648: e7 80 00 00  	jalr	ra
    364c: 63 00 0d 00  	beqz	s10, 0x364c <.LBB0_158+0x20>
    3650: 13 85 09 01  	addi	a0, s3, 16
    3654: 93 05 09 01  	addi	a1, s2, 16
    3658: 13 06 80 00  	li	a2, 8

0000365c <.LBB0_160>:
    365c: 83 a6 04 00  	lw	a3, 0(s1)
    3660: 03 27 05 ff  	lw	a4, -16(a0)
    3664: b3 06 d7 00  	add	a3, a4, a3
    3668: 23 a8 d5 fe  	sw	a3, -16(a1)
    366c: 83 a6 44 00  	lw	a3, 4(s1)
    3670: 03 27 45 ff  	lw	a4, -12(a0)
    3674: b3 06 d7 00  	add	a3, a4, a3
    3678: 23 aa d5 fe  	sw	a3, -12(a1)
    367c: 83 a6 84 00  	lw	a3, 8(s1)
    3680: 03 27 85 ff  	lw	a4, -8(a0)
    3684: b3 06 d7 00  	add	a3, a4, a3
    3688: 23 ac d5 fe  	sw	a3, -8(a1)
    368c: 83 a6 c4 00  	lw	a3, 12(s1)
    3690: 03 27 c5 ff  	lw	a4, -4(a0)
    3694: b3 06 d7 00  	add	a3, a4, a3
    3698: 23 ae d5 fe  	sw	a3, -4(a1)
    369c: 83 a6 04 01  	lw	a3, 16(s1)
    36a0: 03 27 05 00  	lw	a4, 0(a0)
    36a4: b3 06 d7 00  	add	a3, a4, a3
    36a8: 23 a0 d5 00  	sw	a3, 0(a1)
    36ac: 83 a6 44 01  	lw	a3, 20(s1)
    36b0: 03 27 45 00  	lw	a4, 4(a0)
    36b4: b3 06 d7 00  	add	a3, a4, a3
    36b8: 23 a2 d5 00  	sw	a3, 4(a1)
    36bc: 83 a6 84 01  	lw	a3, 24(s1)
    36c0: 03 27 85 00  	lw	a4, 8(a0)
    36c4: b3 06 d7 00  	add	a3, a4, a3
    36c8: 23 a4 d5 00  	sw	a3, 8(a1)
    36cc: 83 a6 c4 01  	lw	a3, 28(s1)
    36d0: 03 27 c5 00  	lw	a4, 12(a0)
    36d4: b3 06 d7 00  	add	a3, a4, a3
    36d8: 23 a6 d5 00  	sw	a3, 12(a1)
    36dc: 13 06 f6 ff  	addi	a2, a2, -1
    36e0: 13 05 05 02  	addi	a0, a0, 32
    36e4: 93 85 05 02  	addi	a1, a1, 32
    36e8: 63 10 06 00  	bnez	a2, 0x36e8 <.LBB0_160+0x8c>

000036ec <.LBB0_161>:
    36ec: 93 06 20 00  	li	a3, 2
    36f0: 13 85 04 00  	mv	a0, s1
    36f4: 93 85 09 00  	mv	a1, s3
    36f8: 13 06 09 00  	mv	a2, s2
    36fc: 97 00 00 00  	auipc	ra, 0
    3700: e7 80 00 00  	jalr	ra
    3704: 97 00 00 00  	auipc	ra, 0
    3708: e7 80 00 00  	jalr	ra
    370c: 63 80 0c 00  	beqz	s9, 0x370c <.LBB0_161+0x20>

00003710 <.Lpcrel_hi73>:
    3710: 17 05 00 00  	auipc	a0, 0
    3714: 93 05 05 00  	mv	a1, a0
    3718: 13 06 00 10  	li	a2, 256
    371c: 13 05 09 00  	mv	a0, s2
    3720: 97 00 00 00  	auipc	ra, 0
    3724: e7 80 00 00  	jalr	ra

00003728 <.LBB0_163>:
    3728: 97 00 00 00  	auipc	ra, 0
    372c: e7 80 00 00  	jalr	ra

00003730 <.Lpcrel_hi74>:
    3730: 17 05 00 00  	auipc	a0, 0
    3734: 13 05 05 00  	mv	a0, a0

00003738 <.Lpcrel_hi75>:
    3738: 97 05 00 00  	auipc	a1, 0
    373c: 93 85 05 00  	mv	a1, a1

00003740 <.Lpcrel_hi76>:
    3740: 17 06 00 00  	auipc	a2, 0
    3744: 93 04 06 00  	mv	s1, a2
    3748: 93 06 30 00  	li	a3, 3
    374c: 13 86 04 00  	mv	a2, s1
    3750: 97 00 00 00  	auipc	ra, 0
    3754: e7 80 00 00  	jalr	ra
    3758: 97 00 00 00  	auipc	ra, 0
    375c: e7 80 00 00  	jalr	ra

00003760 <.Lpcrel_hi77>:
    3760: 17 05 00 00  	auipc	a0, 0
    3764: 13 06 05 00  	mv	a2, a0
    3768: 13 85 04 00  	mv	a0, s1
    376c: 93 85 04 00  	mv	a1, s1
    3770: 93 06 00 00  	li	a3, 0
    3774: 97 00 00 00  	auipc	ra, 0
    3778: e7 80 00 00  	jalr	ra
    377c: 13 05 00 10  	li	a0, 256
    3780: 93 05 00 04  	li	a1, 64
    3784: 97 00 00 00  	auipc	ra, 0
    3788: e7 80 00 00  	jalr	ra
    378c: 03 29 45 00  	lw	s2, 4(a0)
    3790: 13 05 00 04  	li	a0, 64
    3794: 93 05 00 04  	li	a1, 64
    3798: 97 00 00 00  	auipc	ra, 0
    379c: e7 80 00 00  	jalr	ra
    37a0: 83 24 45 00  	lw	s1, 4(a0)
    37a4: 63 80 0c 00  	beqz	s9, 0x37a4 <.Lpcrel_hi77+0x44>

000037a8 <.Lpcrel_hi78>:
    37a8: 17 05 00 00  	auipc	a0, 0
    37ac: 13 05 05 00  	mv	a0, a0
    37b0: 13 06 00 10  	li	a2, 256
    37b4: 93 06 00 02  	li	a3, 32
    37b8: 13 07 00 10  	li	a4, 256
    37bc: 93 07 10 00  	li	a5, 1
    37c0: 93 05 09 00  	mv	a1, s2
    37c4: 97 00 00 00  	auipc	ra, 0
    37c8: e7 80 00 00  	jalr	ra

000037cc <.LBB0_165>:
    37cc: 97 00 00 00  	auipc	ra, 0
    37d0: e7 80 00 00  	jalr	ra
    37d4: 93 06 10 00  	li	a3, 1
    37d8: 13 05 09 00  	mv	a0, s2
    37dc: 93 05 09 00  	mv	a1, s2
    37e0: 13 86 04 00  	mv	a2, s1
    37e4: 97 00 00 00  	auipc	ra, 0
    37e8: e7 80 00 00  	jalr	ra
    37ec: 63 00 0d 00  	beqz	s10, 0x37ec <.LBB0_165+0x20>
    37f0: 73 d0 00 3c  	csrwi	pmpaddr16, 1
    37f4: 73 d0 10 3c  	csrwi	pmpaddr17, 1
    37f8: 73 d0 20 3c  	csrwi	pmpaddr18, 1
    37fc: 73 d0 30 3c  	csrwi	pmpaddr19, 1
    3800: 73 d0 40 3c  	csrwi	pmpaddr20, 1
    3804: 73 d0 50 3c  	csrwi	pmpaddr21, 1
    3808: 73 d0 60 3c  	csrwi	pmpaddr22, 1
    380c: 73 d0 70 3c  	csrwi	pmpaddr23, 1
    3810: 73 d0 80 3c  	csrwi	pmpaddr24, 1
    3814: 73 d0 90 3c  	csrwi	pmpaddr25, 1
    3818: 73 d0 a0 3c  	csrwi	pmpaddr26, 1
    381c: 73 d0 b0 3c  	csrwi	pmpaddr27, 1
    3820: 73 d0 c0 3c  	csrwi	pmpaddr28, 1
    3824: 73 d0 d0 3c  	csrwi	pmpaddr29, 1
    3828: 73 d0 e0 3c  	csrwi	pmpaddr30, 1
    382c: 73 50 f0 3c  	csrwi	pmpaddr31, 0
    3830: 73 50 00 3d  	csrwi	pmpaddr32, 0
    3834: 73 50 10 3d  	csrwi	pmpaddr33, 0
    3838: 73 50 20 3d  	csrwi	pmpaddr34, 0
    383c: 73 50 30 3d  	csrwi	pmpaddr35, 0
    3840: 73 50 40 3d  	csrwi	pmpaddr36, 0
    3844: 73 50 50 3d  	csrwi	pmpaddr37, 0
    3848: 73 50 60 3d  	csrwi	pmpaddr38, 0
    384c: 73 50 70 3d  	csrwi	pmpaddr39, 0
    3850: 73 50 80 3d  	csrwi	pmpaddr40, 0
    3854: 73 50 90 3d  	csrwi	pmpaddr41, 0
    3858: 73 50 a0 3d  	csrwi	pmpaddr42, 0
    385c: 73 50 b0 3d  	csrwi	pmpaddr43, 0
    3860: 13 05 00 10  	li	a0, 256
    3864: 73 10 c5 3d  	csrw	pmpaddr44, a0
    3868: 73 10 d5 3d  	csrw	pmpaddr45, a0
    386c: 73 50 e0 3d  	csrwi	pmpaddr46, 0
    3870: 73 10 f5 3d  	csrw	pmpaddr47, a0
    3874: 73 10 05 3e  	csrw	pmpaddr48, a0
    3878: 73 50 10 3e  	csrwi	pmpaddr49, 0
    387c: 73 50 20 3e  	csrwi	pmpaddr50, 0
    3880: 73 50 30 3e  	csrwi	pmpaddr51, 0
    3884: 73 d0 40 3e  	csrwi	pmpaddr52, 1
    3888: 73 50 54 3e  	csrwi	pmpaddr53, 8
    388c: 73 d0 60 3e  	csrwi	pmpaddr54, 1
    3890: 73 50 74 3e  	csrwi	pmpaddr55, 8
    3894: 73 d0 80 3e  	csrwi	pmpaddr56, 1
    3898: 73 50 94 3e  	csrwi	pmpaddr57, 8
    389c: 73 50 a2 3e  	csrwi	pmpaddr58, 4
    38a0: 13 05 00 02  	li	a0, 32
    38a4: 73 10 b5 3e  	csrw	pmpaddr59, a0
    38a8: 73 50 c0 3e  	csrwi	pmpaddr60, 0
    38ac: 73 50 d0 3e  	csrwi	pmpaddr61, 0
    38b0: 37 05 00 10  	lui	a0, 65536
    38b4: 93 05 05 08  	addi	a1, a0, 128
    38b8: 73 90 e5 3e  	csrw	pmpaddr62, a1
    38bc: 13 05 05 04  	addi	a0, a0, 64
    38c0: 73 10 f5 3e  	csrw	pmpaddr63, a0
    38c4: 73 90 04 3f  	csrw	1008, s1
    38c8: 73 10 19 3f  	csrw	1009, s2
    38cc: 73 10 29 3f  	csrw	1010, s2
    38d0: 73 50 30 3f  	csrwi	1011, 0
    38d4: 73 d0 70 3f  	csrwi	1015, 1
    38d8: 73 d0 80 3f  	csrwi	1016, 1
    38dc: 73 d0 90 3f  	csrwi	1017, 1
    38e0: 73 50 a0 3f  	csrwi	1018, 0
    38e4: 37 85 25 7f  	lui	a0, 520792
    38e8: 73 10 b5 3f  	csrw	1019, a0
    38ec: 13 05 00 18  	li	a0, 384
    38f0: 73 10 c5 3f  	csrw	1020, a0
    38f4: 37 65 b9 40  	lui	a0, 265110
    38f8: 13 05 35 cc  	addi	a0, a0, -829
    38fc: 73 10 d5 3f  	csrw	1021, a0
    3900: 73 d0 e0 3f  	csrwi	1022, 1
    3904: 73 50 f0 3f  	csrwi	1023, 0
    3908: 73 d0 40 3f  	csrwi	1012, 1
    390c: 73 d0 00 40  	csrwi	1024, 1
    3910: 73 50 40 3f  	csrwi	1012, 0
    3914: 73 50 40 3f  	csrwi	1012, 0
    3918: 73 50 00 40  	csrwi	1024, 0
    391c: 73 50 00 40  	csrwi	1024, 0

00003920 <.LBB0_167>:
    3920: 93 06 20 00  	li	a3, 2
    3924: 13 05 09 00  	mv	a0, s2
    3928: 93 05 09 00  	mv	a1, s2
    392c: 13 86 04 00  	mv	a2, s1
    3930: 97 00 00 00  	auipc	ra, 0
    3934: e7 80 00 00  	jalr	ra
    3938: 97 00 00 00  	auipc	ra, 0
    393c: e7 80 00 00  	jalr	ra
    3940: 63 80 0c 00  	beqz	s9, 0x3940 <.LBB0_167+0x20>

00003944 <.Lpcrel_hi79>:
    3944: 17 05 00 00  	auipc	a0, 0
    3948: 93 05 05 00  	mv	a1, a0
    394c: 13 06 00 04  	li	a2, 64
    3950: 93 06 00 10  	li	a3, 256
    3954: 13 07 00 04  	li	a4, 64
    3958: 93 07 10 00  	li	a5, 1
    395c: 13 85 04 00  	mv	a0, s1
    3960: 97 00 00 00  	auipc	ra, 0
    3964: e7 80 00 00  	jalr	ra

00003968 <.LBB0_169>:
    3968: 97 00 00 00  	auipc	ra, 0
    396c: e7 80 00 00  	jalr	ra

00003970 <.Lpcrel_hi80>:
    3970: 17 05 00 00  	auipc	a0, 0
    3974: 13 05 05 00  	mv	a0, a0

00003978 <.Lpcrel_hi81>:
    3978: 97 05 00 00  	auipc	a1, 0
    397c: 93 84 05 00  	mv	s1, a1
    3980: 93 06 30 00  	li	a3, 3
    3984: 93 05 05 00  	mv	a1, a0
    3988: 13 86 04 00  	mv	a2, s1
    398c: 97 00 00 00  	auipc	ra, 0
    3990: e7 80 00 00  	jalr	ra
    3994: 97 00 00 00  	auipc	ra, 0
    3998: e7 80 00 00  	jalr	ra

0000399c <.Lpcrel_hi82>:
    399c: 17 05 00 00  	auipc	a0, 0
    39a0: 93 0a 05 00  	mv	s5, a0

000039a4 <.Lpcrel_hi83>:
    39a4: 17 05 00 00  	auipc	a0, 0
    39a8: 13 09 05 00  	mv	s2, a0
    39ac: 13 85 04 00  	mv	a0, s1
    39b0: 93 85 0a 00  	mv	a1, s5
    39b4: 13 06 09 00  	mv	a2, s2
    39b8: 93 06 00 00  	li	a3, 0
    39bc: 97 00 00 00  	auipc	ra, 0
    39c0: e7 80 00 00  	jalr	ra
    39c4: 13 05 00 04  	li	a0, 64
    39c8: 93 05 00 04  	li	a1, 64
    39cc: 97 00 00 00  	auipc	ra, 0
    39d0: e7 80 00 00  	jalr	ra
    39d4: 83 29 45 00  	lw	s3, 4(a0)
    39d8: 37 15 00 00  	lui	a0, 1
    39dc: 13 05 05 f4  	addi	a0, a0, -192
    39e0: 93 05 00 04  	li	a1, 64
    39e4: 97 00 00 00  	auipc	ra, 0
    39e8: e7 80 00 00  	jalr	ra
    39ec: 03 2a 45 00  	lw	s4, 4(a0)
    39f0: 37 15 00 00  	lui	a0, 1
    39f4: 93 05 00 04  	li	a1, 64
    39f8: 97 00 00 00  	auipc	ra, 0
    39fc: e7 80 00 00  	jalr	ra
    3a00: 83 24 45 00  	lw	s1, 4(a0)
    3a04: 63 80 0c 00  	beqz	s9, 0x3a04 <.Lpcrel_hi83+0x60>
    3a08: 13 04 00 00  	li	s0, 0
    3a0c: 13 0c 00 40  	li	s8, 1024
    3a10: 13 0b 0a 00  	mv	s6, s4

00003a14 <.LBB0_171>:
    3a14: b3 0b 54 01  	add	s7, s0, s5
    3a18: 13 06 10 00  	li	a2, 1
    3a1c: 93 06 80 00  	li	a3, 8
    3a20: 13 07 00 10  	li	a4, 256
    3a24: 93 07 00 01  	li	a5, 16
    3a28: 13 85 0b 00  	mv	a0, s7
    3a2c: 93 05 0b 00  	mv	a1, s6
    3a30: 97 00 00 00  	auipc	ra, 0
    3a34: e7 80 00 00  	jalr	ra
    3a38: 13 85 1b 00  	addi	a0, s7, 1
    3a3c: 93 05 8b 00  	addi	a1, s6, 8
    3a40: 13 06 10 00  	li	a2, 1
    3a44: 93 06 80 00  	li	a3, 8
    3a48: 13 07 00 10  	li	a4, 256
    3a4c: 93 07 00 01  	li	a5, 16
    3a50: 97 00 00 00  	auipc	ra, 0
    3a54: e7 80 00 00  	jalr	ra
    3a58: 13 85 2b 00  	addi	a0, s7, 2
    3a5c: 93 05 0b 01  	addi	a1, s6, 16
    3a60: 13 06 10 00  	li	a2, 1
    3a64: 93 06 80 00  	li	a3, 8
    3a68: 13 07 00 10  	li	a4, 256
    3a6c: 93 07 00 01  	li	a5, 16
    3a70: 97 00 00 00  	auipc	ra, 0
    3a74: e7 80 00 00  	jalr	ra
    3a78: 13 85 3b 00  	addi	a0, s7, 3
    3a7c: 93 05 8b 01  	addi	a1, s6, 24
    3a80: 13 06 10 00  	li	a2, 1
    3a84: 93 06 80 00  	li	a3, 8
    3a88: 13 07 00 10  	li	a4, 256
    3a8c: 93 07 00 01  	li	a5, 16
    3a90: 97 00 00 00  	auipc	ra, 0
    3a94: e7 80 00 00  	jalr	ra
    3a98: 13 85 4b 00  	addi	a0, s7, 4
    3a9c: 93 05 0b 02  	addi	a1, s6, 32
    3aa0: 13 06 10 00  	li	a2, 1
    3aa4: 93 06 80 00  	li	a3, 8
    3aa8: 13 07 00 10  	li	a4, 256
    3aac: 93 07 00 01  	li	a5, 16
    3ab0: 97 00 00 00  	auipc	ra, 0
    3ab4: e7 80 00 00  	jalr	ra
    3ab8: 13 85 5b 00  	addi	a0, s7, 5
    3abc: 93 05 8b 02  	addi	a1, s6, 40
    3ac0: 13 06 10 00  	li	a2, 1
    3ac4: 93 06 80 00  	li	a3, 8
    3ac8: 13 07 00 10  	li	a4, 256
    3acc: 93 07 00 01  	li	a5, 16
    3ad0: 97 00 00 00  	auipc	ra, 0
    3ad4: e7 80 00 00  	jalr	ra
    3ad8: 13 85 6b 00  	addi	a0, s7, 6
    3adc: 93 05 0b 03  	addi	a1, s6, 48
    3ae0: 13 06 10 00  	li	a2, 1
    3ae4: 93 06 80 00  	li	a3, 8
    3ae8: 13 07 00 10  	li	a4, 256
    3aec: 93 07 00 01  	li	a5, 16
    3af0: 97 00 00 00  	auipc	ra, 0
    3af4: e7 80 00 00  	jalr	ra
    3af8: 13 85 7b 00  	addi	a0, s7, 7
    3afc: 93 05 8b 03  	addi	a1, s6, 56
    3b00: 13 06 10 00  	li	a2, 1
    3b04: 93 06 80 00  	li	a3, 8
    3b08: 13 07 00 10  	li	a4, 256
    3b0c: 93 07 00 01  	li	a5, 16
    3b10: 97 00 00 00  	auipc	ra, 0
    3b14: e7 80 00 00  	jalr	ra
    3b18: 13 04 04 08  	addi	s0, s0, 128
    3b1c: 13 0b 1b 00  	addi	s6, s6, 1
    3b20: 63 10 84 01  	bne	s0, s8, 0x3b20 <.LBB0_171+0x10c>

00003b24 <.Lpcrel_hi84>:
    3b24: 17 05 00 00  	auipc	a0, 0
    3b28: 13 05 05 00  	mv	a0, a0
    3b2c: 13 06 00 04  	li	a2, 64
    3b30: 93 06 00 04  	li	a3, 64
    3b34: 13 07 00 10  	li	a4, 256
    3b38: 93 07 10 00  	li	a5, 1
    3b3c: 93 85 09 00  	mv	a1, s3
    3b40: 97 00 00 00  	auipc	ra, 0
    3b44: e7 80 00 00  	jalr	ra

00003b48 <.LBB0_173>:
    3b48: 97 00 00 00  	auipc	ra, 0
    3b4c: e7 80 00 00  	jalr	ra
    3b50: 93 06 10 00  	li	a3, 1
    3b54: 13 85 09 00  	mv	a0, s3
    3b58: 93 05 0a 00  	mv	a1, s4
    3b5c: 13 86 04 00  	mv	a2, s1
    3b60: 97 00 00 00  	auipc	ra, 0
    3b64: e7 80 00 00  	jalr	ra
    3b68: 63 00 0d 00  	beqz	s10, 0x3b68 <.LBB0_173+0x20>
    3b6c: 73 d0 00 3c  	csrwi	pmpaddr16, 1
    3b70: 73 d0 10 3c  	csrwi	pmpaddr17, 1
    3b74: 73 d0 20 3c  	csrwi	pmpaddr18, 1
    3b78: 73 d0 30 3c  	csrwi	pmpaddr19, 1
    3b7c: 73 50 48 3c  	csrwi	pmpaddr20, 16
    3b80: 73 d0 50 3c  	csrwi	pmpaddr21, 1
    3b84: 73 d0 60 3c  	csrwi	pmpaddr22, 1
    3b88: 73 50 78 3c  	csrwi	pmpaddr23, 16
    3b8c: 73 d0 80 3c  	csrwi	pmpaddr24, 1
    3b90: 73 50 90 3c  	csrwi	pmpaddr25, 0
    3b94: 73 50 a0 3c  	csrwi	pmpaddr26, 0
    3b98: 73 50 b0 3c  	csrwi	pmpaddr27, 0
    3b9c: 73 d0 c0 3c  	csrwi	pmpaddr28, 1
    3ba0: 73 50 d8 3c  	csrwi	pmpaddr29, 16
    3ba4: 73 d0 e0 3c  	csrwi	pmpaddr30, 1
    3ba8: 73 d0 f0 3c  	csrwi	pmpaddr31, 1
    3bac: 73 50 08 3d  	csrwi	pmpaddr32, 16
    3bb0: 73 d0 10 3d  	csrwi	pmpaddr33, 1
    3bb4: 73 50 20 3d  	csrwi	pmpaddr34, 0
    3bb8: 73 50 30 3d  	csrwi	pmpaddr35, 0
    3bbc: 73 50 40 3d  	csrwi	pmpaddr36, 0
    3bc0: 13 05 00 10  	li	a0, 256
    3bc4: 73 10 55 3d  	csrw	pmpaddr37, a0
    3bc8: 73 50 60 3d  	csrwi	pmpaddr38, 0
    3bcc: 73 10 75 3d  	csrw	pmpaddr39, a0
    3bd0: 73 10 85 3d  	csrw	pmpaddr40, a0
    3bd4: 73 10 95 3d  	csrw	pmpaddr41, a0
    3bd8: 73 50 a0 3d  	csrwi	pmpaddr42, 0
    3bdc: 73 50 b0 3d  	csrwi	pmpaddr43, 0
    3be0: 73 50 c0 3d  	csrwi	pmpaddr44, 0
    3be4: 73 50 d0 3d  	csrwi	pmpaddr45, 0
    3be8: 73 50 e0 3d  	csrwi	pmpaddr46, 0
    3bec: 73 10 f5 3d  	csrw	pmpaddr47, a0
    3bf0: b7 15 00 00  	lui	a1, 1
    3bf4: 73 90 05 3e  	csrw	pmpaddr48, a1
    3bf8: 73 50 10 3e  	csrwi	pmpaddr49, 0
    3bfc: 73 10 25 3e  	csrw	pmpaddr50, a0
    3c00: 73 90 35 3e  	csrw	pmpaddr51, a1
    3c04: 73 d0 40 3e  	csrwi	pmpaddr52, 1
    3c08: 73 50 54 3e  	csrwi	pmpaddr53, 8
    3c0c: 73 d0 60 3e  	csrwi	pmpaddr54, 1
    3c10: 73 50 74 3e  	csrwi	pmpaddr55, 8
    3c14: 73 50 80 3e  	csrwi	pmpaddr56, 0
    3c18: 73 50 90 3e  	csrwi	pmpaddr57, 0
    3c1c: 73 50 a2 3e  	csrwi	pmpaddr58, 4
    3c20: 13 05 00 02  	li	a0, 32
    3c24: 73 10 b5 3e  	csrw	pmpaddr59, a0
    3c28: 73 50 c2 3e  	csrwi	pmpaddr60, 4
    3c2c: 73 10 d5 3e  	csrw	pmpaddr61, a0
    3c30: 73 90 e9 3e  	csrw	pmpaddr62, s3
    3c34: 73 10 fa 3e  	csrw	pmpaddr63, s4
    3c38: 73 10 0a 3f  	csrw	1008, s4
    3c3c: 73 90 14 3f  	csrw	1009, s1
    3c40: 73 90 24 3f  	csrw	1010, s1
    3c44: 73 50 30 3f  	csrwi	1011, 0
    3c48: 73 d0 70 3f  	csrwi	1015, 1
    3c4c: 73 50 88 3f  	csrwi	1016, 16
    3c50: 73 d0 90 3f  	csrwi	1017, 1
    3c54: 13 05 00 08  	li	a0, 128
    3c58: 73 10 a5 3f  	csrw	1018, a0
    3c5c: 73 50 b0 3f  	csrwi	1019, 0
    3c60: 73 50 c0 3f  	csrwi	1020, 0
    3c64: 73 50 d0 3f  	csrwi	1021, 0
    3c68: 73 50 e0 3f  	csrwi	1022, 0
    3c6c: 73 d0 f0 3f  	csrwi	1023, 1
    3c70: 73 d0 40 3f  	csrwi	1012, 1
    3c74: 73 d0 00 40  	csrwi	1024, 1
    3c78: 73 50 40 3f  	csrwi	1012, 0
    3c7c: 73 50 40 3f  	csrwi	1012, 0
    3c80: 73 50 00 40  	csrwi	1024, 0
    3c84: 73 50 00 40  	csrwi	1024, 0

00003c88 <.LBB0_175>:
    3c88: 93 06 20 00  	li	a3, 2
    3c8c: 13 85 09 00  	mv	a0, s3
    3c90: 93 05 0a 00  	mv	a1, s4
    3c94: 13 86 04 00  	mv	a2, s1
    3c98: 97 00 00 00  	auipc	ra, 0
    3c9c: e7 80 00 00  	jalr	ra
    3ca0: 97 00 00 00  	auipc	ra, 0
    3ca4: e7 80 00 00  	jalr	ra
    3ca8: 63 80 0c 00  	beqz	s9, 0x3ca8 <.LBB0_175+0x20>
    3cac: 13 06 00 02  	li	a2, 32
    3cb0: 93 06 00 10  	li	a3, 256
    3cb4: 13 07 00 02  	li	a4, 32
    3cb8: 93 07 00 01  	li	a5, 16
    3cbc: 13 85 04 00  	mv	a0, s1
    3cc0: 93 05 09 00  	mv	a1, s2
    3cc4: 97 00 00 00  	auipc	ra, 0
    3cc8: e7 80 00 00  	jalr	ra
    3ccc: 13 85 04 02  	addi	a0, s1, 32
    3cd0: 93 05 09 20  	addi	a1, s2, 512
    3cd4: 13 06 00 02  	li	a2, 32
    3cd8: 93 06 00 10  	li	a3, 256
    3cdc: 13 07 00 02  	li	a4, 32
    3ce0: 93 07 00 01  	li	a5, 16
    3ce4: 97 00 00 00  	auipc	ra, 0
    3ce8: e7 80 00 00  	jalr	ra
    3cec: 13 85 04 04  	addi	a0, s1, 64
    3cf0: 93 05 09 40  	addi	a1, s2, 1024
    3cf4: 13 06 00 02  	li	a2, 32
    3cf8: 93 06 00 10  	li	a3, 256
    3cfc: 13 07 00 02  	li	a4, 32
    3d00: 93 07 00 01  	li	a5, 16
    3d04: 97 00 00 00  	auipc	ra, 0
    3d08: e7 80 00 00  	jalr	ra
    3d0c: 13 85 04 06  	addi	a0, s1, 96
    3d10: 93 05 09 60  	addi	a1, s2, 1536
    3d14: 13 06 00 02  	li	a2, 32
    3d18: 93 06 00 10  	li	a3, 256
    3d1c: 13 07 00 02  	li	a4, 32
    3d20: 93 07 00 01  	li	a5, 16
    3d24: 97 00 00 00  	auipc	ra, 0
    3d28: e7 80 00 00  	jalr	ra
    3d2c: 13 85 04 08  	addi	a0, s1, 128
    3d30: 13 04 f9 7f  	addi	s0, s2, 2047
    3d34: 93 05 14 00  	addi	a1, s0, 1
    3d38: 13 06 00 02  	li	a2, 32
    3d3c: 93 06 00 10  	li	a3, 256
    3d40: 13 07 00 02  	li	a4, 32
    3d44: 93 07 00 01  	li	a5, 16
    3d48: 97 00 00 00  	auipc	ra, 0
    3d4c: e7 80 00 00  	jalr	ra
    3d50: 13 85 04 0a  	addi	a0, s1, 160
    3d54: 93 05 14 20  	addi	a1, s0, 513
    3d58: 13 06 00 02  	li	a2, 32
    3d5c: 93 06 00 10  	li	a3, 256
    3d60: 13 07 00 02  	li	a4, 32
    3d64: 93 07 00 01  	li	a5, 16
    3d68: 97 00 00 00  	auipc	ra, 0
    3d6c: e7 80 00 00  	jalr	ra
    3d70: 13 85 04 0c  	addi	a0, s1, 192
    3d74: 93 05 14 40  	addi	a1, s0, 1025
    3d78: 13 06 00 02  	li	a2, 32
    3d7c: 93 06 00 10  	li	a3, 256
    3d80: 13 07 00 02  	li	a4, 32
    3d84: 93 07 00 01  	li	a5, 16
    3d88: 97 00 00 00  	auipc	ra, 0
    3d8c: e7 80 00 00  	jalr	ra
    3d90: 13 85 04 0e  	addi	a0, s1, 224
    3d94: 93 05 14 60  	addi	a1, s0, 1537
    3d98: 13 06 00 02  	li	a2, 32
    3d9c: 93 06 00 10  	li	a3, 256
    3da0: 13 07 00 02  	li	a4, 32
    3da4: 93 07 00 01  	li	a5, 16
    3da8: 97 00 00 00  	auipc	ra, 0
    3dac: e7 80 00 00  	jalr	ra

00003db0 <.LBB0_177>:
    3db0: 97 00 00 00  	auipc	ra, 0
    3db4: e7 80 00 00  	jalr	ra

00003db8 <.Lpcrel_hi85>:
    3db8: 17 05 00 00  	auipc	a0, 0
    3dbc: 13 05 05 00  	mv	a0, a0

00003dc0 <.Lpcrel_hi86>:
    3dc0: 97 05 00 00  	auipc	a1, 0
    3dc4: 93 85 05 00  	mv	a1, a1

00003dc8 <.Lpcrel_hi87>:
    3dc8: 17 06 00 00  	auipc	a2, 0
    3dcc: 93 04 06 00  	mv	s1, a2
    3dd0: 93 06 30 00  	li	a3, 3
    3dd4: 13 86 04 00  	mv	a2, s1
    3dd8: 97 00 00 00  	auipc	ra, 0
    3ddc: e7 80 00 00  	jalr	ra
    3de0: 97 00 00 00  	auipc	ra, 0
    3de4: e7 80 00 00  	jalr	ra

00003de8 <.Lpcrel_hi88>:
    3de8: 17 05 00 00  	auipc	a0, 0
    3dec: 13 05 05 00  	mv	a0, a0

00003df0 <.Lpcrel_hi89>:
    3df0: 97 05 00 00  	auipc	a1, 0
    3df4: 13 86 05 00  	mv	a2, a1
    3df8: 93 85 04 00  	mv	a1, s1
    3dfc: 93 06 00 00  	li	a3, 0
    3e00: 97 00 00 00  	auipc	ra, 0
    3e04: e7 80 00 00  	jalr	ra
    3e08: 13 05 00 20  	li	a0, 512
    3e0c: 93 05 00 04  	li	a1, 64
    3e10: 97 00 00 00  	auipc	ra, 0
    3e14: e7 80 00 00  	jalr	ra
    3e18: 83 24 45 00  	lw	s1, 4(a0)
    3e1c: 37 15 00 00  	lui	a0, 1
    3e20: 93 05 00 04  	li	a1, 64
    3e24: 97 00 00 00  	auipc	ra, 0
    3e28: e7 80 00 00  	jalr	ra
    3e2c: 83 29 45 00  	lw	s3, 4(a0)
    3e30: 37 15 00 00  	lui	a0, 1
    3e34: 93 05 00 04  	li	a1, 64
    3e38: 97 00 00 00  	auipc	ra, 0
    3e3c: e7 80 00 00  	jalr	ra
    3e40: 03 29 45 00  	lw	s2, 4(a0)
    3e44: 63 80 0c 00  	beqz	s9, 0x3e44 <.Lpcrel_hi89+0x54>

00003e48 <.Lpcrel_hi90>:
    3e48: 17 05 00 00  	auipc	a0, 0
    3e4c: 13 05 05 00  	mv	a0, a0
    3e50: 37 16 00 00  	lui	a2, 1
    3e54: 93 85 09 00  	mv	a1, s3
    3e58: 97 00 00 00  	auipc	ra, 0
    3e5c: e7 80 00 00  	jalr	ra

00003e60 <.Lpcrel_hi91>:
    3e60: 17 05 00 00  	auipc	a0, 0
    3e64: 13 05 05 00  	mv	a0, a0
    3e68: 13 06 00 20  	li	a2, 512
    3e6c: 93 85 04 00  	mv	a1, s1
    3e70: 97 00 00 00  	auipc	ra, 0
    3e74: e7 80 00 00  	jalr	ra

00003e78 <.LBB0_179>:
    3e78: 97 00 00 00  	auipc	ra, 0
    3e7c: e7 80 00 00  	jalr	ra
    3e80: 93 06 10 00  	li	a3, 1
    3e84: 13 85 04 00  	mv	a0, s1
    3e88: 93 85 09 00  	mv	a1, s3
    3e8c: 13 06 09 00  	mv	a2, s2
    3e90: 97 00 00 00  	auipc	ra, 0
    3e94: e7 80 00 00  	jalr	ra
    3e98: 63 00 0d 00  	beqz	s10, 0x3e98 <.LBB0_179+0x20>
    3e9c: 13 05 10 00  	li	a0, 1
    3ea0: 93 15 b5 00  	slli	a1, a0, 11
    3ea4: 33 85 b9 00  	add	a0, s3, a1
    3ea8: b3 05 b9 00  	add	a1, s2, a1
    3eac: 13 06 00 08  	li	a2, 128
    3eb0: 93 86 04 00  	mv	a3, s1
    3eb4: 13 07 09 00  	mv	a4, s2
    3eb8: 93 87 09 00  	mv	a5, s3

00003ebc <.LBB0_181>:
    3ebc: 03 a8 06 00  	lw	a6, 0(a3)
    3ec0: 83 a8 07 00  	lw	a7, 0(a5)
    3ec4: 33 88 08 01  	add	a6, a7, a6
    3ec8: 23 20 07 01  	sw	a6, 0(a4)
    3ecc: 93 87 47 00  	addi	a5, a5, 4
    3ed0: 13 07 47 00  	addi	a4, a4, 4
    3ed4: 13 06 f6 ff  	addi	a2, a2, -1
    3ed8: 93 86 46 00  	addi	a3, a3, 4
    3edc: 63 10 06 00  	bnez	a2, 0x3edc <.LBB0_181+0x20>
    3ee0: 13 06 09 20  	addi	a2, s2, 512
    3ee4: 93 86 09 20  	addi	a3, s3, 512
    3ee8: 13 07 00 08  	li	a4, 128
    3eec: 93 87 04 00  	mv	a5, s1

00003ef0 <.LBB0_183>:
    3ef0: 03 a8 07 00  	lw	a6, 0(a5)
    3ef4: 83 a8 06 00  	lw	a7, 0(a3)
    3ef8: 33 88 08 01  	add	a6, a7, a6
    3efc: 23 20 06 01  	sw	a6, 0(a2)
    3f00: 13 07 f7 ff  	addi	a4, a4, -1
    3f04: 13 06 46 00  	addi	a2, a2, 4
    3f08: 93 86 46 00  	addi	a3, a3, 4
    3f0c: 93 87 47 00  	addi	a5, a5, 4
    3f10: 63 10 07 00  	bnez	a4, 0x3f10 <.LBB0_183+0x20>
    3f14: 13 06 09 40  	addi	a2, s2, 1024
    3f18: 93 86 09 40  	addi	a3, s3, 1024
    3f1c: 13 07 00 08  	li	a4, 128
    3f20: 93 87 04 00  	mv	a5, s1

00003f24 <.LBB0_185>:
    3f24: 03 a8 07 00  	lw	a6, 0(a5)
    3f28: 83 a8 06 00  	lw	a7, 0(a3)
    3f2c: 33 88 08 01  	add	a6, a7, a6
    3f30: 23 20 06 01  	sw	a6, 0(a2)
    3f34: 13 07 f7 ff  	addi	a4, a4, -1
    3f38: 13 06 46 00  	addi	a2, a2, 4
    3f3c: 93 86 46 00  	addi	a3, a3, 4
    3f40: 93 87 47 00  	addi	a5, a5, 4
    3f44: 63 10 07 00  	bnez	a4, 0x3f44 <.LBB0_185+0x20>
    3f48: 13 06 09 60  	addi	a2, s2, 1536
    3f4c: 93 86 09 60  	addi	a3, s3, 1536
    3f50: 13 07 00 08  	li	a4, 128
    3f54: 93 87 04 00  	mv	a5, s1

00003f58 <.LBB0_187>:
    3f58: 03 a8 07 00  	lw	a6, 0(a5)
    3f5c: 83 a8 06 00  	lw	a7, 0(a3)
    3f60: 33 88 08 01  	add	a6, a7, a6
    3f64: 23 20 06 01  	sw	a6, 0(a2)
    3f68: 13 07 f7 ff  	addi	a4, a4, -1
    3f6c: 13 06 46 00  	addi	a2, a2, 4
    3f70: 93 86 46 00  	addi	a3, a3, 4
    3f74: 93 87 47 00  	addi	a5, a5, 4
    3f78: 63 10 07 00  	bnez	a4, 0x3f78 <.LBB0_187+0x20>
    3f7c: 13 06 00 08  	li	a2, 128
    3f80: 93 86 04 00  	mv	a3, s1
    3f84: 13 07 05 00  	mv	a4, a0
    3f88: 93 87 05 00  	mv	a5, a1

00003f8c <.LBB0_189>:
    3f8c: 03 a8 06 00  	lw	a6, 0(a3)
    3f90: 83 28 07 00  	lw	a7, 0(a4)
    3f94: 33 88 08 01  	add	a6, a7, a6
    3f98: 23 a0 07 01  	sw	a6, 0(a5)
    3f9c: 13 06 f6 ff  	addi	a2, a2, -1
    3fa0: 93 87 47 00  	addi	a5, a5, 4
    3fa4: 13 07 47 00  	addi	a4, a4, 4
    3fa8: 93 86 46 00  	addi	a3, a3, 4
    3fac: 63 10 06 00  	bnez	a2, 0x3fac <.LBB0_189+0x20>
    3fb0: 13 86 05 20  	addi	a2, a1, 512
    3fb4: 93 06 05 20  	addi	a3, a0, 512
    3fb8: 13 07 00 08  	li	a4, 128
    3fbc: 93 87 04 00  	mv	a5, s1

00003fc0 <.LBB0_191>:
    3fc0: 03 a8 07 00  	lw	a6, 0(a5)
    3fc4: 83 a8 06 00  	lw	a7, 0(a3)
    3fc8: 33 88 08 01  	add	a6, a7, a6
    3fcc: 23 20 06 01  	sw	a6, 0(a2)
    3fd0: 13 07 f7 ff  	addi	a4, a4, -1
    3fd4: 13 06 46 00  	addi	a2, a2, 4
    3fd8: 93 86 46 00  	addi	a3, a3, 4
    3fdc: 93 87 47 00  	addi	a5, a5, 4
    3fe0: 63 10 07 00  	bnez	a4, 0x3fe0 <.LBB0_191+0x20>
    3fe4: 13 86 05 40  	addi	a2, a1, 1024
    3fe8: 93 06 05 40  	addi	a3, a0, 1024
    3fec: 13 07 00 08  	li	a4, 128
    3ff0: 93 87 04 00  	mv	a5, s1

00003ff4 <.LBB0_193>:
    3ff4: 03 a8 07 00  	lw	a6, 0(a5)
    3ff8: 83 a8 06 00  	lw	a7, 0(a3)
    3ffc: 33 88 08 01  	add	a6, a7, a6
    4000: 23 20 06 01  	sw	a6, 0(a2)
    4004: 13 07 f7 ff  	addi	a4, a4, -1
    4008: 13 06 46 00  	addi	a2, a2, 4
    400c: 93 86 46 00  	addi	a3, a3, 4
    4010: 93 87 47 00  	addi	a5, a5, 4
    4014: 63 10 07 00  	bnez	a4, 0x4014 <.LBB0_193+0x20>
    4018: 93 85 05 60  	addi	a1, a1, 1536
    401c: 13 05 05 60  	addi	a0, a0, 1536
    4020: 13 06 00 08  	li	a2, 128
    4024: 93 86 04 00  	mv	a3, s1

00004028 <.LBB0_195>:
    4028: 03 a7 06 00  	lw	a4, 0(a3)
    402c: 83 27 05 00  	lw	a5, 0(a0)
    4030: 33 87 e7 00  	add	a4, a5, a4
    4034: 23 a0 e5 00  	sw	a4, 0(a1)
    4038: 13 06 f6 ff  	addi	a2, a2, -1
    403c: 93 85 45 00  	addi	a1, a1, 4
    4040: 13 05 45 00  	addi	a0, a0, 4
    4044: 93 86 46 00  	addi	a3, a3, 4
    4048: 63 10 06 00  	bnez	a2, 0x4048 <.LBB0_195+0x20>

0000404c <.LBB0_196>:
    404c: 93 06 20 00  	li	a3, 2
    4050: 13 85 04 00  	mv	a0, s1
    4054: 93 85 09 00  	mv	a1, s3
    4058: 13 06 09 00  	mv	a2, s2
    405c: 97 00 00 00  	auipc	ra, 0
    4060: e7 80 00 00  	jalr	ra
    4064: 97 00 00 00  	auipc	ra, 0
    4068: e7 80 00 00  	jalr	ra
    406c: 63 80 0c 00  	beqz	s9, 0x406c <.LBB0_196+0x20>

00004070 <.Lpcrel_hi92>:
    4070: 17 05 00 00  	auipc	a0, 0
    4074: 93 05 05 00  	mv	a1, a0
    4078: 37 16 00 00  	lui	a2, 1
    407c: 13 05 09 00  	mv	a0, s2
    4080: 97 00 00 00  	auipc	ra, 0
    4084: e7 80 00 00  	jalr	ra

00004088 <.LBB0_198>:
    4088: 97 00 00 00  	auipc	ra, 0
    408c: e7 80 00 00  	jalr	ra

00004090 <.Lpcrel_hi93>:
    4090: 17 05 00 00  	auipc	a0, 0
    4094: 13 05 05 00  	mv	a0, a0

00004098 <.Lpcrel_hi94>:
    4098: 97 05 00 00  	auipc	a1, 0
    409c: 93 85 05 00  	mv	a1, a1

000040a0 <.Lpcrel_hi95>:
    40a0: 17 06 00 00  	auipc	a2, 0
    40a4: 13 0a 06 00  	mv	s4, a2
    40a8: 93 06 30 00  	li	a3, 3
    40ac: 13 06 0a 00  	mv	a2, s4
    40b0: 97 00 00 00  	auipc	ra, 0
    40b4: e7 80 00 00  	jalr	ra
    40b8: 97 00 00 00  	auipc	ra, 0
    40bc: e7 80 00 00  	jalr	ra

000040c0 <.Lpcrel_hi96>:
    40c0: 17 05 00 00  	auipc	a0, 0
    40c4: 93 04 05 00  	mv	s1, a0
    40c8: 13 05 0a 00  	mv	a0, s4
    40cc: 93 05 0a 00  	mv	a1, s4
    40d0: 13 86 04 00  	mv	a2, s1
    40d4: 93 06 00 00  	li	a3, 0
    40d8: 97 00 00 00  	auipc	ra, 0
    40dc: e7 80 00 00  	jalr	ra
    40e0: 37 15 00 00  	lui	a0, 1
    40e4: 93 05 00 04  	li	a1, 64
    40e8: 37 14 00 00  	lui	s0, 1
    40ec: 97 00 00 00  	auipc	ra, 0
    40f0: e7 80 00 00  	jalr	ra
    40f4: 83 29 45 00  	lw	s3, 4(a0)
    40f8: 13 05 04 f4  	addi	a0, s0, -192
    40fc: 93 05 00 04  	li	a1, 64
    4100: 97 00 00 00  	auipc	ra, 0
    4104: e7 80 00 00  	jalr	ra
    4108: 03 29 45 00  	lw	s2, 4(a0)
    410c: 63 80 0c 00  	beqz	s9, 0x410c <.Lpcrel_hi96+0x4c>
    4110: 13 06 00 02  	li	a2, 32
    4114: 93 06 00 02  	li	a3, 32
    4118: 13 07 00 10  	li	a4, 256
    411c: 93 07 00 01  	li	a5, 16
    4120: 13 05 0a 00  	mv	a0, s4
    4124: 93 85 09 00  	mv	a1, s3
    4128: 97 00 00 00  	auipc	ra, 0
    412c: e7 80 00 00  	jalr	ra
    4130: 93 85 09 02  	addi	a1, s3, 32
    4134: 13 05 0a 20  	addi	a0, s4, 512
    4138: 13 06 00 02  	li	a2, 32
    413c: 93 06 00 02  	li	a3, 32
    4140: 13 07 00 10  	li	a4, 256
    4144: 93 07 00 01  	li	a5, 16
    4148: 97 00 00 00  	auipc	ra, 0
    414c: e7 80 00 00  	jalr	ra
    4150: 93 85 09 04  	addi	a1, s3, 64
    4154: 13 05 0a 40  	addi	a0, s4, 1024
    4158: 13 06 00 02  	li	a2, 32
    415c: 93 06 00 02  	li	a3, 32
    4160: 13 07 00 10  	li	a4, 256
    4164: 93 07 00 01  	li	a5, 16
    4168: 97 00 00 00  	auipc	ra, 0
    416c: e7 80 00 00  	jalr	ra
    4170: 93 85 09 06  	addi	a1, s3, 96
    4174: 13 05 0a 60  	addi	a0, s4, 1536
    4178: 13 06 00 02  	li	a2, 32
    417c: 93 06 00 02  	li	a3, 32
    4180: 13 07 00 10  	li	a4, 256
    4184: 93 07 00 01  	li	a5, 16
    4188: 97 00 00 00  	auipc	ra, 0
    418c: e7 80 00 00  	jalr	ra
    4190: 93 85 09 08  	addi	a1, s3, 128
    4194: 13 04 fa 7f  	addi	s0, s4, 2047
    4198: 13 05 14 00  	addi	a0, s0, 1
    419c: 13 06 00 02  	li	a2, 32
    41a0: 93 06 00 02  	li	a3, 32
    41a4: 13 07 00 10  	li	a4, 256
    41a8: 93 07 00 01  	li	a5, 16
    41ac: 97 00 00 00  	auipc	ra, 0
    41b0: e7 80 00 00  	jalr	ra
    41b4: 93 85 09 0a  	addi	a1, s3, 160
    41b8: 13 05 14 20  	addi	a0, s0, 513
    41bc: 13 06 00 02  	li	a2, 32
    41c0: 93 06 00 02  	li	a3, 32
    41c4: 13 07 00 10  	li	a4, 256
    41c8: 93 07 00 01  	li	a5, 16
    41cc: 97 00 00 00  	auipc	ra, 0
    41d0: e7 80 00 00  	jalr	ra
    41d4: 93 85 09 0c  	addi	a1, s3, 192
    41d8: 13 05 14 40  	addi	a0, s0, 1025
    41dc: 13 06 00 02  	li	a2, 32
    41e0: 93 06 00 02  	li	a3, 32
    41e4: 13 07 00 10  	li	a4, 256
    41e8: 93 07 00 01  	li	a5, 16
    41ec: 97 00 00 00  	auipc	ra, 0
    41f0: e7 80 00 00  	jalr	ra
    41f4: 93 85 09 0e  	addi	a1, s3, 224
    41f8: 13 05 14 60  	addi	a0, s0, 1537
    41fc: 13 06 00 02  	li	a2, 32
    4200: 93 06 00 02  	li	a3, 32
    4204: 13 07 00 10  	li	a4, 256
    4208: 93 07 00 01  	li	a5, 16
    420c: 97 00 00 00  	auipc	ra, 0
    4210: e7 80 00 00  	jalr	ra

00004214 <.LBB0_200>:
    4214: 97 00 00 00  	auipc	ra, 0
    4218: e7 80 00 00  	jalr	ra
    421c: 93 06 10 00  	li	a3, 1
    4220: 13 85 09 00  	mv	a0, s3
    4224: 93 85 09 00  	mv	a1, s3
    4228: 13 06 09 00  	mv	a2, s2
    422c: 97 00 00 00  	auipc	ra, 0
    4230: e7 80 00 00  	jalr	ra
    4234: 63 00 0d 00  	beqz	s10, 0x4234 <.LBB0_200+0x20>
    4238: 73 d0 00 3c  	csrwi	pmpaddr16, 1
    423c: 73 d0 10 3c  	csrwi	pmpaddr17, 1
    4240: 73 d0 20 3c  	csrwi	pmpaddr18, 1
    4244: 73 d0 30 3c  	csrwi	pmpaddr19, 1
    4248: 73 50 48 3c  	csrwi	pmpaddr20, 16
    424c: 73 d0 50 3c  	csrwi	pmpaddr21, 1
    4250: 73 d0 60 3c  	csrwi	pmpaddr22, 1
    4254: 73 50 78 3c  	csrwi	pmpaddr23, 16
    4258: 73 d0 80 3c  	csrwi	pmpaddr24, 1
    425c: 73 d0 90 3c  	csrwi	pmpaddr25, 1
    4260: 73 50 a8 3c  	csrwi	pmpaddr26, 16
    4264: 73 d0 b0 3c  	csrwi	pmpaddr27, 1
    4268: 73 d0 c0 3c  	csrwi	pmpaddr28, 1
    426c: 73 50 d8 3c  	csrwi	pmpaddr29, 16
    4270: 73 d0 e0 3c  	csrwi	pmpaddr30, 1
    4274: 73 50 f0 3c  	csrwi	pmpaddr31, 0
    4278: 73 50 00 3d  	csrwi	pmpaddr32, 0
    427c: 73 50 10 3d  	csrwi	pmpaddr33, 0
    4280: 73 50 20 3d  	csrwi	pmpaddr34, 0
    4284: 73 50 30 3d  	csrwi	pmpaddr35, 0
    4288: 73 50 40 3d  	csrwi	pmpaddr36, 0
    428c: 73 50 50 3d  	csrwi	pmpaddr37, 0
    4290: 73 50 60 3d  	csrwi	pmpaddr38, 0
    4294: 73 50 70 3d  	csrwi	pmpaddr39, 0
    4298: 73 50 80 3d  	csrwi	pmpaddr40, 0
    429c: 73 50 90 3d  	csrwi	pmpaddr41, 0
    42a0: 73 50 a0 3d  	csrwi	pmpaddr42, 0
    42a4: 73 50 b0 3d  	csrwi	pmpaddr43, 0
    42a8: 13 05 00 10  	li	a0, 256
    42ac: 73 10 c5 3d  	csrw	pmpaddr44, a0
    42b0: b7 15 00 00  	lui	a1, 1
    42b4: 73 90 d5 3d  	csrw	pmpaddr45, a1
    42b8: 73 50 e0 3d  	csrwi	pmpaddr46, 0
    42bc: 73 10 f5 3d  	csrw	pmpaddr47, a0
    42c0: 73 90 05 3e  	csrw	pmpaddr48, a1
    42c4: 73 50 10 3e  	csrwi	pmpaddr49, 0
    42c8: 73 50 20 3e  	csrwi	pmpaddr50, 0
    42cc: 73 50 30 3e  	csrwi	pmpaddr51, 0
    42d0: 73 d0 40 3e  	csrwi	pmpaddr52, 1
    42d4: 73 50 54 3e  	csrwi	pmpaddr53, 8
    42d8: 73 d0 60 3e  	csrwi	pmpaddr54, 1
    42dc: 73 50 74 3e  	csrwi	pmpaddr55, 8
    42e0: 73 d0 80 3e  	csrwi	pmpaddr56, 1
    42e4: 73 50 94 3e  	csrwi	pmpaddr57, 8
    42e8: 73 50 a2 3e  	csrwi	pmpaddr58, 4
    42ec: 13 05 00 02  	li	a0, 32
    42f0: 73 10 b5 3e  	csrw	pmpaddr59, a0
    42f4: 73 50 c0 3e  	csrwi	pmpaddr60, 0
    42f8: 73 50 d0 3e  	csrwi	pmpaddr61, 0
    42fc: 37 05 00 10  	lui	a0, 65536
    4300: 93 05 05 08  	addi	a1, a0, 128
    4304: 73 90 e5 3e  	csrw	pmpaddr62, a1
    4308: 13 05 05 04  	addi	a0, a0, 64
    430c: 73 10 f5 3e  	csrw	pmpaddr63, a0
    4310: 73 10 09 3f  	csrw	1008, s2
    4314: 73 90 19 3f  	csrw	1009, s3
    4318: 73 90 29 3f  	csrw	1010, s3
    431c: 73 50 30 3f  	csrwi	1011, 0
    4320: 73 d0 70 3f  	csrwi	1015, 1
    4324: 73 50 88 3f  	csrwi	1016, 16
    4328: 73 d0 90 3f  	csrwi	1017, 1
    432c: 73 50 a0 3f  	csrwi	1018, 0
    4330: 37 85 24 7f  	lui	a0, 520776
    4334: 73 10 b5 3f  	csrw	1019, a0
    4338: 13 05 00 18  	li	a0, 384
    433c: 73 10 c5 3f  	csrw	1020, a0
    4340: 37 d5 f6 55  	lui	a0, 352109
    4344: 13 05 e5 cc  	addi	a0, a0, -818
    4348: 73 10 d5 3f  	csrw	1021, a0
    434c: 73 50 e8 3f  	csrwi	1022, 16
    4350: 73 50 f0 3f  	csrwi	1023, 0
    4354: 73 d0 40 3f  	csrwi	1012, 1
    4358: 73 d0 00 40  	csrwi	1024, 1
    435c: 73 50 40 3f  	csrwi	1012, 0
    4360: 73 50 40 3f  	csrwi	1012, 0
    4364: 73 50 00 40  	csrwi	1024, 0
    4368: 73 50 00 40  	csrwi	1024, 0

0000436c <.LBB0_202>:
    436c: 93 06 20 00  	li	a3, 2
    4370: 13 85 09 00  	mv	a0, s3
    4374: 93 85 09 00  	mv	a1, s3
    4378: 13 06 09 00  	mv	a2, s2
    437c: 97 00 00 00  	auipc	ra, 0
    4380: e7 80 00 00  	jalr	ra
    4384: 97 00 00 00  	auipc	ra, 0
    4388: e7 80 00 00  	jalr	ra
    438c: 63 80 0c 00  	beqz	s9, 0x438c <.LBB0_202+0x20>
    4390: 13 06 80 00  	li	a2, 8
    4394: 93 06 00 10  	li	a3, 256
    4398: 13 07 80 00  	li	a4, 8
    439c: 93 07 00 01  	li	a5, 16
    43a0: 13 05 09 00  	mv	a0, s2
    43a4: 93 85 04 00  	mv	a1, s1
    43a8: 97 00 00 00  	auipc	ra, 0
    43ac: e7 80 00 00  	jalr	ra
    43b0: 13 05 89 00  	addi	a0, s2, 8
    43b4: 93 85 04 08  	addi	a1, s1, 128
    43b8: 13 06 80 00  	li	a2, 8
    43bc: 93 06 00 10  	li	a3, 256
    43c0: 13 07 80 00  	li	a4, 8
    43c4: 93 07 00 01  	li	a5, 16
    43c8: 97 00 00 00  	auipc	ra, 0
    43cc: e7 80 00 00  	jalr	ra
    43d0: 13 05 09 01  	addi	a0, s2, 16
    43d4: 93 85 04 10  	addi	a1, s1, 256
    43d8: 13 06 80 00  	li	a2, 8
    43dc: 93 06 00 10  	li	a3, 256
    43e0: 13 07 80 00  	li	a4, 8
    43e4: 93 07 00 01  	li	a5, 16
    43e8: 97 00 00 00  	auipc	ra, 0
    43ec: e7 80 00 00  	jalr	ra
    43f0: 13 05 89 01  	addi	a0, s2, 24
    43f4: 93 85 04 18  	addi	a1, s1, 384
    43f8: 13 06 80 00  	li	a2, 8
    43fc: 93 06 00 10  	li	a3, 256
    4400: 13 07 80 00  	li	a4, 8
    4404: 93 07 00 01  	li	a5, 16
    4408: 97 00 00 00  	auipc	ra, 0
    440c: e7 80 00 00  	jalr	ra
    4410: 13 05 09 02  	addi	a0, s2, 32
    4414: 93 85 04 20  	addi	a1, s1, 512
    4418: 13 06 80 00  	li	a2, 8
    441c: 93 06 00 10  	li	a3, 256
    4420: 13 07 80 00  	li	a4, 8
    4424: 93 07 00 01  	li	a5, 16
    4428: 97 00 00 00  	auipc	ra, 0
    442c: e7 80 00 00  	jalr	ra
    4430: 13 05 89 02  	addi	a0, s2, 40
    4434: 93 85 04 28  	addi	a1, s1, 640
    4438: 13 06 80 00  	li	a2, 8
    443c: 93 06 00 10  	li	a3, 256
    4440: 13 07 80 00  	li	a4, 8
    4444: 93 07 00 01  	li	a5, 16
    4448: 97 00 00 00  	auipc	ra, 0
    444c: e7 80 00 00  	jalr	ra
    4450: 13 05 09 03  	addi	a0, s2, 48
    4454: 93 85 04 30  	addi	a1, s1, 768
    4458: 13 06 80 00  	li	a2, 8
    445c: 93 06 00 10  	li	a3, 256
    4460: 13 07 80 00  	li	a4, 8
    4464: 93 07 00 01  	li	a5, 16
    4468: 97 00 00 00  	auipc	ra, 0
    446c: e7 80 00 00  	jalr	ra
    4470: 13 05 89 03  	addi	a0, s2, 56
    4474: 93 85 04 38  	addi	a1, s1, 896
    4478: 13 06 80 00  	li	a2, 8
    447c: 93 06 00 10  	li	a3, 256
    4480: 13 07 80 00  	li	a4, 8
    4484: 93 07 00 01  	li	a5, 16
    4488: 97 00 00 00  	auipc	ra, 0
    448c: e7 80 00 00  	jalr	ra

00004490 <.LBB0_204>:
    4490: 97 00 00 00  	auipc	ra, 0
    4494: e7 80 00 00  	jalr	ra

00004498 <.Lpcrel_hi97>:
    4498: 17 05 00 00  	auipc	a0, 0
    449c: 13 05 05 00  	mv	a0, a0

000044a0 <.Lpcrel_hi98>:
    44a0: 97 05 00 00  	auipc	a1, 0
    44a4: 93 8a 05 00  	mv	s5, a1
    44a8: 93 06 30 00  	li	a3, 3
    44ac: 93 05 05 00  	mv	a1, a0
    44b0: 13 86 0a 00  	mv	a2, s5
    44b4: 97 00 00 00  	auipc	ra, 0
    44b8: e7 80 00 00  	jalr	ra
    44bc: 97 00 00 00  	auipc	ra, 0
    44c0: e7 80 00 00  	jalr	ra

000044c4 <.Lpcrel_hi99>:
    44c4: 17 05 00 00  	auipc	a0, 0
    44c8: 13 0b 05 00  	mv	s6, a0

000044cc <.Lpcrel_hi100>:
    44cc: 17 05 00 00  	auipc	a0, 0
    44d0: 13 04 05 00  	mv	s0, a0
    44d4: 13 85 0a 00  	mv	a0, s5
    44d8: 93 05 0b 00  	mv	a1, s6
    44dc: 13 06 04 00  	mv	a2, s0
    44e0: 93 06 00 00  	li	a3, 0
    44e4: 97 00 00 00  	auipc	ra, 0
    44e8: e7 80 00 00  	jalr	ra
    44ec: b7 1d 00 00  	lui	s11, 1
    44f0: 13 85 0d f4  	addi	a0, s11, -192
    44f4: 93 05 00 04  	li	a1, 64
    44f8: 97 00 00 00  	auipc	ra, 0
    44fc: e7 80 00 00  	jalr	ra
    4500: 83 29 45 00  	lw	s3, 4(a0)
    4504: 37 05 01 00  	lui	a0, 16
    4508: 13 05 05 f4  	addi	a0, a0, -192
    450c: 93 05 00 04  	li	a1, 64
    4510: 97 00 00 00  	auipc	ra, 0
    4514: e7 80 00 00  	jalr	ra
    4518: 03 2a 45 00  	lw	s4, 4(a0)
    451c: 37 15 00 00  	lui	a0, 1
    4520: 93 05 00 04  	li	a1, 64
    4524: 97 00 00 00  	auipc	ra, 0
    4528: e7 80 00 00  	jalr	ra
    452c: 03 29 45 00  	lw	s2, 4(a0)
    4530: 63 80 0c 00  	beqz	s9, 0x4530 <.Lpcrel_hi100+0x64>
    4534: 23 26 81 00  	sw	s0, 12(sp)
    4538: 13 04 00 00  	li	s0, 0
    453c: 13 0d 00 40  	li	s10, 1024
    4540: 93 0c 00 01  	li	s9, 16
    4544: 23 24 41 01  	sw	s4, 8(sp)

00004548 <.LBB0_206>:
    4548: 93 04 00 00  	li	s1, 0
    454c: 93 0b 0a 00  	mv	s7, s4

00004550 <.LBB0_207>:
    4550: 33 0c 9b 00  	add	s8, s6, s1
    4554: 13 06 10 00  	li	a2, 1
    4558: 93 06 00 40  	li	a3, 1024
    455c: 13 07 00 10  	li	a4, 256
    4560: 93 07 00 01  	li	a5, 16
    4564: 13 05 0c 00  	mv	a0, s8
    4568: 93 85 0b 00  	mv	a1, s7
    456c: 97 00 00 00  	auipc	ra, 0
    4570: e7 80 00 00  	jalr	ra
    4574: 13 05 1c 00  	addi	a0, s8, 1
    4578: 93 85 8b 00  	addi	a1, s7, 8
    457c: 13 06 10 00  	li	a2, 1
    4580: 93 06 00 40  	li	a3, 1024
    4584: 13 07 00 10  	li	a4, 256
    4588: 93 07 00 01  	li	a5, 16
    458c: 97 00 00 00  	auipc	ra, 0
    4590: e7 80 00 00  	jalr	ra
    4594: 13 05 2c 00  	addi	a0, s8, 2
    4598: 93 85 0b 01  	addi	a1, s7, 16
    459c: 13 06 10 00  	li	a2, 1
    45a0: 93 06 00 40  	li	a3, 1024
    45a4: 13 07 00 10  	li	a4, 256
    45a8: 93 07 00 01  	li	a5, 16
    45ac: 97 00 00 00  	auipc	ra, 0
    45b0: e7 80 00 00  	jalr	ra
    45b4: 13 05 3c 00  	addi	a0, s8, 3
    45b8: 93 85 8b 01  	addi	a1, s7, 24
    45bc: 13 06 10 00  	li	a2, 1
    45c0: 93 06 00 40  	li	a3, 1024
    45c4: 13 07 00 10  	li	a4, 256
    45c8: 93 07 00 01  	li	a5, 16
    45cc: 97 00 00 00  	auipc	ra, 0
    45d0: e7 80 00 00  	jalr	ra
    45d4: 13 05 4c 00  	addi	a0, s8, 4
    45d8: 93 85 0b 02  	addi	a1, s7, 32
    45dc: 13 06 10 00  	li	a2, 1
    45e0: 93 06 00 40  	li	a3, 1024
    45e4: 13 07 00 10  	li	a4, 256
    45e8: 93 07 00 01  	li	a5, 16
    45ec: 97 00 00 00  	auipc	ra, 0
    45f0: e7 80 00 00  	jalr	ra
    45f4: 13 05 5c 00  	addi	a0, s8, 5
    45f8: 93 85 8b 02  	addi	a1, s7, 40
    45fc: 13 06 10 00  	li	a2, 1
    4600: 93 06 00 40  	li	a3, 1024
    4604: 13 07 00 10  	li	a4, 256
    4608: 93 07 00 01  	li	a5, 16
    460c: 97 00 00 00  	auipc	ra, 0
    4610: e7 80 00 00  	jalr	ra
    4614: 13 05 6c 00  	addi	a0, s8, 6
    4618: 93 85 0b 03  	addi	a1, s7, 48
    461c: 13 06 10 00  	li	a2, 1
    4620: 93 06 00 40  	li	a3, 1024
    4624: 13 07 00 10  	li	a4, 256
    4628: 93 07 00 01  	li	a5, 16
    462c: 97 00 00 00  	auipc	ra, 0
    4630: e7 80 00 00  	jalr	ra
    4634: 13 05 7c 00  	addi	a0, s8, 7
    4638: 93 85 8b 03  	addi	a1, s7, 56
    463c: 13 06 10 00  	li	a2, 1
    4640: 93 06 00 40  	li	a3, 1024
    4644: 13 07 00 10  	li	a4, 256
    4648: 93 07 00 01  	li	a5, 16
    464c: 97 00 00 00  	auipc	ra, 0
    4650: e7 80 00 00  	jalr	ra
    4654: 93 84 04 08  	addi	s1, s1, 128
    4658: 93 8b 1b 00  	addi	s7, s7, 1
    465c: 63 90 a4 01  	bne	s1, s10, 0x465c <.LBB0_207+0x10c>
    4660: 13 04 14 00  	addi	s0, s0, 1
    4664: 13 0b 8b 00  	addi	s6, s6, 8
    4668: 33 0a ba 01  	add	s4, s4, s11
    466c: 63 10 94 01  	bne	s0, s9, 0x466c <.LBB0_207+0x11c>
    4670: 13 06 80 00  	li	a2, 8
    4674: 93 06 80 00  	li	a3, 8
    4678: 13 07 00 10  	li	a4, 256
    467c: 93 07 00 01  	li	a5, 16
    4680: 13 85 0a 00  	mv	a0, s5
    4684: 93 85 09 00  	mv	a1, s3
    4688: 97 00 00 00  	auipc	ra, 0
    468c: e7 80 00 00  	jalr	ra
    4690: 93 85 89 00  	addi	a1, s3, 8
    4694: 13 85 0a 08  	addi	a0, s5, 128
    4698: 13 06 80 00  	li	a2, 8
    469c: 93 06 80 00  	li	a3, 8
    46a0: 13 07 00 10  	li	a4, 256
    46a4: 93 07 00 01  	li	a5, 16
    46a8: 97 00 00 00  	auipc	ra, 0
    46ac: e7 80 00 00  	jalr	ra
    46b0: 93 85 09 01  	addi	a1, s3, 16
    46b4: 13 85 0a 10  	addi	a0, s5, 256
    46b8: 13 06 80 00  	li	a2, 8
    46bc: 93 06 80 00  	li	a3, 8
    46c0: 13 07 00 10  	li	a4, 256
    46c4: 93 07 00 01  	li	a5, 16
    46c8: 97 00 00 00  	auipc	ra, 0
    46cc: e7 80 00 00  	jalr	ra
    46d0: 93 85 89 01  	addi	a1, s3, 24
    46d4: 13 85 0a 18  	addi	a0, s5, 384
    46d8: 13 06 80 00  	li	a2, 8
    46dc: 93 06 80 00  	li	a3, 8
    46e0: 13 07 00 10  	li	a4, 256
    46e4: 93 07 00 01  	li	a5, 16
    46e8: 97 00 00 00  	auipc	ra, 0
    46ec: e7 80 00 00  	jalr	ra
    46f0: 93 85 09 02  	addi	a1, s3, 32
    46f4: 13 85 0a 20  	addi	a0, s5, 512
    46f8: 13 06 80 00  	li	a2, 8
    46fc: 93 06 80 00  	li	a3, 8
    4700: 13 07 00 10  	li	a4, 256
    4704: 93 07 00 01  	li	a5, 16
    4708: 97 00 00 00  	auipc	ra, 0
    470c: e7 80 00 00  	jalr	ra
    4710: 93 85 89 02  	addi	a1, s3, 40
    4714: 13 85 0a 28  	addi	a0, s5, 640
    4718: 13 06 80 00  	li	a2, 8
    471c: 93 06 80 00  	li	a3, 8
    4720: 13 07 00 10  	li	a4, 256
    4724: 93 07 00 01  	li	a5, 16
    4728: 97 00 00 00  	auipc	ra, 0
    472c: e7 80 00 00  	jalr	ra
    4730: 93 85 09 03  	addi	a1, s3, 48
    4734: 13 85 0a 30  	addi	a0, s5, 768
    4738: 13 06 80 00  	li	a2, 8
    473c: 93 06 80 00  	li	a3, 8
    4740: 13 07 00 10  	li	a4, 256
    4744: 93 07 00 01  	li	a5, 16
    4748: 97 00 00 00  	auipc	ra, 0
    474c: e7 80 00 00  	jalr	ra
    4750: 93 85 89 03  	addi	a1, s3, 56
    4754: 13 85 0a 38  	addi	a0, s5, 896
    4758: 13 06 80 00  	li	a2, 8
    475c: 93 06 80 00  	li	a3, 8
    4760: 13 07 00 10  	li	a4, 256
    4764: 93 07 00 01  	li	a5, 16
    4768: 97 00 00 00  	auipc	ra, 0
    476c: e7 80 00 00  	jalr	ra
    4770: 83 2c 81 01  	lw	s9, 24(sp)
    4774: 03 2d 41 01  	lw	s10, 20(sp)
    4778: 03 24 c1 00  	lw	s0, 12(sp)
    477c: 03 2a 81 00  	lw	s4, 8(sp)

00004780 <.LBB0_210>:
    4780: 97 00 00 00  	auipc	ra, 0
    4784: e7 80 00 00  	jalr	ra
    4788: 93 06 10 00  	li	a3, 1
    478c: 13 85 09 00  	mv	a0, s3
    4790: 93 05 0a 00  	mv	a1, s4
    4794: 13 06 09 00  	mv	a2, s2
    4798: 97 00 00 00  	auipc	ra, 0
    479c: e7 80 00 00  	jalr	ra
    47a0: 63 00 0d 00  	beqz	s10, 0x47a0 <.LBB0_210+0x20>
    47a4: 73 d0 00 3c  	csrwi	pmpaddr16, 1
    47a8: 73 d0 10 3c  	csrwi	pmpaddr17, 1
    47ac: 73 d0 20 3c  	csrwi	pmpaddr18, 1
    47b0: 73 50 38 3c  	csrwi	pmpaddr19, 16
    47b4: 73 50 48 3c  	csrwi	pmpaddr20, 16
    47b8: 73 d0 50 3c  	csrwi	pmpaddr21, 1
    47bc: 73 50 68 3c  	csrwi	pmpaddr22, 16
    47c0: 73 50 78 3c  	csrwi	pmpaddr23, 16
    47c4: 73 d0 80 3c  	csrwi	pmpaddr24, 1
    47c8: 73 50 90 3c  	csrwi	pmpaddr25, 0
    47cc: 73 50 a0 3c  	csrwi	pmpaddr26, 0
    47d0: 73 50 b0 3c  	csrwi	pmpaddr27, 0
    47d4: 73 d0 c0 3c  	csrwi	pmpaddr28, 1
    47d8: 73 50 d8 3c  	csrwi	pmpaddr29, 16
    47dc: 73 d0 e0 3c  	csrwi	pmpaddr30, 1
    47e0: 73 d0 f0 3c  	csrwi	pmpaddr31, 1
    47e4: 73 50 08 3d  	csrwi	pmpaddr32, 16
    47e8: 73 d0 10 3d  	csrwi	pmpaddr33, 1
    47ec: 73 50 20 3d  	csrwi	pmpaddr34, 0
    47f0: 73 50 30 3d  	csrwi	pmpaddr35, 0
    47f4: 73 50 40 3d  	csrwi	pmpaddr36, 0
    47f8: 13 05 00 10  	li	a0, 256
    47fc: 73 10 55 3d  	csrw	pmpaddr37, a0
    4800: 73 50 60 3d  	csrwi	pmpaddr38, 0
    4804: b7 15 00 00  	lui	a1, 1
    4808: 73 90 75 3d  	csrw	pmpaddr39, a1
    480c: 73 10 85 3d  	csrw	pmpaddr40, a0
    4810: 73 90 95 3d  	csrw	pmpaddr41, a1
    4814: 73 50 a0 3d  	csrwi	pmpaddr42, 0
    4818: 73 50 b0 3d  	csrwi	pmpaddr43, 0
    481c: 73 50 c0 3d  	csrwi	pmpaddr44, 0
    4820: 73 50 d0 3d  	csrwi	pmpaddr45, 0
    4824: 73 50 e0 3d  	csrwi	pmpaddr46, 0
    4828: 73 10 f5 3d  	csrw	pmpaddr47, a0
    482c: 73 90 05 3e  	csrw	pmpaddr48, a1
    4830: 73 50 10 3e  	csrwi	pmpaddr49, 0
    4834: 73 10 25 3e  	csrw	pmpaddr50, a0
    4838: 73 90 35 3e  	csrw	pmpaddr51, a1
    483c: 73 d0 40 3e  	csrwi	pmpaddr52, 1
    4840: 73 50 54 3e  	csrwi	pmpaddr53, 8
    4844: 73 d0 60 3e  	csrwi	pmpaddr54, 1
    4848: 73 50 74 3e  	csrwi	pmpaddr55, 8
    484c: 73 50 80 3e  	csrwi	pmpaddr56, 0
    4850: 73 50 90 3e  	csrwi	pmpaddr57, 0
    4854: 73 50 a2 3e  	csrwi	pmpaddr58, 4
    4858: 13 05 00 02  	li	a0, 32
    485c: 73 10 b5 3e  	csrw	pmpaddr59, a0
    4860: 73 50 c2 3e  	csrwi	pmpaddr60, 4
    4864: 73 10 d5 3e  	csrw	pmpaddr61, a0
    4868: 73 90 e9 3e  	csrw	pmpaddr62, s3
    486c: 73 10 fa 3e  	csrw	pmpaddr63, s4
    4870: 73 10 0a 3f  	csrw	1008, s4
    4874: 73 10 19 3f  	csrw	1009, s2
    4878: 73 10 29 3f  	csrw	1010, s2
    487c: 73 50 30 3f  	csrwi	1011, 0
    4880: 73 50 78 3f  	csrwi	1015, 16
    4884: 73 50 88 3f  	csrwi	1016, 16
    4888: 73 d0 90 3f  	csrwi	1017, 1
    488c: 13 05 00 08  	li	a0, 128
    4890: 73 10 a5 3f  	csrw	1018, a0
    4894: 73 50 b0 3f  	csrwi	1019, 0
    4898: 73 50 c0 3f  	csrwi	1020, 0
    489c: 73 50 d0 3f  	csrwi	1021, 0
    48a0: 73 50 e0 3f  	csrwi	1022, 0
    48a4: 73 d0 f0 3f  	csrwi	1023, 1
    48a8: 73 d0 40 3f  	csrwi	1012, 1
    48ac: 73 d0 00 40  	csrwi	1024, 1
    48b0: 73 50 40 3f  	csrwi	1012, 0
    48b4: 73 50 40 3f  	csrwi	1012, 0
    48b8: 73 50 00 40  	csrwi	1024, 0
    48bc: 73 50 00 40  	csrwi	1024, 0

000048c0 <.LBB0_212>:
    48c0: 93 06 20 00  	li	a3, 2
    48c4: 13 85 09 00  	mv	a0, s3
    48c8: 93 05 0a 00  	mv	a1, s4
    48cc: 13 06 09 00  	mv	a2, s2
    48d0: 97 00 00 00  	auipc	ra, 0
    48d4: e7 80 00 00  	jalr	ra
    48d8: 97 00 00 00  	auipc	ra, 0
    48dc: e7 80 00 00  	jalr	ra
    48e0: 63 80 0c 00  	beqz	s9, 0x48e0 <.LBB0_212+0x20>
    48e4: 13 06 00 02  	li	a2, 32
    48e8: 93 06 00 10  	li	a3, 256
    48ec: 13 07 00 02  	li	a4, 32
    48f0: 93 07 00 01  	li	a5, 16
    48f4: 13 05 09 00  	mv	a0, s2
    48f8: 93 05 04 00  	mv	a1, s0
    48fc: 97 00 00 00  	auipc	ra, 0
    4900: e7 80 00 00  	jalr	ra
    4904: 13 05 09 02  	addi	a0, s2, 32
    4908: 93 05 04 20  	addi	a1, s0, 512
    490c: 13 06 00 02  	li	a2, 32
    4910: 93 06 00 10  	li	a3, 256
    4914: 13 07 00 02  	li	a4, 32
    4918: 93 07 00 01  	li	a5, 16
    491c: 97 00 00 00  	auipc	ra, 0
    4920: e7 80 00 00  	jalr	ra
    4924: 13 05 09 04  	addi	a0, s2, 64
    4928: 93 05 04 40  	addi	a1, s0, 1024
    492c: 13 06 00 02  	li	a2, 32
    4930: 93 06 00 10  	li	a3, 256
    4934: 13 07 00 02  	li	a4, 32
    4938: 93 07 00 01  	li	a5, 16
    493c: 97 00 00 00  	auipc	ra, 0
    4940: e7 80 00 00  	jalr	ra
    4944: 13 05 09 06  	addi	a0, s2, 96
    4948: 93 05 04 60  	addi	a1, s0, 1536
    494c: 13 06 00 02  	li	a2, 32
    4950: 93 06 00 10  	li	a3, 256
    4954: 13 07 00 02  	li	a4, 32
    4958: 93 07 00 01  	li	a5, 16
    495c: 97 00 00 00  	auipc	ra, 0
    4960: e7 80 00 00  	jalr	ra
    4964: 13 05 09 08  	addi	a0, s2, 128
    4968: 13 04 f4 7f  	addi	s0, s0, 2047
    496c: 93 05 14 00  	addi	a1, s0, 1
    4970: 13 06 00 02  	li	a2, 32
    4974: 93 06 00 10  	li	a3, 256
    4978: 13 07 00 02  	li	a4, 32
    497c: 93 07 00 01  	li	a5, 16
    4980: 97 00 00 00  	auipc	ra, 0
    4984: e7 80 00 00  	jalr	ra
    4988: 13 05 09 0a  	addi	a0, s2, 160
    498c: 93 05 14 20  	addi	a1, s0, 513
    4990: 13 06 00 02  	li	a2, 32
    4994: 93 06 00 10  	li	a3, 256
    4998: 13 07 00 02  	li	a4, 32
    499c: 93 07 00 01  	li	a5, 16
    49a0: 97 00 00 00  	auipc	ra, 0
    49a4: e7 80 00 00  	jalr	ra
    49a8: 13 05 09 0c  	addi	a0, s2, 192
    49ac: 93 05 14 40  	addi	a1, s0, 1025
    49b0: 13 06 00 02  	li	a2, 32
    49b4: 93 06 00 10  	li	a3, 256
    49b8: 13 07 00 02  	li	a4, 32
    49bc: 93 07 00 01  	li	a5, 16
    49c0: 97 00 00 00  	auipc	ra, 0
    49c4: e7 80 00 00  	jalr	ra
    49c8: 13 05 09 0e  	addi	a0, s2, 224
    49cc: 93 05 14 60  	addi	a1, s0, 1537
    49d0: 13 06 00 02  	li	a2, 32
    49d4: 93 06 00 10  	li	a3, 256
    49d8: 13 07 00 02  	li	a4, 32
    49dc: 93 07 00 01  	li	a5, 16
    49e0: 97 00 00 00  	auipc	ra, 0
    49e4: e7 80 00 00  	jalr	ra

000049e8 <.LBB0_214>:
    49e8: 97 00 00 00  	auipc	ra, 0
    49ec: e7 80 00 00  	jalr	ra

000049f0 <.Lpcrel_hi101>:
    49f0: 17 05 00 00  	auipc	a0, 0
    49f4: 13 05 05 00  	mv	a0, a0

000049f8 <.Lpcrel_hi102>:
    49f8: 97 05 00 00  	auipc	a1, 0
    49fc: 93 85 05 00  	mv	a1, a1

00004a00 <.Lpcrel_hi103>:
    4a00: 17 06 00 00  	auipc	a2, 0
    4a04: 93 04 06 00  	mv	s1, a2
    4a08: 93 06 30 00  	li	a3, 3
    4a0c: 13 86 04 00  	mv	a2, s1
    4a10: 97 00 00 00  	auipc	ra, 0
    4a14: e7 80 00 00  	jalr	ra
    4a18: 97 00 00 00  	auipc	ra, 0
    4a1c: e7 80 00 00  	jalr	ra

00004a20 <.Lpcrel_hi104>:
    4a20: 17 05 00 00  	auipc	a0, 0
    4a24: 13 05 05 00  	mv	a0, a0

00004a28 <.Lpcrel_hi105>:
    4a28: 97 05 00 00  	auipc	a1, 0
    4a2c: 13 86 05 00  	mv	a2, a1
    4a30: 93 85 04 00  	mv	a1, s1
    4a34: 93 06 00 00  	li	a3, 0
    4a38: 97 00 00 00  	auipc	ra, 0
    4a3c: e7 80 00 00  	jalr	ra
    4a40: 13 05 00 20  	li	a0, 512
    4a44: 93 05 00 04  	li	a1, 64
    4a48: 97 00 00 00  	auipc	ra, 0
    4a4c: e7 80 00 00  	jalr	ra
    4a50: 83 24 45 00  	lw	s1, 4(a0)
    4a54: 37 15 00 00  	lui	a0, 1
    4a58: 93 05 00 04  	li	a1, 64
    4a5c: 97 00 00 00  	auipc	ra, 0
    4a60: e7 80 00 00  	jalr	ra
    4a64: 83 29 45 00  	lw	s3, 4(a0)
    4a68: 37 15 00 00  	lui	a0, 1
    4a6c: 93 05 00 04  	li	a1, 64
    4a70: 97 00 00 00  	auipc	ra, 0
    4a74: e7 80 00 00  	jalr	ra
    4a78: 03 29 45 00  	lw	s2, 4(a0)
    4a7c: 63 80 0c 00  	beqz	s9, 0x4a7c <.Lpcrel_hi105+0x54>

00004a80 <.Lpcrel_hi106>:
    4a80: 17 05 00 00  	auipc	a0, 0
    4a84: 13 05 05 00  	mv	a0, a0
    4a88: 37 16 00 00  	lui	a2, 1
    4a8c: 93 85 09 00  	mv	a1, s3
    4a90: 97 00 00 00  	auipc	ra, 0
    4a94: e7 80 00 00  	jalr	ra

00004a98 <.Lpcrel_hi107>:
    4a98: 17 05 00 00  	auipc	a0, 0
    4a9c: 13 05 05 00  	mv	a0, a0
    4aa0: 13 06 00 20  	li	a2, 512
    4aa4: 93 85 04 00  	mv	a1, s1
    4aa8: 97 00 00 00  	auipc	ra, 0
    4aac: e7 80 00 00  	jalr	ra

00004ab0 <.LBB0_216>:
    4ab0: 97 00 00 00  	auipc	ra, 0
    4ab4: e7 80 00 00  	jalr	ra
    4ab8: 93 06 10 00  	li	a3, 1
    4abc: 13 85 04 00  	mv	a0, s1
    4ac0: 93 85 09 00  	mv	a1, s3
    4ac4: 13 06 09 00  	mv	a2, s2
    4ac8: 97 00 00 00  	auipc	ra, 0
    4acc: e7 80 00 00  	jalr	ra
    4ad0: 63 00 0d 00  	beqz	s10, 0x4ad0 <.LBB0_216+0x20>
    4ad4: 13 05 10 00  	li	a0, 1
    4ad8: 93 15 b5 00  	slli	a1, a0, 11
    4adc: 33 85 b9 00  	add	a0, s3, a1
    4ae0: b3 05 b9 00  	add	a1, s2, a1
    4ae4: 13 06 00 08  	li	a2, 128
    4ae8: 93 86 04 00  	mv	a3, s1
    4aec: 13 07 09 00  	mv	a4, s2
    4af0: 93 87 09 00  	mv	a5, s3

00004af4 <.LBB0_218>:
    4af4: 03 a8 06 00  	lw	a6, 0(a3)
    4af8: 83 a8 07 00  	lw	a7, 0(a5)
    4afc: 33 88 08 01  	add	a6, a7, a6
    4b00: 23 20 07 01  	sw	a6, 0(a4)
    4b04: 93 87 47 00  	addi	a5, a5, 4
    4b08: 13 07 47 00  	addi	a4, a4, 4
    4b0c: 13 06 f6 ff  	addi	a2, a2, -1
    4b10: 93 86 46 00  	addi	a3, a3, 4
    4b14: 63 10 06 00  	bnez	a2, 0x4b14 <.LBB0_218+0x20>
    4b18: 13 06 09 20  	addi	a2, s2, 512
    4b1c: 93 86 09 20  	addi	a3, s3, 512
    4b20: 13 07 00 08  	li	a4, 128
    4b24: 93 87 04 00  	mv	a5, s1

00004b28 <.LBB0_220>:
    4b28: 03 a8 07 00  	lw	a6, 0(a5)
    4b2c: 83 a8 06 00  	lw	a7, 0(a3)
    4b30: 33 88 08 01  	add	a6, a7, a6
    4b34: 23 20 06 01  	sw	a6, 0(a2)
    4b38: 13 07 f7 ff  	addi	a4, a4, -1
    4b3c: 13 06 46 00  	addi	a2, a2, 4
    4b40: 93 86 46 00  	addi	a3, a3, 4
    4b44: 93 87 47 00  	addi	a5, a5, 4
    4b48: 63 10 07 00  	bnez	a4, 0x4b48 <.LBB0_220+0x20>
    4b4c: 13 06 09 40  	addi	a2, s2, 1024
    4b50: 93 86 09 40  	addi	a3, s3, 1024
    4b54: 13 07 00 08  	li	a4, 128
    4b58: 93 87 04 00  	mv	a5, s1

00004b5c <.LBB0_222>:
    4b5c: 03 a8 07 00  	lw	a6, 0(a5)
    4b60: 83 a8 06 00  	lw	a7, 0(a3)
    4b64: 33 88 08 01  	add	a6, a7, a6
    4b68: 23 20 06 01  	sw	a6, 0(a2)
    4b6c: 13 07 f7 ff  	addi	a4, a4, -1
    4b70: 13 06 46 00  	addi	a2, a2, 4
    4b74: 93 86 46 00  	addi	a3, a3, 4
    4b78: 93 87 47 00  	addi	a5, a5, 4
    4b7c: 63 10 07 00  	bnez	a4, 0x4b7c <.LBB0_222+0x20>
    4b80: 13 06 09 60  	addi	a2, s2, 1536
    4b84: 93 86 09 60  	addi	a3, s3, 1536
    4b88: 13 07 00 08  	li	a4, 128
    4b8c: 93 87 04 00  	mv	a5, s1

00004b90 <.LBB0_224>:
    4b90: 03 a8 07 00  	lw	a6, 0(a5)
    4b94: 83 a8 06 00  	lw	a7, 0(a3)
    4b98: 33 88 08 01  	add	a6, a7, a6
    4b9c: 23 20 06 01  	sw	a6, 0(a2)
    4ba0: 13 07 f7 ff  	addi	a4, a4, -1
    4ba4: 13 06 46 00  	addi	a2, a2, 4
    4ba8: 93 86 46 00  	addi	a3, a3, 4
    4bac: 93 87 47 00  	addi	a5, a5, 4
    4bb0: 63 10 07 00  	bnez	a4, 0x4bb0 <.LBB0_224+0x20>
    4bb4: 13 06 00 08  	li	a2, 128
    4bb8: 93 86 04 00  	mv	a3, s1
    4bbc: 13 07 05 00  	mv	a4, a0
    4bc0: 93 87 05 00  	mv	a5, a1

00004bc4 <.LBB0_226>:
    4bc4: 03 a8 06 00  	lw	a6, 0(a3)
    4bc8: 83 28 07 00  	lw	a7, 0(a4)
    4bcc: 33 88 08 01  	add	a6, a7, a6
    4bd0: 23 a0 07 01  	sw	a6, 0(a5)
    4bd4: 13 06 f6 ff  	addi	a2, a2, -1
    4bd8: 93 87 47 00  	addi	a5, a5, 4
    4bdc: 13 07 47 00  	addi	a4, a4, 4
    4be0: 93 86 46 00  	addi	a3, a3, 4
    4be4: 63 10 06 00  	bnez	a2, 0x4be4 <.LBB0_226+0x20>
    4be8: 13 86 05 20  	addi	a2, a1, 512
    4bec: 93 06 05 20  	addi	a3, a0, 512
    4bf0: 13 07 00 08  	li	a4, 128
    4bf4: 93 87 04 00  	mv	a5, s1

00004bf8 <.LBB0_228>:
    4bf8: 03 a8 07 00  	lw	a6, 0(a5)
    4bfc: 83 a8 06 00  	lw	a7, 0(a3)
    4c00: 33 88 08 01  	add	a6, a7, a6
    4c04: 23 20 06 01  	sw	a6, 0(a2)
    4c08: 13 07 f7 ff  	addi	a4, a4, -1
    4c0c: 13 06 46 00  	addi	a2, a2, 4
    4c10: 93 86 46 00  	addi	a3, a3, 4
    4c14: 93 87 47 00  	addi	a5, a5, 4
    4c18: 63 10 07 00  	bnez	a4, 0x4c18 <.LBB0_228+0x20>
    4c1c: 13 86 05 40  	addi	a2, a1, 1024
    4c20: 93 06 05 40  	addi	a3, a0, 1024
    4c24: 13 07 00 08  	li	a4, 128
    4c28: 93 87 04 00  	mv	a5, s1

00004c2c <.LBB0_230>:
    4c2c: 03 a8 07 00  	lw	a6, 0(a5)
    4c30: 83 a8 06 00  	lw	a7, 0(a3)
    4c34: 33 88 08 01  	add	a6, a7, a6
    4c38: 23 20 06 01  	sw	a6, 0(a2)
    4c3c: 13 07 f7 ff  	addi	a4, a4, -1
    4c40: 13 06 46 00  	addi	a2, a2, 4
    4c44: 93 86 46 00  	addi	a3, a3, 4
    4c48: 93 87 47 00  	addi	a5, a5, 4
    4c4c: 63 10 07 00  	bnez	a4, 0x4c4c <.LBB0_230+0x20>
    4c50: 93 85 05 60  	addi	a1, a1, 1536
    4c54: 13 05 05 60  	addi	a0, a0, 1536
    4c58: 13 06 00 08  	li	a2, 128
    4c5c: 93 86 04 00  	mv	a3, s1

00004c60 <.LBB0_232>:
    4c60: 03 a7 06 00  	lw	a4, 0(a3)
    4c64: 83 27 05 00  	lw	a5, 0(a0)
    4c68: 33 87 e7 00  	add	a4, a5, a4
    4c6c: 23 a0 e5 00  	sw	a4, 0(a1)
    4c70: 13 06 f6 ff  	addi	a2, a2, -1
    4c74: 93 85 45 00  	addi	a1, a1, 4
    4c78: 13 05 45 00  	addi	a0, a0, 4
    4c7c: 93 86 46 00  	addi	a3, a3, 4
    4c80: 63 10 06 00  	bnez	a2, 0x4c80 <.LBB0_232+0x20>

00004c84 <.LBB0_233>:
    4c84: 93 06 20 00  	li	a3, 2
    4c88: 13 85 04 00  	mv	a0, s1
    4c8c: 93 85 09 00  	mv	a1, s3
    4c90: 13 06 09 00  	mv	a2, s2
    4c94: 97 00 00 00  	auipc	ra, 0
    4c98: e7 80 00 00  	jalr	ra
    4c9c: 97 00 00 00  	auipc	ra, 0
    4ca0: e7 80 00 00  	jalr	ra
    4ca4: 63 80 0c 00  	beqz	s9, 0x4ca4 <.LBB0_233+0x20>

00004ca8 <.Lpcrel_hi108>:
    4ca8: 17 05 00 00  	auipc	a0, 0
    4cac: 93 05 05 00  	mv	a1, a0
    4cb0: 37 16 00 00  	lui	a2, 1
    4cb4: 13 05 09 00  	mv	a0, s2
    4cb8: 97 00 00 00  	auipc	ra, 0
    4cbc: e7 80 00 00  	jalr	ra

00004cc0 <.LBB0_235>:
    4cc0: 97 00 00 00  	auipc	ra, 0
    4cc4: e7 80 00 00  	jalr	ra

00004cc8 <.Lpcrel_hi109>:
    4cc8: 17 05 00 00  	auipc	a0, 0
    4ccc: 13 05 05 00  	mv	a0, a0

00004cd0 <.Lpcrel_hi110>:
    4cd0: 97 05 00 00  	auipc	a1, 0
    4cd4: 93 85 05 00  	mv	a1, a1

00004cd8 <.Lpcrel_hi111>:
    4cd8: 17 06 00 00  	auipc	a2, 0
    4cdc: 13 0a 06 00  	mv	s4, a2
    4ce0: 93 06 30 00  	li	a3, 3
    4ce4: 13 06 0a 00  	mv	a2, s4
    4ce8: 97 00 00 00  	auipc	ra, 0
    4cec: e7 80 00 00  	jalr	ra
    4cf0: 97 00 00 00  	auipc	ra, 0
    4cf4: e7 80 00 00  	jalr	ra

00004cf8 <.Lpcrel_hi112>:
    4cf8: 17 05 00 00  	auipc	a0, 0
    4cfc: 93 04 05 00  	mv	s1, a0
    4d00: 13 05 0a 00  	mv	a0, s4
    4d04: 93 05 0a 00  	mv	a1, s4
    4d08: 13 86 04 00  	mv	a2, s1
    4d0c: 93 06 00 00  	li	a3, 0
    4d10: 97 00 00 00  	auipc	ra, 0
    4d14: e7 80 00 00  	jalr	ra
    4d18: 37 15 00 00  	lui	a0, 1
    4d1c: 93 05 00 04  	li	a1, 64
    4d20: 37 14 00 00  	lui	s0, 1
    4d24: 97 00 00 00  	auipc	ra, 0
    4d28: e7 80 00 00  	jalr	ra
    4d2c: 83 29 45 00  	lw	s3, 4(a0)
    4d30: 13 05 04 f4  	addi	a0, s0, -192
    4d34: 93 05 00 04  	li	a1, 64
    4d38: 97 00 00 00  	auipc	ra, 0
    4d3c: e7 80 00 00  	jalr	ra
    4d40: 03 29 45 00  	lw	s2, 4(a0)
    4d44: 63 80 0c 00  	beqz	s9, 0x4d44 <.Lpcrel_hi112+0x4c>
    4d48: 13 06 00 02  	li	a2, 32
    4d4c: 93 06 00 02  	li	a3, 32
    4d50: 13 07 00 10  	li	a4, 256
    4d54: 93 07 00 01  	li	a5, 16
    4d58: 13 05 0a 00  	mv	a0, s4
    4d5c: 93 85 09 00  	mv	a1, s3
    4d60: 97 00 00 00  	auipc	ra, 0
    4d64: e7 80 00 00  	jalr	ra
    4d68: 93 85 09 02  	addi	a1, s3, 32
    4d6c: 13 05 0a 20  	addi	a0, s4, 512
    4d70: 13 06 00 02  	li	a2, 32
    4d74: 93 06 00 02  	li	a3, 32
    4d78: 13 07 00 10  	li	a4, 256
    4d7c: 93 07 00 01  	li	a5, 16
    4d80: 97 00 00 00  	auipc	ra, 0
    4d84: e7 80 00 00  	jalr	ra
    4d88: 93 85 09 04  	addi	a1, s3, 64
    4d8c: 13 05 0a 40  	addi	a0, s4, 1024
    4d90: 13 06 00 02  	li	a2, 32
    4d94: 93 06 00 02  	li	a3, 32
    4d98: 13 07 00 10  	li	a4, 256
    4d9c: 93 07 00 01  	li	a5, 16
    4da0: 97 00 00 00  	auipc	ra, 0
    4da4: e7 80 00 00  	jalr	ra
    4da8: 93 85 09 06  	addi	a1, s3, 96
    4dac: 13 05 0a 60  	addi	a0, s4, 1536
    4db0: 13 06 00 02  	li	a2, 32
    4db4: 93 06 00 02  	li	a3, 32
    4db8: 13 07 00 10  	li	a4, 256
    4dbc: 93 07 00 01  	li	a5, 16
    4dc0: 97 00 00 00  	auipc	ra, 0
    4dc4: e7 80 00 00  	jalr	ra
    4dc8: 93 85 09 08  	addi	a1, s3, 128
    4dcc: 13 04 fa 7f  	addi	s0, s4, 2047
    4dd0: 13 05 14 00  	addi	a0, s0, 1
    4dd4: 13 06 00 02  	li	a2, 32
    4dd8: 93 06 00 02  	li	a3, 32
    4ddc: 13 07 00 10  	li	a4, 256
    4de0: 93 07 00 01  	li	a5, 16
    4de4: 97 00 00 00  	auipc	ra, 0
    4de8: e7 80 00 00  	jalr	ra
    4dec: 93 85 09 0a  	addi	a1, s3, 160
    4df0: 13 05 14 20  	addi	a0, s0, 513
    4df4: 13 06 00 02  	li	a2, 32
    4df8: 93 06 00 02  	li	a3, 32
    4dfc: 13 07 00 10  	li	a4, 256
    4e00: 93 07 00 01  	li	a5, 16
    4e04: 97 00 00 00  	auipc	ra, 0
    4e08: e7 80 00 00  	jalr	ra
    4e0c: 93 85 09 0c  	addi	a1, s3, 192
    4e10: 13 05 14 40  	addi	a0, s0, 1025
    4e14: 13 06 00 02  	li	a2, 32
    4e18: 93 06 00 02  	li	a3, 32
    4e1c: 13 07 00 10  	li	a4, 256
    4e20: 93 07 00 01  	li	a5, 16
    4e24: 97 00 00 00  	auipc	ra, 0
    4e28: e7 80 00 00  	jalr	ra
    4e2c: 93 85 09 0e  	addi	a1, s3, 224
    4e30: 13 05 14 60  	addi	a0, s0, 1537
    4e34: 13 06 00 02  	li	a2, 32
    4e38: 93 06 00 02  	li	a3, 32
    4e3c: 13 07 00 10  	li	a4, 256
    4e40: 93 07 00 01  	li	a5, 16
    4e44: 97 00 00 00  	auipc	ra, 0
    4e48: e7 80 00 00  	jalr	ra

00004e4c <.LBB0_237>:
    4e4c: 97 00 00 00  	auipc	ra, 0
    4e50: e7 80 00 00  	jalr	ra
    4e54: 93 06 10 00  	li	a3, 1
    4e58: 13 85 09 00  	mv	a0, s3
    4e5c: 93 85 09 00  	mv	a1, s3
    4e60: 13 06 09 00  	mv	a2, s2
    4e64: 97 00 00 00  	auipc	ra, 0
    4e68: e7 80 00 00  	jalr	ra
    4e6c: 63 00 0d 00  	beqz	s10, 0x4e6c <.LBB0_237+0x20>
    4e70: 73 d0 00 3c  	csrwi	pmpaddr16, 1
    4e74: 73 d0 10 3c  	csrwi	pmpaddr17, 1
    4e78: 73 d0 20 3c  	csrwi	pmpaddr18, 1
    4e7c: 73 d0 30 3c  	csrwi	pmpaddr19, 1
    4e80: 73 50 48 3c  	csrwi	pmpaddr20, 16
    4e84: 73 d0 50 3c  	csrwi	pmpaddr21, 1
    4e88: 73 d0 60 3c  	csrwi	pmpaddr22, 1
    4e8c: 73 50 78 3c  	csrwi	pmpaddr23, 16
    4e90: 73 d0 80 3c  	csrwi	pmpaddr24, 1
    4e94: 73 d0 90 3c  	csrwi	pmpaddr25, 1
    4e98: 73 50 a8 3c  	csrwi	pmpaddr26, 16
    4e9c: 73 d0 b0 3c  	csrwi	pmpaddr27, 1
    4ea0: 73 d0 c0 3c  	csrwi	pmpaddr28, 1
    4ea4: 73 50 d8 3c  	csrwi	pmpaddr29, 16
    4ea8: 73 d0 e0 3c  	csrwi	pmpaddr30, 1
    4eac: 73 50 f0 3c  	csrwi	pmpaddr31, 0
    4eb0: 73 50 00 3d  	csrwi	pmpaddr32, 0
    4eb4: 73 50 10 3d  	csrwi	pmpaddr33, 0
    4eb8: 73 50 20 3d  	csrwi	pmpaddr34, 0
    4ebc: 73 50 30 3d  	csrwi	pmpaddr35, 0
    4ec0: 73 50 40 3d  	csrwi	pmpaddr36, 0
    4ec4: 73 50 50 3d  	csrwi	pmpaddr37, 0
    4ec8: 73 50 60 3d  	csrwi	pmpaddr38, 0
    4ecc: 73 50 70 3d  	csrwi	pmpaddr39, 0
    4ed0: 73 50 80 3d  	csrwi	pmpaddr40, 0
    4ed4: 73 50 90 3d  	csrwi	pmpaddr41, 0
    4ed8: 73 50 a0 3d  	csrwi	pmpaddr42, 0
    4edc: 73 50 b0 3d  	csrwi	pmpaddr43, 0
    4ee0: 13 05 00 10  	li	a0, 256
    4ee4: 73 10 c5 3d  	csrw	pmpaddr44, a0
    4ee8: b7 15 00 00  	lui	a1, 1
    4eec: 73 90 d5 3d  	csrw	pmpaddr45, a1
    4ef0: 73 50 e0 3d  	csrwi	pmpaddr46, 0
    4ef4: 73 10 f5 3d  	csrw	pmpaddr47, a0
    4ef8: 73 90 05 3e  	csrw	pmpaddr48, a1
    4efc: 73 50 10 3e  	csrwi	pmpaddr49, 0
    4f00: 73 50 20 3e  	csrwi	pmpaddr50, 0
    4f04: 73 50 30 3e  	csrwi	pmpaddr51, 0
    4f08: 73 d0 40 3e  	csrwi	pmpaddr52, 1
    4f0c: 73 50 54 3e  	csrwi	pmpaddr53, 8
    4f10: 73 d0 60 3e  	csrwi	pmpaddr54, 1
    4f14: 73 50 74 3e  	csrwi	pmpaddr55, 8
    4f18: 73 d0 80 3e  	csrwi	pmpaddr56, 1
    4f1c: 73 50 94 3e  	csrwi	pmpaddr57, 8
    4f20: 73 50 a2 3e  	csrwi	pmpaddr58, 4
    4f24: 13 05 00 02  	li	a0, 32
    4f28: 73 10 b5 3e  	csrw	pmpaddr59, a0
    4f2c: 73 50 c0 3e  	csrwi	pmpaddr60, 0
    4f30: 73 50 d0 3e  	csrwi	pmpaddr61, 0
    4f34: 37 05 00 10  	lui	a0, 65536
    4f38: 93 05 05 08  	addi	a1, a0, 128
    4f3c: 73 90 e5 3e  	csrw	pmpaddr62, a1
    4f40: 13 05 05 04  	addi	a0, a0, 64
    4f44: 73 10 f5 3e  	csrw	pmpaddr63, a0
    4f48: 73 10 09 3f  	csrw	1008, s2
    4f4c: 73 90 19 3f  	csrw	1009, s3
    4f50: 73 90 29 3f  	csrw	1010, s3
    4f54: 73 50 30 3f  	csrwi	1011, 0
    4f58: 73 d0 70 3f  	csrwi	1015, 1
    4f5c: 73 50 88 3f  	csrwi	1016, 16
    4f60: 73 d0 90 3f  	csrwi	1017, 1
    4f64: 73 50 a0 3f  	csrwi	1018, 0
    4f68: 37 85 24 7f  	lui	a0, 520776
    4f6c: 73 10 b5 3f  	csrw	1019, a0
    4f70: 13 05 00 18  	li	a0, 384
    4f74: 73 10 c5 3f  	csrw	1020, a0
    4f78: 37 95 6b 4e  	lui	a0, 321209
    4f7c: 13 05 05 a8  	addi	a0, a0, -1408
    4f80: 73 10 d5 3f  	csrw	1021, a0
    4f84: 73 50 e8 3f  	csrwi	1022, 16
    4f88: 73 50 f0 3f  	csrwi	1023, 0
    4f8c: 73 d0 40 3f  	csrwi	1012, 1
    4f90: 73 d0 00 40  	csrwi	1024, 1
    4f94: 73 50 40 3f  	csrwi	1012, 0
    4f98: 73 50 40 3f  	csrwi	1012, 0
    4f9c: 73 50 00 40  	csrwi	1024, 0
    4fa0: 73 50 00 40  	csrwi	1024, 0

00004fa4 <.LBB0_239>:
    4fa4: 93 06 20 00  	li	a3, 2
    4fa8: 13 85 09 00  	mv	a0, s3
    4fac: 93 85 09 00  	mv	a1, s3
    4fb0: 13 06 09 00  	mv	a2, s2
    4fb4: 97 00 00 00  	auipc	ra, 0
    4fb8: e7 80 00 00  	jalr	ra
    4fbc: 97 00 00 00  	auipc	ra, 0
    4fc0: e7 80 00 00  	jalr	ra
    4fc4: 63 80 0c 00  	beqz	s9, 0x4fc4 <.LBB0_239+0x20>
    4fc8: 13 06 80 00  	li	a2, 8
    4fcc: 93 06 00 10  	li	a3, 256
    4fd0: 13 07 80 00  	li	a4, 8
    4fd4: 93 07 00 01  	li	a5, 16
    4fd8: 13 05 09 00  	mv	a0, s2
    4fdc: 93 85 04 00  	mv	a1, s1
    4fe0: 97 00 00 00  	auipc	ra, 0
    4fe4: e7 80 00 00  	jalr	ra
    4fe8: 13 05 89 00  	addi	a0, s2, 8
    4fec: 93 85 04 08  	addi	a1, s1, 128
    4ff0: 13 06 80 00  	li	a2, 8
    4ff4: 93 06 00 10  	li	a3, 256
    4ff8: 13 07 80 00  	li	a4, 8
    4ffc: 93 07 00 01  	li	a5, 16
    5000: 97 00 00 00  	auipc	ra, 0
    5004: e7 80 00 00  	jalr	ra
    5008: 13 05 09 01  	addi	a0, s2, 16
    500c: 93 85 04 10  	addi	a1, s1, 256
    5010: 13 06 80 00  	li	a2, 8
    5014: 93 06 00 10  	li	a3, 256
    5018: 13 07 80 00  	li	a4, 8
    501c: 93 07 00 01  	li	a5, 16
    5020: 97 00 00 00  	auipc	ra, 0
    5024: e7 80 00 00  	jalr	ra
    5028: 13 05 89 01  	addi	a0, s2, 24
    502c: 93 85 04 18  	addi	a1, s1, 384
    5030: 13 06 80 00  	li	a2, 8
    5034: 93 06 00 10  	li	a3, 256
    5038: 13 07 80 00  	li	a4, 8
    503c: 93 07 00 01  	li	a5, 16
    5040: 97 00 00 00  	auipc	ra, 0
    5044: e7 80 00 00  	jalr	ra
    5048: 13 05 09 02  	addi	a0, s2, 32
    504c: 93 85 04 20  	addi	a1, s1, 512
    5050: 13 06 80 00  	li	a2, 8
    5054: 93 06 00 10  	li	a3, 256
    5058: 13 07 80 00  	li	a4, 8
    505c: 93 07 00 01  	li	a5, 16
    5060: 97 00 00 00  	auipc	ra, 0
    5064: e7 80 00 00  	jalr	ra
    5068: 13 05 89 02  	addi	a0, s2, 40
    506c: 93 85 04 28  	addi	a1, s1, 640
    5070: 13 06 80 00  	li	a2, 8
    5074: 93 06 00 10  	li	a3, 256
    5078: 13 07 80 00  	li	a4, 8
    507c: 93 07 00 01  	li	a5, 16
    5080: 97 00 00 00  	auipc	ra, 0
    5084: e7 80 00 00  	jalr	ra
    5088: 13 05 09 03  	addi	a0, s2, 48
    508c: 93 85 04 30  	addi	a1, s1, 768
    5090: 13 06 80 00  	li	a2, 8
    5094: 93 06 00 10  	li	a3, 256
    5098: 13 07 80 00  	li	a4, 8
    509c: 93 07 00 01  	li	a5, 16
    50a0: 97 00 00 00  	auipc	ra, 0
    50a4: e7 80 00 00  	jalr	ra
    50a8: 13 05 89 03  	addi	a0, s2, 56
    50ac: 93 85 04 38  	addi	a1, s1, 896
    50b0: 13 06 80 00  	li	a2, 8
    50b4: 93 06 00 10  	li	a3, 256
    50b8: 13 07 80 00  	li	a4, 8
    50bc: 93 07 00 01  	li	a5, 16
    50c0: 97 00 00 00  	auipc	ra, 0
    50c4: e7 80 00 00  	jalr	ra

000050c8 <.LBB0_241>:
    50c8: 97 00 00 00  	auipc	ra, 0
    50cc: e7 80 00 00  	jalr	ra

000050d0 <.Lpcrel_hi113>:
    50d0: 17 05 00 00  	auipc	a0, 0
    50d4: 13 05 05 00  	mv	a0, a0

000050d8 <.Lpcrel_hi114>:
    50d8: 97 05 00 00  	auipc	a1, 0
    50dc: 93 8a 05 00  	mv	s5, a1
    50e0: 93 06 30 00  	li	a3, 3
    50e4: 93 05 05 00  	mv	a1, a0
    50e8: 13 86 0a 00  	mv	a2, s5
    50ec: 97 00 00 00  	auipc	ra, 0
    50f0: e7 80 00 00  	jalr	ra
    50f4: 97 00 00 00  	auipc	ra, 0
    50f8: e7 80 00 00  	jalr	ra

000050fc <.Lpcrel_hi115>:
    50fc: 17 05 00 00  	auipc	a0, 0
    5100: 13 0b 05 00  	mv	s6, a0

00005104 <.Lpcrel_hi116>:
    5104: 17 05 00 00  	auipc	a0, 0
    5108: 13 04 05 00  	mv	s0, a0
    510c: 13 85 0a 00  	mv	a0, s5
    5110: 93 05 0b 00  	mv	a1, s6
    5114: 13 06 04 00  	mv	a2, s0
    5118: 93 06 00 00  	li	a3, 0
    511c: 97 00 00 00  	auipc	ra, 0
    5120: e7 80 00 00  	jalr	ra
    5124: b7 1d 00 00  	lui	s11, 1
    5128: 13 85 0d f4  	addi	a0, s11, -192
    512c: 93 05 00 04  	li	a1, 64
    5130: 97 00 00 00  	auipc	ra, 0
    5134: e7 80 00 00  	jalr	ra
    5138: 83 29 45 00  	lw	s3, 4(a0)
    513c: 37 05 01 00  	lui	a0, 16
    5140: 13 05 05 f4  	addi	a0, a0, -192
    5144: 93 05 00 04  	li	a1, 64
    5148: 97 00 00 00  	auipc	ra, 0
    514c: e7 80 00 00  	jalr	ra
    5150: 03 2a 45 00  	lw	s4, 4(a0)
    5154: 37 15 00 00  	lui	a0, 1
    5158: 93 05 00 04  	li	a1, 64
    515c: 97 00 00 00  	auipc	ra, 0
    5160: e7 80 00 00  	jalr	ra
    5164: 03 29 45 00  	lw	s2, 4(a0)
    5168: 63 80 0c 00  	beqz	s9, 0x5168 <.Lpcrel_hi116+0x64>
    516c: 23 26 81 00  	sw	s0, 12(sp)
    5170: 13 04 00 00  	li	s0, 0
    5174: 13 0d 00 40  	li	s10, 1024
    5178: 93 0c 00 01  	li	s9, 16
    517c: 23 24 41 01  	sw	s4, 8(sp)

00005180 <.LBB0_243>:
    5180: 93 04 00 00  	li	s1, 0
    5184: 93 0b 0a 00  	mv	s7, s4

00005188 <.LBB0_244>:
    5188: 33 0c 9b 00  	add	s8, s6, s1
    518c: 13 06 10 00  	li	a2, 1
    5190: 93 06 00 40  	li	a3, 1024
    5194: 13 07 00 10  	li	a4, 256
    5198: 93 07 00 01  	li	a5, 16
    519c: 13 05 0c 00  	mv	a0, s8
    51a0: 93 85 0b 00  	mv	a1, s7
    51a4: 97 00 00 00  	auipc	ra, 0
    51a8: e7 80 00 00  	jalr	ra
    51ac: 13 05 1c 00  	addi	a0, s8, 1
    51b0: 93 85 8b 00  	addi	a1, s7, 8
    51b4: 13 06 10 00  	li	a2, 1
    51b8: 93 06 00 40  	li	a3, 1024
    51bc: 13 07 00 10  	li	a4, 256
    51c0: 93 07 00 01  	li	a5, 16
    51c4: 97 00 00 00  	auipc	ra, 0
    51c8: e7 80 00 00  	jalr	ra
    51cc: 13 05 2c 00  	addi	a0, s8, 2
    51d0: 93 85 0b 01  	addi	a1, s7, 16
    51d4: 13 06 10 00  	li	a2, 1
    51d8: 93 06 00 40  	li	a3, 1024
    51dc: 13 07 00 10  	li	a4, 256
    51e0: 93 07 00 01  	li	a5, 16
    51e4: 97 00 00 00  	auipc	ra, 0
    51e8: e7 80 00 00  	jalr	ra
    51ec: 13 05 3c 00  	addi	a0, s8, 3
    51f0: 93 85 8b 01  	addi	a1, s7, 24
    51f4: 13 06 10 00  	li	a2, 1
    51f8: 93 06 00 40  	li	a3, 1024
    51fc: 13 07 00 10  	li	a4, 256
    5200: 93 07 00 01  	li	a5, 16
    5204: 97 00 00 00  	auipc	ra, 0
    5208: e7 80 00 00  	jalr	ra
    520c: 13 05 4c 00  	addi	a0, s8, 4
    5210: 93 85 0b 02  	addi	a1, s7, 32
    5214: 13 06 10 00  	li	a2, 1
    5218: 93 06 00 40  	li	a3, 1024
    521c: 13 07 00 10  	li	a4, 256
    5220: 93 07 00 01  	li	a5, 16
    5224: 97 00 00 00  	auipc	ra, 0
    5228: e7 80 00 00  	jalr	ra
    522c: 13 05 5c 00  	addi	a0, s8, 5
    5230: 93 85 8b 02  	addi	a1, s7, 40
    5234: 13 06 10 00  	li	a2, 1
    5238: 93 06 00 40  	li	a3, 1024
    523c: 13 07 00 10  	li	a4, 256
    5240: 93 07 00 01  	li	a5, 16
    5244: 97 00 00 00  	auipc	ra, 0
    5248: e7 80 00 00  	jalr	ra
    524c: 13 05 6c 00  	addi	a0, s8, 6
    5250: 93 85 0b 03  	addi	a1, s7, 48
    5254: 13 06 10 00  	li	a2, 1
    5258: 93 06 00 40  	li	a3, 1024
    525c: 13 07 00 10  	li	a4, 256
    5260: 93 07 00 01  	li	a5, 16
    5264: 97 00 00 00  	auipc	ra, 0
    5268: e7 80 00 00  	jalr	ra
    526c: 13 05 7c 00  	addi	a0, s8, 7
    5270: 93 85 8b 03  	addi	a1, s7, 56
    5274: 13 06 10 00  	li	a2, 1
    5278: 93 06 00 40  	li	a3, 1024
    527c: 13 07 00 10  	li	a4, 256
    5280: 93 07 00 01  	li	a5, 16
    5284: 97 00 00 00  	auipc	ra, 0
    5288: e7 80 00 00  	jalr	ra
    528c: 93 84 04 08  	addi	s1, s1, 128
    5290: 93 8b 1b 00  	addi	s7, s7, 1
    5294: 63 90 a4 01  	bne	s1, s10, 0x5294 <.LBB0_244+0x10c>
    5298: 13 04 14 00  	addi	s0, s0, 1
    529c: 13 0b 8b 00  	addi	s6, s6, 8
    52a0: 33 0a ba 01  	add	s4, s4, s11
    52a4: 63 10 94 01  	bne	s0, s9, 0x52a4 <.LBB0_244+0x11c>
    52a8: 13 06 80 00  	li	a2, 8
    52ac: 93 06 80 00  	li	a3, 8
    52b0: 13 07 00 10  	li	a4, 256
    52b4: 93 07 00 01  	li	a5, 16
    52b8: 13 85 0a 00  	mv	a0, s5
    52bc: 93 85 09 00  	mv	a1, s3
    52c0: 97 00 00 00  	auipc	ra, 0
    52c4: e7 80 00 00  	jalr	ra
    52c8: 93 85 89 00  	addi	a1, s3, 8
    52cc: 13 85 0a 08  	addi	a0, s5, 128
    52d0: 13 06 80 00  	li	a2, 8
    52d4: 93 06 80 00  	li	a3, 8
    52d8: 13 07 00 10  	li	a4, 256
    52dc: 93 07 00 01  	li	a5, 16
    52e0: 97 00 00 00  	auipc	ra, 0
    52e4: e7 80 00 00  	jalr	ra
    52e8: 93 85 09 01  	addi	a1, s3, 16
    52ec: 13 85 0a 10  	addi	a0, s5, 256
    52f0: 13 06 80 00  	li	a2, 8
    52f4: 93 06 80 00  	li	a3, 8
    52f8: 13 07 00 10  	li	a4, 256
    52fc: 93 07 00 01  	li	a5, 16
    5300: 97 00 00 00  	auipc	ra, 0
    5304: e7 80 00 00  	jalr	ra
    5308: 93 85 89 01  	addi	a1, s3, 24
    530c: 13 85 0a 18  	addi	a0, s5, 384
    5310: 13 06 80 00  	li	a2, 8
    5314: 93 06 80 00  	li	a3, 8
    5318: 13 07 00 10  	li	a4, 256
    531c: 93 07 00 01  	li	a5, 16
    5320: 97 00 00 00  	auipc	ra, 0
    5324: e7 80 00 00  	jalr	ra
    5328: 93 85 09 02  	addi	a1, s3, 32
    532c: 13 85 0a 20  	addi	a0, s5, 512
    5330: 13 06 80 00  	li	a2, 8
    5334: 93 06 80 00  	li	a3, 8
    5338: 13 07 00 10  	li	a4, 256
    533c: 93 07 00 01  	li	a5, 16
    5340: 97 00 00 00  	auipc	ra, 0
    5344: e7 80 00 00  	jalr	ra
    5348: 93 85 89 02  	addi	a1, s3, 40
    534c: 13 85 0a 28  	addi	a0, s5, 640
    5350: 13 06 80 00  	li	a2, 8
    5354: 93 06 80 00  	li	a3, 8
    5358: 13 07 00 10  	li	a4, 256
    535c: 93 07 00 01  	li	a5, 16
    5360: 97 00 00 00  	auipc	ra, 0
    5364: e7 80 00 00  	jalr	ra
    5368: 93 85 09 03  	addi	a1, s3, 48
    536c: 13 85 0a 30  	addi	a0, s5, 768
    5370: 13 06 80 00  	li	a2, 8
    5374: 93 06 80 00  	li	a3, 8
    5378: 13 07 00 10  	li	a4, 256
    537c: 93 07 00 01  	li	a5, 16
    5380: 97 00 00 00  	auipc	ra, 0
    5384: e7 80 00 00  	jalr	ra
    5388: 93 85 89 03  	addi	a1, s3, 56
    538c: 13 85 0a 38  	addi	a0, s5, 896
    5390: 13 06 80 00  	li	a2, 8
    5394: 93 06 80 00  	li	a3, 8
    5398: 13 07 00 10  	li	a4, 256
    539c: 93 07 00 01  	li	a5, 16
    53a0: 97 00 00 00  	auipc	ra, 0
    53a4: e7 80 00 00  	jalr	ra
    53a8: 83 2c 81 01  	lw	s9, 24(sp)
    53ac: 03 2d 41 01  	lw	s10, 20(sp)
    53b0: 03 24 c1 00  	lw	s0, 12(sp)
    53b4: 03 2a 81 00  	lw	s4, 8(sp)

000053b8 <.LBB0_247>:
    53b8: 97 00 00 00  	auipc	ra, 0
    53bc: e7 80 00 00  	jalr	ra
    53c0: 93 06 10 00  	li	a3, 1
    53c4: 13 85 09 00  	mv	a0, s3
    53c8: 93 05 0a 00  	mv	a1, s4
    53cc: 13 06 09 00  	mv	a2, s2
    53d0: 97 00 00 00  	auipc	ra, 0
    53d4: e7 80 00 00  	jalr	ra
    53d8: 63 00 0d 00  	beqz	s10, 0x53d8 <.LBB0_247+0x20>
    53dc: 73 d0 00 3c  	csrwi	pmpaddr16, 1
    53e0: 73 d0 10 3c  	csrwi	pmpaddr17, 1
    53e4: 73 d0 20 3c  	csrwi	pmpaddr18, 1
    53e8: 73 50 38 3c  	csrwi	pmpaddr19, 16
    53ec: 73 50 48 3c  	csrwi	pmpaddr20, 16
    53f0: 73 d0 50 3c  	csrwi	pmpaddr21, 1
    53f4: 73 50 68 3c  	csrwi	pmpaddr22, 16
    53f8: 73 50 78 3c  	csrwi	pmpaddr23, 16
    53fc: 73 d0 80 3c  	csrwi	pmpaddr24, 1
    5400: 73 50 90 3c  	csrwi	pmpaddr25, 0
    5404: 73 50 a0 3c  	csrwi	pmpaddr26, 0
    5408: 73 50 b0 3c  	csrwi	pmpaddr27, 0
    540c: 73 d0 c0 3c  	csrwi	pmpaddr28, 1
    5410: 73 50 d8 3c  	csrwi	pmpaddr29, 16
    5414: 73 d0 e0 3c  	csrwi	pmpaddr30, 1
    5418: 73 d0 f0 3c  	csrwi	pmpaddr31, 1
    541c: 73 50 08 3d  	csrwi	pmpaddr32, 16
    5420: 73 d0 10 3d  	csrwi	pmpaddr33, 1
    5424: 73 50 20 3d  	csrwi	pmpaddr34, 0
    5428: 73 50 30 3d  	csrwi	pmpaddr35, 0
    542c: 73 50 40 3d  	csrwi	pmpaddr36, 0
    5430: 13 05 00 10  	li	a0, 256
    5434: 73 10 55 3d  	csrw	pmpaddr37, a0
    5438: 73 50 60 3d  	csrwi	pmpaddr38, 0
    543c: b7 15 00 00  	lui	a1, 1
    5440: 73 90 75 3d  	csrw	pmpaddr39, a1
    5444: 73 10 85 3d  	csrw	pmpaddr40, a0
    5448: 73 90 95 3d  	csrw	pmpaddr41, a1
    544c: 73 50 a0 3d  	csrwi	pmpaddr42, 0
    5450: 73 50 b0 3d  	csrwi	pmpaddr43, 0
    5454: 73 50 c0 3d  	csrwi	pmpaddr44, 0
    5458: 73 50 d0 3d  	csrwi	pmpaddr45, 0
    545c: 73 50 e0 3d  	csrwi	pmpaddr46, 0
    5460: 73 10 f5 3d  	csrw	pmpaddr47, a0
    5464: 73 90 05 3e  	csrw	pmpaddr48, a1
    5468: 73 50 10 3e  	csrwi	pmpaddr49, 0
    546c: 73 10 25 3e  	csrw	pmpaddr50, a0
    5470: 73 90 35 3e  	csrw	pmpaddr51, a1
    5474: 73 d0 40 3e  	csrwi	pmpaddr52, 1
    5478: 73 50 54 3e  	csrwi	pmpaddr53, 8
    547c: 73 d0 60 3e  	csrwi	pmpaddr54, 1
    5480: 73 50 74 3e  	csrwi	pmpaddr55, 8
    5484: 73 50 80 3e  	csrwi	pmpaddr56, 0
    5488: 73 50 90 3e  	csrwi	pmpaddr57, 0
    548c: 73 50 a2 3e  	csrwi	pmpaddr58, 4
    5490: 13 05 00 02  	li	a0, 32
    5494: 73 10 b5 3e  	csrw	pmpaddr59, a0
    5498: 73 50 c2 3e  	csrwi	pmpaddr60, 4
    549c: 73 10 d5 3e  	csrw	pmpaddr61, a0
    54a0: 73 90 e9 3e  	csrw	pmpaddr62, s3
    54a4: 73 10 fa 3e  	csrw	pmpaddr63, s4
    54a8: 73 10 0a 3f  	csrw	1008, s4
    54ac: 73 10 19 3f  	csrw	1009, s2
    54b0: 73 10 29 3f  	csrw	1010, s2
    54b4: 73 50 30 3f  	csrwi	1011, 0
    54b8: 73 50 78 3f  	csrwi	1015, 16
    54bc: 73 50 88 3f  	csrwi	1016, 16
    54c0: 73 d0 90 3f  	csrwi	1017, 1
    54c4: 13 05 00 08  	li	a0, 128
    54c8: 73 10 a5 3f  	csrw	1018, a0
    54cc: 73 50 b0 3f  	csrwi	1019, 0
    54d0: 73 50 c0 3f  	csrwi	1020, 0
    54d4: 73 50 d0 3f  	csrwi	1021, 0
    54d8: 73 50 e0 3f  	csrwi	1022, 0
    54dc: 73 d0 f0 3f  	csrwi	1023, 1
    54e0: 73 d0 40 3f  	csrwi	1012, 1
    54e4: 73 d0 00 40  	csrwi	1024, 1
    54e8: 73 50 40 3f  	csrwi	1012, 0
    54ec: 73 50 40 3f  	csrwi	1012, 0
    54f0: 73 50 00 40  	csrwi	1024, 0
    54f4: 73 50 00 40  	csrwi	1024, 0

000054f8 <.LBB0_249>:
    54f8: 93 06 20 00  	li	a3, 2
    54fc: 13 85 09 00  	mv	a0, s3
    5500: 93 05 0a 00  	mv	a1, s4
    5504: 13 06 09 00  	mv	a2, s2
    5508: 97 00 00 00  	auipc	ra, 0
    550c: e7 80 00 00  	jalr	ra
    5510: 97 00 00 00  	auipc	ra, 0
    5514: e7 80 00 00  	jalr	ra
    5518: 63 80 0c 00  	beqz	s9, 0x5518 <.LBB0_249+0x20>
    551c: 13 06 00 02  	li	a2, 32
    5520: 93 06 00 10  	li	a3, 256
    5524: 13 07 00 02  	li	a4, 32
    5528: 93 07 00 01  	li	a5, 16
    552c: 13 05 09 00  	mv	a0, s2
    5530: 93 05 04 00  	mv	a1, s0
    5534: 97 00 00 00  	auipc	ra, 0
    5538: e7 80 00 00  	jalr	ra
    553c: 13 05 09 02  	addi	a0, s2, 32
    5540: 93 05 04 20  	addi	a1, s0, 512
    5544: 13 06 00 02  	li	a2, 32
    5548: 93 06 00 10  	li	a3, 256
    554c: 13 07 00 02  	li	a4, 32
    5550: 93 07 00 01  	li	a5, 16
    5554: 97 00 00 00  	auipc	ra, 0
    5558: e7 80 00 00  	jalr	ra
    555c: 13 05 09 04  	addi	a0, s2, 64
    5560: 93 05 04 40  	addi	a1, s0, 1024
    5564: 13 06 00 02  	li	a2, 32
    5568: 93 06 00 10  	li	a3, 256
    556c: 13 07 00 02  	li	a4, 32
    5570: 93 07 00 01  	li	a5, 16
    5574: 97 00 00 00  	auipc	ra, 0
    5578: e7 80 00 00  	jalr	ra
    557c: 13 05 09 06  	addi	a0, s2, 96
    5580: 93 05 04 60  	addi	a1, s0, 1536
    5584: 13 06 00 02  	li	a2, 32
    5588: 93 06 00 10  	li	a3, 256
    558c: 13 07 00 02  	li	a4, 32
    5590: 93 07 00 01  	li	a5, 16
    5594: 97 00 00 00  	auipc	ra, 0
    5598: e7 80 00 00  	jalr	ra
    559c: 13 05 09 08  	addi	a0, s2, 128
    55a0: 13 04 f4 7f  	addi	s0, s0, 2047
    55a4: 93 05 14 00  	addi	a1, s0, 1
    55a8: 13 06 00 02  	li	a2, 32
    55ac: 93 06 00 10  	li	a3, 256
    55b0: 13 07 00 02  	li	a4, 32
    55b4: 93 07 00 01  	li	a5, 16
    55b8: 97 00 00 00  	auipc	ra, 0
    55bc: e7 80 00 00  	jalr	ra
    55c0: 13 05 09 0a  	addi	a0, s2, 160
    55c4: 93 05 14 20  	addi	a1, s0, 513
    55c8: 13 06 00 02  	li	a2, 32
    55cc: 93 06 00 10  	li	a3, 256
    55d0: 13 07 00 02  	li	a4, 32
    55d4: 93 07 00 01  	li	a5, 16
    55d8: 97 00 00 00  	auipc	ra, 0
    55dc: e7 80 00 00  	jalr	ra
    55e0: 13 05 09 0c  	addi	a0, s2, 192
    55e4: 93 05 14 40  	addi	a1, s0, 1025
    55e8: 13 06 00 02  	li	a2, 32
    55ec: 93 06 00 10  	li	a3, 256
    55f0: 13 07 00 02  	li	a4, 32
    55f4: 93 07 00 01  	li	a5, 16
    55f8: 97 00 00 00  	auipc	ra, 0
    55fc: e7 80 00 00  	jalr	ra
    5600: 13 05 09 0e  	addi	a0, s2, 224
    5604: 93 05 14 60  	addi	a1, s0, 1537
    5608: 13 06 00 02  	li	a2, 32
    560c: 93 06 00 10  	li	a3, 256
    5610: 13 07 00 02  	li	a4, 32
    5614: 93 07 00 01  	li	a5, 16
    5618: 97 00 00 00  	auipc	ra, 0
    561c: e7 80 00 00  	jalr	ra

00005620 <.LBB0_251>:
    5620: 97 00 00 00  	auipc	ra, 0
    5624: e7 80 00 00  	jalr	ra

00005628 <.Lpcrel_hi117>:
    5628: 17 05 00 00  	auipc	a0, 0
    562c: 13 05 05 00  	mv	a0, a0

00005630 <.Lpcrel_hi118>:
    5630: 97 05 00 00  	auipc	a1, 0
    5634: 93 85 05 00  	mv	a1, a1

00005638 <.Lpcrel_hi119>:
    5638: 17 06 00 00  	auipc	a2, 0
    563c: 93 04 06 00  	mv	s1, a2
    5640: 93 06 30 00  	li	a3, 3
    5644: 13 86 04 00  	mv	a2, s1
    5648: 97 00 00 00  	auipc	ra, 0
    564c: e7 80 00 00  	jalr	ra
    5650: 97 00 00 00  	auipc	ra, 0
    5654: e7 80 00 00  	jalr	ra

00005658 <.Lpcrel_hi120>:
    5658: 17 05 00 00  	auipc	a0, 0
    565c: 13 05 05 00  	mv	a0, a0

00005660 <.Lpcrel_hi121>:
    5660: 97 05 00 00  	auipc	a1, 0
    5664: 13 86 05 00  	mv	a2, a1
    5668: 93 85 04 00  	mv	a1, s1
    566c: 93 06 00 00  	li	a3, 0
    5670: 97 00 00 00  	auipc	ra, 0
    5674: e7 80 00 00  	jalr	ra
    5678: 13 05 00 20  	li	a0, 512
    567c: 93 05 00 04  	li	a1, 64
    5680: 97 00 00 00  	auipc	ra, 0
    5684: e7 80 00 00  	jalr	ra
    5688: 83 24 45 00  	lw	s1, 4(a0)
    568c: 37 15 00 00  	lui	a0, 1
    5690: 93 05 00 04  	li	a1, 64
    5694: 97 00 00 00  	auipc	ra, 0
    5698: e7 80 00 00  	jalr	ra
    569c: 83 29 45 00  	lw	s3, 4(a0)
    56a0: 37 15 00 00  	lui	a0, 1
    56a4: 93 05 00 04  	li	a1, 64
    56a8: 97 00 00 00  	auipc	ra, 0
    56ac: e7 80 00 00  	jalr	ra
    56b0: 03 29 45 00  	lw	s2, 4(a0)
    56b4: 63 80 0c 00  	beqz	s9, 0x56b4 <.Lpcrel_hi121+0x54>

000056b8 <.Lpcrel_hi122>:
    56b8: 17 05 00 00  	auipc	a0, 0
    56bc: 13 05 05 00  	mv	a0, a0
    56c0: 37 16 00 00  	lui	a2, 1
    56c4: 93 85 09 00  	mv	a1, s3
    56c8: 97 00 00 00  	auipc	ra, 0
    56cc: e7 80 00 00  	jalr	ra

000056d0 <.Lpcrel_hi123>:
    56d0: 17 05 00 00  	auipc	a0, 0
    56d4: 13 05 05 00  	mv	a0, a0
    56d8: 13 06 00 20  	li	a2, 512
    56dc: 93 85 04 00  	mv	a1, s1
    56e0: 97 00 00 00  	auipc	ra, 0
    56e4: e7 80 00 00  	jalr	ra

000056e8 <.LBB0_253>:
    56e8: 97 00 00 00  	auipc	ra, 0
    56ec: e7 80 00 00  	jalr	ra
    56f0: 93 06 10 00  	li	a3, 1
    56f4: 13 85 04 00  	mv	a0, s1
    56f8: 93 85 09 00  	mv	a1, s3
    56fc: 13 06 09 00  	mv	a2, s2
    5700: 97 00 00 00  	auipc	ra, 0
    5704: e7 80 00 00  	jalr	ra
    5708: 63 00 0d 00  	beqz	s10, 0x5708 <.LBB0_253+0x20>
    570c: 13 05 10 00  	li	a0, 1
    5710: 93 15 b5 00  	slli	a1, a0, 11
    5714: 33 85 b9 00  	add	a0, s3, a1
    5718: b3 05 b9 00  	add	a1, s2, a1
    571c: 13 06 00 08  	li	a2, 128
    5720: 93 86 04 00  	mv	a3, s1
    5724: 13 07 09 00  	mv	a4, s2
    5728: 93 87 09 00  	mv	a5, s3

0000572c <.LBB0_255>:
    572c: 03 a8 06 00  	lw	a6, 0(a3)
    5730: 83 a8 07 00  	lw	a7, 0(a5)
    5734: 33 88 08 01  	add	a6, a7, a6
    5738: 23 20 07 01  	sw	a6, 0(a4)
    573c: 93 87 47 00  	addi	a5, a5, 4
    5740: 13 07 47 00  	addi	a4, a4, 4
    5744: 13 06 f6 ff  	addi	a2, a2, -1
    5748: 93 86 46 00  	addi	a3, a3, 4
    574c: 63 10 06 00  	bnez	a2, 0x574c <.LBB0_255+0x20>
    5750: 13 06 09 20  	addi	a2, s2, 512
    5754: 93 86 09 20  	addi	a3, s3, 512
    5758: 13 07 00 08  	li	a4, 128
    575c: 93 87 04 00  	mv	a5, s1

00005760 <.LBB0_257>:
    5760: 03 a8 07 00  	lw	a6, 0(a5)
    5764: 83 a8 06 00  	lw	a7, 0(a3)
    5768: 33 88 08 01  	add	a6, a7, a6
    576c: 23 20 06 01  	sw	a6, 0(a2)
    5770: 13 07 f7 ff  	addi	a4, a4, -1
    5774: 13 06 46 00  	addi	a2, a2, 4
    5778: 93 86 46 00  	addi	a3, a3, 4
    577c: 93 87 47 00  	addi	a5, a5, 4
    5780: 63 10 07 00  	bnez	a4, 0x5780 <.LBB0_257+0x20>
    5784: 13 06 09 40  	addi	a2, s2, 1024
    5788: 93 86 09 40  	addi	a3, s3, 1024
    578c: 13 07 00 08  	li	a4, 128
    5790: 93 87 04 00  	mv	a5, s1

00005794 <.LBB0_259>:
    5794: 03 a8 07 00  	lw	a6, 0(a5)
    5798: 83 a8 06 00  	lw	a7, 0(a3)
    579c: 33 88 08 01  	add	a6, a7, a6
    57a0: 23 20 06 01  	sw	a6, 0(a2)
    57a4: 13 07 f7 ff  	addi	a4, a4, -1
    57a8: 13 06 46 00  	addi	a2, a2, 4
    57ac: 93 86 46 00  	addi	a3, a3, 4
    57b0: 93 87 47 00  	addi	a5, a5, 4
    57b4: 63 10 07 00  	bnez	a4, 0x57b4 <.LBB0_259+0x20>
    57b8: 13 06 09 60  	addi	a2, s2, 1536
    57bc: 93 86 09 60  	addi	a3, s3, 1536
    57c0: 13 07 00 08  	li	a4, 128
    57c4: 93 87 04 00  	mv	a5, s1

000057c8 <.LBB0_261>:
    57c8: 03 a8 07 00  	lw	a6, 0(a5)
    57cc: 83 a8 06 00  	lw	a7, 0(a3)
    57d0: 33 88 08 01  	add	a6, a7, a6
    57d4: 23 20 06 01  	sw	a6, 0(a2)
    57d8: 13 07 f7 ff  	addi	a4, a4, -1
    57dc: 13 06 46 00  	addi	a2, a2, 4
    57e0: 93 86 46 00  	addi	a3, a3, 4
    57e4: 93 87 47 00  	addi	a5, a5, 4
    57e8: 63 10 07 00  	bnez	a4, 0x57e8 <.LBB0_261+0x20>
    57ec: 13 06 00 08  	li	a2, 128
    57f0: 93 86 04 00  	mv	a3, s1
    57f4: 13 07 05 00  	mv	a4, a0
    57f8: 93 87 05 00  	mv	a5, a1

000057fc <.LBB0_263>:
    57fc: 03 a8 06 00  	lw	a6, 0(a3)
    5800: 83 28 07 00  	lw	a7, 0(a4)
    5804: 33 88 08 01  	add	a6, a7, a6
    5808: 23 a0 07 01  	sw	a6, 0(a5)
    580c: 13 06 f6 ff  	addi	a2, a2, -1
    5810: 93 87 47 00  	addi	a5, a5, 4
    5814: 13 07 47 00  	addi	a4, a4, 4
    5818: 93 86 46 00  	addi	a3, a3, 4
    581c: 63 10 06 00  	bnez	a2, 0x581c <.LBB0_263+0x20>
    5820: 13 86 05 20  	addi	a2, a1, 512
    5824: 93 06 05 20  	addi	a3, a0, 512
    5828: 13 07 00 08  	li	a4, 128
    582c: 93 87 04 00  	mv	a5, s1

00005830 <.LBB0_265>:
    5830: 03 a8 07 00  	lw	a6, 0(a5)
    5834: 83 a8 06 00  	lw	a7, 0(a3)
    5838: 33 88 08 01  	add	a6, a7, a6
    583c: 23 20 06 01  	sw	a6, 0(a2)
    5840: 13 07 f7 ff  	addi	a4, a4, -1
    5844: 13 06 46 00  	addi	a2, a2, 4
    5848: 93 86 46 00  	addi	a3, a3, 4
    584c: 93 87 47 00  	addi	a5, a5, 4
    5850: 63 10 07 00  	bnez	a4, 0x5850 <.LBB0_265+0x20>
    5854: 13 86 05 40  	addi	a2, a1, 1024
    5858: 93 06 05 40  	addi	a3, a0, 1024
    585c: 13 07 00 08  	li	a4, 128
    5860: 93 87 04 00  	mv	a5, s1

00005864 <.LBB0_267>:
    5864: 03 a8 07 00  	lw	a6, 0(a5)
    5868: 83 a8 06 00  	lw	a7, 0(a3)
    586c: 33 88 08 01  	add	a6, a7, a6
    5870: 23 20 06 01  	sw	a6, 0(a2)
    5874: 13 07 f7 ff  	addi	a4, a4, -1
    5878: 13 06 46 00  	addi	a2, a2, 4
    587c: 93 86 46 00  	addi	a3, a3, 4
    5880: 93 87 47 00  	addi	a5, a5, 4
    5884: 63 10 07 00  	bnez	a4, 0x5884 <.LBB0_267+0x20>
    5888: 93 85 05 60  	addi	a1, a1, 1536
    588c: 13 05 05 60  	addi	a0, a0, 1536
    5890: 13 06 00 08  	li	a2, 128
    5894: 93 86 04 00  	mv	a3, s1

00005898 <.LBB0_269>:
    5898: 03 a7 06 00  	lw	a4, 0(a3)
    589c: 83 27 05 00  	lw	a5, 0(a0)
    58a0: 33 87 e7 00  	add	a4, a5, a4
    58a4: 23 a0 e5 00  	sw	a4, 0(a1)
    58a8: 13 06 f6 ff  	addi	a2, a2, -1
    58ac: 93 85 45 00  	addi	a1, a1, 4
    58b0: 13 05 45 00  	addi	a0, a0, 4
    58b4: 93 86 46 00  	addi	a3, a3, 4
    58b8: 63 10 06 00  	bnez	a2, 0x58b8 <.LBB0_269+0x20>

000058bc <.LBB0_270>:
    58bc: 93 06 20 00  	li	a3, 2
    58c0: 13 85 04 00  	mv	a0, s1
    58c4: 93 85 09 00  	mv	a1, s3
    58c8: 13 06 09 00  	mv	a2, s2
    58cc: 97 00 00 00  	auipc	ra, 0
    58d0: e7 80 00 00  	jalr	ra
    58d4: 97 00 00 00  	auipc	ra, 0
    58d8: e7 80 00 00  	jalr	ra
    58dc: 63 80 0c 00  	beqz	s9, 0x58dc <.LBB0_270+0x20>

000058e0 <.Lpcrel_hi124>:
    58e0: 17 05 00 00  	auipc	a0, 0
    58e4: 93 05 05 00  	mv	a1, a0
    58e8: 37 16 00 00  	lui	a2, 1
    58ec: 13 05 09 00  	mv	a0, s2
    58f0: 97 00 00 00  	auipc	ra, 0
    58f4: e7 80 00 00  	jalr	ra

000058f8 <.LBB0_272>:
    58f8: 97 00 00 00  	auipc	ra, 0
    58fc: e7 80 00 00  	jalr	ra

00005900 <.Lpcrel_hi125>:
    5900: 17 05 00 00  	auipc	a0, 0
    5904: 13 05 05 00  	mv	a0, a0

00005908 <.Lpcrel_hi126>:
    5908: 97 05 00 00  	auipc	a1, 0
    590c: 93 85 05 00  	mv	a1, a1

00005910 <.Lpcrel_hi127>:
    5910: 17 06 00 00  	auipc	a2, 0
    5914: 13 0a 06 00  	mv	s4, a2
    5918: 93 06 30 00  	li	a3, 3
    591c: 13 06 0a 00  	mv	a2, s4
    5920: 97 00 00 00  	auipc	ra, 0
    5924: e7 80 00 00  	jalr	ra
    5928: 97 00 00 00  	auipc	ra, 0
    592c: e7 80 00 00  	jalr	ra

00005930 <.Lpcrel_hi128>:
    5930: 17 05 00 00  	auipc	a0, 0
    5934: 93 04 05 00  	mv	s1, a0
    5938: 13 05 0a 00  	mv	a0, s4
    593c: 93 05 0a 00  	mv	a1, s4
    5940: 13 86 04 00  	mv	a2, s1
    5944: 93 06 00 00  	li	a3, 0
    5948: 97 00 00 00  	auipc	ra, 0
    594c: e7 80 00 00  	jalr	ra
    5950: 37 15 00 00  	lui	a0, 1
    5954: 93 05 00 04  	li	a1, 64
    5958: 37 14 00 00  	lui	s0, 1
    595c: 97 00 00 00  	auipc	ra, 0
    5960: e7 80 00 00  	jalr	ra
    5964: 83 29 45 00  	lw	s3, 4(a0)
    5968: 13 05 04 f4  	addi	a0, s0, -192
    596c: 93 05 00 04  	li	a1, 64
    5970: 97 00 00 00  	auipc	ra, 0
    5974: e7 80 00 00  	jalr	ra
    5978: 03 29 45 00  	lw	s2, 4(a0)
    597c: 63 80 0c 00  	beqz	s9, 0x597c <.Lpcrel_hi128+0x4c>
    5980: 13 06 00 02  	li	a2, 32
    5984: 93 06 00 02  	li	a3, 32
    5988: 13 07 00 10  	li	a4, 256
    598c: 93 07 00 01  	li	a5, 16
    5990: 13 05 0a 00  	mv	a0, s4
    5994: 93 85 09 00  	mv	a1, s3
    5998: 97 00 00 00  	auipc	ra, 0
    599c: e7 80 00 00  	jalr	ra
    59a0: 93 85 09 02  	addi	a1, s3, 32
    59a4: 13 05 0a 20  	addi	a0, s4, 512
    59a8: 13 06 00 02  	li	a2, 32
    59ac: 93 06 00 02  	li	a3, 32
    59b0: 13 07 00 10  	li	a4, 256
    59b4: 93 07 00 01  	li	a5, 16
    59b8: 97 00 00 00  	auipc	ra, 0
    59bc: e7 80 00 00  	jalr	ra
    59c0: 93 85 09 04  	addi	a1, s3, 64
    59c4: 13 05 0a 40  	addi	a0, s4, 1024
    59c8: 13 06 00 02  	li	a2, 32
    59cc: 93 06 00 02  	li	a3, 32
    59d0: 13 07 00 10  	li	a4, 256
    59d4: 93 07 00 01  	li	a5, 16
    59d8: 97 00 00 00  	auipc	ra, 0
    59dc: e7 80 00 00  	jalr	ra
    59e0: 93 85 09 06  	addi	a1, s3, 96
    59e4: 13 05 0a 60  	addi	a0, s4, 1536
    59e8: 13 06 00 02  	li	a2, 32
    59ec: 93 06 00 02  	li	a3, 32
    59f0: 13 07 00 10  	li	a4, 256
    59f4: 93 07 00 01  	li	a5, 16
    59f8: 97 00 00 00  	auipc	ra, 0
    59fc: e7 80 00 00  	jalr	ra
    5a00: 93 85 09 08  	addi	a1, s3, 128
    5a04: 13 04 fa 7f  	addi	s0, s4, 2047
    5a08: 13 05 14 00  	addi	a0, s0, 1
    5a0c: 13 06 00 02  	li	a2, 32
    5a10: 93 06 00 02  	li	a3, 32
    5a14: 13 07 00 10  	li	a4, 256
    5a18: 93 07 00 01  	li	a5, 16
    5a1c: 97 00 00 00  	auipc	ra, 0
    5a20: e7 80 00 00  	jalr	ra
    5a24: 93 85 09 0a  	addi	a1, s3, 160
    5a28: 13 05 14 20  	addi	a0, s0, 513
    5a2c: 13 06 00 02  	li	a2, 32
    5a30: 93 06 00 02  	li	a3, 32
    5a34: 13 07 00 10  	li	a4, 256
    5a38: 93 07 00 01  	li	a5, 16
    5a3c: 97 00 00 00  	auipc	ra, 0
    5a40: e7 80 00 00  	jalr	ra
    5a44: 93 85 09 0c  	addi	a1, s3, 192
    5a48: 13 05 14 40  	addi	a0, s0, 1025
    5a4c: 13 06 00 02  	li	a2, 32
    5a50: 93 06 00 02  	li	a3, 32
    5a54: 13 07 00 10  	li	a4, 256
    5a58: 93 07 00 01  	li	a5, 16
    5a5c: 97 00 00 00  	auipc	ra, 0
    5a60: e7 80 00 00  	jalr	ra
    5a64: 93 85 09 0e  	addi	a1, s3, 224
    5a68: 13 05 14 60  	addi	a0, s0, 1537
    5a6c: 13 06 00 02  	li	a2, 32
    5a70: 93 06 00 02  	li	a3, 32
    5a74: 13 07 00 10  	li	a4, 256
    5a78: 93 07 00 01  	li	a5, 16
    5a7c: 97 00 00 00  	auipc	ra, 0
    5a80: e7 80 00 00  	jalr	ra

00005a84 <.LBB0_274>:
    5a84: 97 00 00 00  	auipc	ra, 0
    5a88: e7 80 00 00  	jalr	ra
    5a8c: 93 06 10 00  	li	a3, 1
    5a90: 13 85 09 00  	mv	a0, s3
    5a94: 93 85 09 00  	mv	a1, s3
    5a98: 13 06 09 00  	mv	a2, s2
    5a9c: 97 00 00 00  	auipc	ra, 0
    5aa0: e7 80 00 00  	jalr	ra
    5aa4: 63 00 0d 00  	beqz	s10, 0x5aa4 <.LBB0_274+0x20>
    5aa8: 73 d0 00 3c  	csrwi	pmpaddr16, 1
    5aac: 73 d0 10 3c  	csrwi	pmpaddr17, 1
    5ab0: 73 d0 20 3c  	csrwi	pmpaddr18, 1
    5ab4: 73 d0 30 3c  	csrwi	pmpaddr19, 1
    5ab8: 73 50 48 3c  	csrwi	pmpaddr20, 16
    5abc: 73 d0 50 3c  	csrwi	pmpaddr21, 1
    5ac0: 73 d0 60 3c  	csrwi	pmpaddr22, 1
    5ac4: 73 50 78 3c  	csrwi	pmpaddr23, 16
    5ac8: 73 d0 80 3c  	csrwi	pmpaddr24, 1
    5acc: 73 d0 90 3c  	csrwi	pmpaddr25, 1
    5ad0: 73 50 a8 3c  	csrwi	pmpaddr26, 16
    5ad4: 73 d0 b0 3c  	csrwi	pmpaddr27, 1
    5ad8: 73 d0 c0 3c  	csrwi	pmpaddr28, 1
    5adc: 73 50 d8 3c  	csrwi	pmpaddr29, 16
    5ae0: 73 d0 e0 3c  	csrwi	pmpaddr30, 1
    5ae4: 73 50 f0 3c  	csrwi	pmpaddr31, 0
    5ae8: 73 50 00 3d  	csrwi	pmpaddr32, 0
    5aec: 73 50 10 3d  	csrwi	pmpaddr33, 0
    5af0: 73 50 20 3d  	csrwi	pmpaddr34, 0
    5af4: 73 50 30 3d  	csrwi	pmpaddr35, 0
    5af8: 73 50 40 3d  	csrwi	pmpaddr36, 0
    5afc: 73 50 50 3d  	csrwi	pmpaddr37, 0
    5b00: 73 50 60 3d  	csrwi	pmpaddr38, 0
    5b04: 73 50 70 3d  	csrwi	pmpaddr39, 0
    5b08: 73 50 80 3d  	csrwi	pmpaddr40, 0
    5b0c: 73 50 90 3d  	csrwi	pmpaddr41, 0
    5b10: 73 50 a0 3d  	csrwi	pmpaddr42, 0
    5b14: 73 50 b0 3d  	csrwi	pmpaddr43, 0
    5b18: 13 05 00 10  	li	a0, 256
    5b1c: 73 10 c5 3d  	csrw	pmpaddr44, a0
    5b20: b7 15 00 00  	lui	a1, 1
    5b24: 73 90 d5 3d  	csrw	pmpaddr45, a1
    5b28: 73 50 e0 3d  	csrwi	pmpaddr46, 0
    5b2c: 73 10 f5 3d  	csrw	pmpaddr47, a0
    5b30: 73 90 05 3e  	csrw	pmpaddr48, a1
    5b34: 73 50 10 3e  	csrwi	pmpaddr49, 0
    5b38: 73 50 20 3e  	csrwi	pmpaddr50, 0
    5b3c: 73 50 30 3e  	csrwi	pmpaddr51, 0
    5b40: 73 d0 40 3e  	csrwi	pmpaddr52, 1
    5b44: 73 50 54 3e  	csrwi	pmpaddr53, 8
    5b48: 73 d0 60 3e  	csrwi	pmpaddr54, 1
    5b4c: 73 50 74 3e  	csrwi	pmpaddr55, 8
    5b50: 73 d0 80 3e  	csrwi	pmpaddr56, 1
    5b54: 73 50 94 3e  	csrwi	pmpaddr57, 8
    5b58: 73 50 a2 3e  	csrwi	pmpaddr58, 4
    5b5c: 13 05 00 02  	li	a0, 32
    5b60: 73 10 b5 3e  	csrw	pmpaddr59, a0
    5b64: 73 50 c0 3e  	csrwi	pmpaddr60, 0
    5b68: 73 50 d0 3e  	csrwi	pmpaddr61, 0
    5b6c: 37 05 00 10  	lui	a0, 65536
    5b70: 93 05 05 08  	addi	a1, a0, 128
    5b74: 73 90 e5 3e  	csrw	pmpaddr62, a1
    5b78: 13 05 05 04  	addi	a0, a0, 64
    5b7c: 73 10 f5 3e  	csrw	pmpaddr63, a0
    5b80: 73 10 09 3f  	csrw	1008, s2
    5b84: 73 90 19 3f  	csrw	1009, s3
    5b88: 73 90 29 3f  	csrw	1010, s3
    5b8c: 73 50 30 3f  	csrwi	1011, 0
    5b90: 73 d0 70 3f  	csrwi	1015, 1
    5b94: 73 50 88 3f  	csrwi	1016, 16
    5b98: 73 d0 90 3f  	csrwi	1017, 1
    5b9c: 73 50 a0 3f  	csrwi	1018, 0
    5ba0: 37 85 25 7f  	lui	a0, 520792
    5ba4: 73 10 b5 3f  	csrw	1019, a0
    5ba8: 13 05 00 18  	li	a0, 384
    5bac: 73 10 c5 3f  	csrw	1020, a0
    5bb0: 37 85 df 76  	lui	a0, 486904
    5bb4: 13 05 a5 88  	addi	a0, a0, -1910
    5bb8: 73 10 d5 3f  	csrw	1021, a0
    5bbc: 73 50 e8 3f  	csrwi	1022, 16
    5bc0: 73 50 f0 3f  	csrwi	1023, 0
    5bc4: 73 d0 40 3f  	csrwi	1012, 1
    5bc8: 73 d0 00 40  	csrwi	1024, 1
    5bcc: 73 50 40 3f  	csrwi	1012, 0
    5bd0: 73 50 40 3f  	csrwi	1012, 0
    5bd4: 73 50 00 40  	csrwi	1024, 0
    5bd8: 73 50 00 40  	csrwi	1024, 0

00005bdc <.LBB0_276>:
    5bdc: 93 06 20 00  	li	a3, 2
    5be0: 13 85 09 00  	mv	a0, s3
    5be4: 93 85 09 00  	mv	a1, s3
    5be8: 13 06 09 00  	mv	a2, s2
    5bec: 97 00 00 00  	auipc	ra, 0
    5bf0: e7 80 00 00  	jalr	ra
    5bf4: 97 00 00 00  	auipc	ra, 0
    5bf8: e7 80 00 00  	jalr	ra
    5bfc: 63 80 0c 00  	beqz	s9, 0x5bfc <.LBB0_276+0x20>
    5c00: 13 06 80 00  	li	a2, 8
    5c04: 93 06 00 10  	li	a3, 256
    5c08: 13 07 80 00  	li	a4, 8
    5c0c: 93 07 00 01  	li	a5, 16
    5c10: 13 05 09 00  	mv	a0, s2
    5c14: 93 85 04 00  	mv	a1, s1
    5c18: 97 00 00 00  	auipc	ra, 0
    5c1c: e7 80 00 00  	jalr	ra
    5c20: 13 05 89 00  	addi	a0, s2, 8
    5c24: 93 85 04 08  	addi	a1, s1, 128
    5c28: 13 06 80 00  	li	a2, 8
    5c2c: 93 06 00 10  	li	a3, 256
    5c30: 13 07 80 00  	li	a4, 8
    5c34: 93 07 00 01  	li	a5, 16
    5c38: 97 00 00 00  	auipc	ra, 0
    5c3c: e7 80 00 00  	jalr	ra
    5c40: 13 05 09 01  	addi	a0, s2, 16
    5c44: 93 85 04 10  	addi	a1, s1, 256
    5c48: 13 06 80 00  	li	a2, 8
    5c4c: 93 06 00 10  	li	a3, 256
    5c50: 13 07 80 00  	li	a4, 8
    5c54: 93 07 00 01  	li	a5, 16
    5c58: 97 00 00 00  	auipc	ra, 0
    5c5c: e7 80 00 00  	jalr	ra
    5c60: 13 05 89 01  	addi	a0, s2, 24
    5c64: 93 85 04 18  	addi	a1, s1, 384
    5c68: 13 06 80 00  	li	a2, 8
    5c6c: 93 06 00 10  	li	a3, 256
    5c70: 13 07 80 00  	li	a4, 8
    5c74: 93 07 00 01  	li	a5, 16
    5c78: 97 00 00 00  	auipc	ra, 0
    5c7c: e7 80 00 00  	jalr	ra
    5c80: 13 05 09 02  	addi	a0, s2, 32
    5c84: 93 85 04 20  	addi	a1, s1, 512
    5c88: 13 06 80 00  	li	a2, 8
    5c8c: 93 06 00 10  	li	a3, 256
    5c90: 13 07 80 00  	li	a4, 8
    5c94: 93 07 00 01  	li	a5, 16
    5c98: 97 00 00 00  	auipc	ra, 0
    5c9c: e7 80 00 00  	jalr	ra
    5ca0: 13 05 89 02  	addi	a0, s2, 40
    5ca4: 93 85 04 28  	addi	a1, s1, 640
    5ca8: 13 06 80 00  	li	a2, 8
    5cac: 93 06 00 10  	li	a3, 256
    5cb0: 13 07 80 00  	li	a4, 8
    5cb4: 93 07 00 01  	li	a5, 16
    5cb8: 97 00 00 00  	auipc	ra, 0
    5cbc: e7 80 00 00  	jalr	ra
    5cc0: 13 05 09 03  	addi	a0, s2, 48
    5cc4: 93 85 04 30  	addi	a1, s1, 768
    5cc8: 13 06 80 00  	li	a2, 8
    5ccc: 93 06 00 10  	li	a3, 256
    5cd0: 13 07 80 00  	li	a4, 8
    5cd4: 93 07 00 01  	li	a5, 16
    5cd8: 97 00 00 00  	auipc	ra, 0
    5cdc: e7 80 00 00  	jalr	ra
    5ce0: 13 05 89 03  	addi	a0, s2, 56
    5ce4: 93 85 04 38  	addi	a1, s1, 896
    5ce8: 13 06 80 00  	li	a2, 8
    5cec: 93 06 00 10  	li	a3, 256
    5cf0: 13 07 80 00  	li	a4, 8
    5cf4: 93 07 00 01  	li	a5, 16
    5cf8: 97 00 00 00  	auipc	ra, 0
    5cfc: e7 80 00 00  	jalr	ra

00005d00 <.LBB0_278>:
    5d00: 97 00 00 00  	auipc	ra, 0
    5d04: e7 80 00 00  	jalr	ra

00005d08 <.Lpcrel_hi129>:
    5d08: 17 05 00 00  	auipc	a0, 0
    5d0c: 13 05 05 00  	mv	a0, a0

00005d10 <.Lpcrel_hi130>:
    5d10: 97 05 00 00  	auipc	a1, 0
    5d14: 93 8a 05 00  	mv	s5, a1
    5d18: 93 06 30 00  	li	a3, 3
    5d1c: 93 05 05 00  	mv	a1, a0
    5d20: 13 86 0a 00  	mv	a2, s5
    5d24: 97 00 00 00  	auipc	ra, 0
    5d28: e7 80 00 00  	jalr	ra
    5d2c: 97 00 00 00  	auipc	ra, 0
    5d30: e7 80 00 00  	jalr	ra

00005d34 <.Lpcrel_hi131>:
    5d34: 17 05 00 00  	auipc	a0, 0
    5d38: 13 0b 05 00  	mv	s6, a0

00005d3c <.Lpcrel_hi132>:
    5d3c: 17 05 00 00  	auipc	a0, 0
    5d40: 13 04 05 00  	mv	s0, a0
    5d44: 13 85 0a 00  	mv	a0, s5
    5d48: 93 05 0b 00  	mv	a1, s6
    5d4c: 13 06 04 00  	mv	a2, s0
    5d50: 93 06 00 00  	li	a3, 0
    5d54: 97 00 00 00  	auipc	ra, 0
    5d58: e7 80 00 00  	jalr	ra
    5d5c: b7 1d 00 00  	lui	s11, 1
    5d60: 13 85 0d f4  	addi	a0, s11, -192
    5d64: 93 05 00 04  	li	a1, 64
    5d68: 97 00 00 00  	auipc	ra, 0
    5d6c: e7 80 00 00  	jalr	ra
    5d70: 83 29 45 00  	lw	s3, 4(a0)
    5d74: 37 05 01 00  	lui	a0, 16
    5d78: 13 05 05 f4  	addi	a0, a0, -192
    5d7c: 93 05 00 04  	li	a1, 64
    5d80: 97 00 00 00  	auipc	ra, 0
    5d84: e7 80 00 00  	jalr	ra
    5d88: 03 2a 45 00  	lw	s4, 4(a0)
    5d8c: 37 15 00 00  	lui	a0, 1
    5d90: 93 05 00 04  	li	a1, 64
    5d94: 97 00 00 00  	auipc	ra, 0
    5d98: e7 80 00 00  	jalr	ra
    5d9c: 03 29 45 00  	lw	s2, 4(a0)
    5da0: 63 80 0c 00  	beqz	s9, 0x5da0 <.Lpcrel_hi132+0x64>
    5da4: 23 26 81 00  	sw	s0, 12(sp)
    5da8: 13 04 00 00  	li	s0, 0
    5dac: 13 0d 00 40  	li	s10, 1024
    5db0: 93 0c 00 01  	li	s9, 16
    5db4: 23 24 41 01  	sw	s4, 8(sp)

00005db8 <.LBB0_280>:
    5db8: 93 04 00 00  	li	s1, 0
    5dbc: 93 0b 0a 00  	mv	s7, s4

00005dc0 <.LBB0_281>:
    5dc0: 33 0c 9b 00  	add	s8, s6, s1
    5dc4: 13 06 10 00  	li	a2, 1
    5dc8: 93 06 00 40  	li	a3, 1024
    5dcc: 13 07 00 10  	li	a4, 256
    5dd0: 93 07 00 01  	li	a5, 16
    5dd4: 13 05 0c 00  	mv	a0, s8
    5dd8: 93 85 0b 00  	mv	a1, s7
    5ddc: 97 00 00 00  	auipc	ra, 0
    5de0: e7 80 00 00  	jalr	ra
    5de4: 13 05 1c 00  	addi	a0, s8, 1
    5de8: 93 85 8b 00  	addi	a1, s7, 8
    5dec: 13 06 10 00  	li	a2, 1
    5df0: 93 06 00 40  	li	a3, 1024
    5df4: 13 07 00 10  	li	a4, 256
    5df8: 93 07 00 01  	li	a5, 16
    5dfc: 97 00 00 00  	auipc	ra, 0
    5e00: e7 80 00 00  	jalr	ra
    5e04: 13 05 2c 00  	addi	a0, s8, 2
    5e08: 93 85 0b 01  	addi	a1, s7, 16
    5e0c: 13 06 10 00  	li	a2, 1
    5e10: 93 06 00 40  	li	a3, 1024
    5e14: 13 07 00 10  	li	a4, 256
    5e18: 93 07 00 01  	li	a5, 16
    5e1c: 97 00 00 00  	auipc	ra, 0
    5e20: e7 80 00 00  	jalr	ra
    5e24: 13 05 3c 00  	addi	a0, s8, 3
    5e28: 93 85 8b 01  	addi	a1, s7, 24
    5e2c: 13 06 10 00  	li	a2, 1
    5e30: 93 06 00 40  	li	a3, 1024
    5e34: 13 07 00 10  	li	a4, 256
    5e38: 93 07 00 01  	li	a5, 16
    5e3c: 97 00 00 00  	auipc	ra, 0
    5e40: e7 80 00 00  	jalr	ra
    5e44: 13 05 4c 00  	addi	a0, s8, 4
    5e48: 93 85 0b 02  	addi	a1, s7, 32
    5e4c: 13 06 10 00  	li	a2, 1
    5e50: 93 06 00 40  	li	a3, 1024
    5e54: 13 07 00 10  	li	a4, 256
    5e58: 93 07 00 01  	li	a5, 16
    5e5c: 97 00 00 00  	auipc	ra, 0
    5e60: e7 80 00 00  	jalr	ra
    5e64: 13 05 5c 00  	addi	a0, s8, 5
    5e68: 93 85 8b 02  	addi	a1, s7, 40
    5e6c: 13 06 10 00  	li	a2, 1
    5e70: 93 06 00 40  	li	a3, 1024
    5e74: 13 07 00 10  	li	a4, 256
    5e78: 93 07 00 01  	li	a5, 16
    5e7c: 97 00 00 00  	auipc	ra, 0
    5e80: e7 80 00 00  	jalr	ra
    5e84: 13 05 6c 00  	addi	a0, s8, 6
    5e88: 93 85 0b 03  	addi	a1, s7, 48
    5e8c: 13 06 10 00  	li	a2, 1
    5e90: 93 06 00 40  	li	a3, 1024
    5e94: 13 07 00 10  	li	a4, 256
    5e98: 93 07 00 01  	li	a5, 16
    5e9c: 97 00 00 00  	auipc	ra, 0
    5ea0: e7 80 00 00  	jalr	ra
    5ea4: 13 05 7c 00  	addi	a0, s8, 7
    5ea8: 93 85 8b 03  	addi	a1, s7, 56
    5eac: 13 06 10 00  	li	a2, 1
    5eb0: 93 06 00 40  	li	a3, 1024
    5eb4: 13 07 00 10  	li	a4, 256
    5eb8: 93 07 00 01  	li	a5, 16
    5ebc: 97 00 00 00  	auipc	ra, 0
    5ec0: e7 80 00 00  	jalr	ra
    5ec4: 93 84 04 08  	addi	s1, s1, 128
    5ec8: 93 8b 1b 00  	addi	s7, s7, 1
    5ecc: 63 90 a4 01  	bne	s1, s10, 0x5ecc <.LBB0_281+0x10c>
    5ed0: 13 04 14 00  	addi	s0, s0, 1
    5ed4: 13 0b 8b 00  	addi	s6, s6, 8
    5ed8: 33 0a ba 01  	add	s4, s4, s11
    5edc: 63 10 94 01  	bne	s0, s9, 0x5edc <.LBB0_281+0x11c>
    5ee0: 13 06 80 00  	li	a2, 8
    5ee4: 93 06 80 00  	li	a3, 8
    5ee8: 13 07 00 10  	li	a4, 256
    5eec: 93 07 00 01  	li	a5, 16
    5ef0: 13 85 0a 00  	mv	a0, s5
    5ef4: 93 85 09 00  	mv	a1, s3
    5ef8: 97 00 00 00  	auipc	ra, 0
    5efc: e7 80 00 00  	jalr	ra
    5f00: 93 85 89 00  	addi	a1, s3, 8
    5f04: 13 85 0a 08  	addi	a0, s5, 128
    5f08: 13 06 80 00  	li	a2, 8
    5f0c: 93 06 80 00  	li	a3, 8
    5f10: 13 07 00 10  	li	a4, 256
    5f14: 93 07 00 01  	li	a5, 16
    5f18: 97 00 00 00  	auipc	ra, 0
    5f1c: e7 80 00 00  	jalr	ra
    5f20: 93 85 09 01  	addi	a1, s3, 16
    5f24: 13 85 0a 10  	addi	a0, s5, 256
    5f28: 13 06 80 00  	li	a2, 8
    5f2c: 93 06 80 00  	li	a3, 8
    5f30: 13 07 00 10  	li	a4, 256
    5f34: 93 07 00 01  	li	a5, 16
    5f38: 97 00 00 00  	auipc	ra, 0
    5f3c: e7 80 00 00  	jalr	ra
    5f40: 93 85 89 01  	addi	a1, s3, 24
    5f44: 13 85 0a 18  	addi	a0, s5, 384
    5f48: 13 06 80 00  	li	a2, 8
    5f4c: 93 06 80 00  	li	a3, 8
    5f50: 13 07 00 10  	li	a4, 256
    5f54: 93 07 00 01  	li	a5, 16
    5f58: 97 00 00 00  	auipc	ra, 0
    5f5c: e7 80 00 00  	jalr	ra
    5f60: 93 85 09 02  	addi	a1, s3, 32
    5f64: 13 85 0a 20  	addi	a0, s5, 512
    5f68: 13 06 80 00  	li	a2, 8
    5f6c: 93 06 80 00  	li	a3, 8
    5f70: 13 07 00 10  	li	a4, 256
    5f74: 93 07 00 01  	li	a5, 16
    5f78: 97 00 00 00  	auipc	ra, 0
    5f7c: e7 80 00 00  	jalr	ra
    5f80: 93 85 89 02  	addi	a1, s3, 40
    5f84: 13 85 0a 28  	addi	a0, s5, 640
    5f88: 13 06 80 00  	li	a2, 8
    5f8c: 93 06 80 00  	li	a3, 8
    5f90: 13 07 00 10  	li	a4, 256
    5f94: 93 07 00 01  	li	a5, 16
    5f98: 97 00 00 00  	auipc	ra, 0
    5f9c: e7 80 00 00  	jalr	ra
    5fa0: 93 85 09 03  	addi	a1, s3, 48
    5fa4: 13 85 0a 30  	addi	a0, s5, 768
    5fa8: 13 06 80 00  	li	a2, 8
    5fac: 93 06 80 00  	li	a3, 8
    5fb0: 13 07 00 10  	li	a4, 256
    5fb4: 93 07 00 01  	li	a5, 16
    5fb8: 97 00 00 00  	auipc	ra, 0
    5fbc: e7 80 00 00  	jalr	ra
    5fc0: 93 85 89 03  	addi	a1, s3, 56
    5fc4: 13 85 0a 38  	addi	a0, s5, 896
    5fc8: 13 06 80 00  	li	a2, 8
    5fcc: 93 06 80 00  	li	a3, 8
    5fd0: 13 07 00 10  	li	a4, 256
    5fd4: 93 07 00 01  	li	a5, 16
    5fd8: 97 00 00 00  	auipc	ra, 0
    5fdc: e7 80 00 00  	jalr	ra
    5fe0: 83 2c 81 01  	lw	s9, 24(sp)
    5fe4: 03 2d 41 01  	lw	s10, 20(sp)
    5fe8: 03 24 c1 00  	lw	s0, 12(sp)
    5fec: 03 2a 81 00  	lw	s4, 8(sp)

00005ff0 <.LBB0_284>:
    5ff0: 97 00 00 00  	auipc	ra, 0
    5ff4: e7 80 00 00  	jalr	ra
    5ff8: 93 06 10 00  	li	a3, 1
    5ffc: 13 85 09 00  	mv	a0, s3
    6000: 93 05 0a 00  	mv	a1, s4
    6004: 13 06 09 00  	mv	a2, s2
    6008: 97 00 00 00  	auipc	ra, 0
    600c: e7 80 00 00  	jalr	ra
    6010: 63 00 0d 00  	beqz	s10, 0x6010 <.LBB0_284+0x20>
    6014: 73 d0 00 3c  	csrwi	pmpaddr16, 1
    6018: 73 d0 10 3c  	csrwi	pmpaddr17, 1
    601c: 73 d0 20 3c  	csrwi	pmpaddr18, 1
    6020: 73 50 38 3c  	csrwi	pmpaddr19, 16
    6024: 73 50 48 3c  	csrwi	pmpaddr20, 16
    6028: 73 d0 50 3c  	csrwi	pmpaddr21, 1
    602c: 73 50 68 3c  	csrwi	pmpaddr22, 16
    6030: 73 50 78 3c  	csrwi	pmpaddr23, 16
    6034: 73 d0 80 3c  	csrwi	pmpaddr24, 1
    6038: 73 50 90 3c  	csrwi	pmpaddr25, 0
    603c: 73 50 a0 3c  	csrwi	pmpaddr26, 0
    6040: 73 50 b0 3c  	csrwi	pmpaddr27, 0
    6044: 73 d0 c0 3c  	csrwi	pmpaddr28, 1
    6048: 73 50 d8 3c  	csrwi	pmpaddr29, 16
    604c: 73 d0 e0 3c  	csrwi	pmpaddr30, 1
    6050: 73 d0 f0 3c  	csrwi	pmpaddr31, 1
    6054: 73 50 08 3d  	csrwi	pmpaddr32, 16
    6058: 73 d0 10 3d  	csrwi	pmpaddr33, 1
    605c: 73 50 20 3d  	csrwi	pmpaddr34, 0
    6060: 73 50 30 3d  	csrwi	pmpaddr35, 0
    6064: 73 50 40 3d  	csrwi	pmpaddr36, 0
    6068: 13 05 00 10  	li	a0, 256
    606c: 73 10 55 3d  	csrw	pmpaddr37, a0
    6070: 73 50 60 3d  	csrwi	pmpaddr38, 0
    6074: b7 15 00 00  	lui	a1, 1
    6078: 73 90 75 3d  	csrw	pmpaddr39, a1
    607c: 73 10 85 3d  	csrw	pmpaddr40, a0
    6080: 73 90 95 3d  	csrw	pmpaddr41, a1
    6084: 73 50 a0 3d  	csrwi	pmpaddr42, 0
    6088: 73 50 b0 3d  	csrwi	pmpaddr43, 0
    608c: 73 50 c0 3d  	csrwi	pmpaddr44, 0
    6090: 73 50 d0 3d  	csrwi	pmpaddr45, 0
    6094: 73 50 e0 3d  	csrwi	pmpaddr46, 0
    6098: 73 10 f5 3d  	csrw	pmpaddr47, a0
    609c: 73 90 05 3e  	csrw	pmpaddr48, a1
    60a0: 73 50 10 3e  	csrwi	pmpaddr49, 0
    60a4: 73 10 25 3e  	csrw	pmpaddr50, a0
    60a8: 73 90 35 3e  	csrw	pmpaddr51, a1
    60ac: 73 d0 40 3e  	csrwi	pmpaddr52, 1
    60b0: 73 50 54 3e  	csrwi	pmpaddr53, 8
    60b4: 73 d0 60 3e  	csrwi	pmpaddr54, 1
    60b8: 73 50 74 3e  	csrwi	pmpaddr55, 8
    60bc: 73 50 80 3e  	csrwi	pmpaddr56, 0
    60c0: 73 50 90 3e  	csrwi	pmpaddr57, 0
    60c4: 73 50 a2 3e  	csrwi	pmpaddr58, 4
    60c8: 13 05 00 02  	li	a0, 32
    60cc: 73 10 b5 3e  	csrw	pmpaddr59, a0
    60d0: 73 50 c2 3e  	csrwi	pmpaddr60, 4
    60d4: 73 10 d5 3e  	csrw	pmpaddr61, a0
    60d8: 73 90 e9 3e  	csrw	pmpaddr62, s3
    60dc: 73 10 fa 3e  	csrw	pmpaddr63, s4
    60e0: 73 10 0a 3f  	csrw	1008, s4
    60e4: 73 10 19 3f  	csrw	1009, s2
    60e8: 73 10 29 3f  	csrw	1010, s2
    60ec: 73 50 30 3f  	csrwi	1011, 0
    60f0: 73 50 78 3f  	csrwi	1015, 16
    60f4: 73 50 88 3f  	csrwi	1016, 16
    60f8: 73 d0 90 3f  	csrwi	1017, 1
    60fc: 13 05 00 08  	li	a0, 128
    6100: 73 10 a5 3f  	csrw	1018, a0
    6104: 73 50 b0 3f  	csrwi	1019, 0
    6108: 73 50 c0 3f  	csrwi	1020, 0
    610c: 73 50 d0 3f  	csrwi	1021, 0
    6110: 73 50 e0 3f  	csrwi	1022, 0
    6114: 73 d0 f0 3f  	csrwi	1023, 1
    6118: 73 d0 40 3f  	csrwi	1012, 1
    611c: 73 d0 00 40  	csrwi	1024, 1
    6120: 73 50 40 3f  	csrwi	1012, 0
    6124: 73 50 40 3f  	csrwi	1012, 0
    6128: 73 50 00 40  	csrwi	1024, 0
    612c: 73 50 00 40  	csrwi	1024, 0

00006130 <.LBB0_286>:
    6130: 93 06 20 00  	li	a3, 2
    6134: 13 85 09 00  	mv	a0, s3
    6138: 93 05 0a 00  	mv	a1, s4
    613c: 13 06 09 00  	mv	a2, s2
    6140: 97 00 00 00  	auipc	ra, 0
    6144: e7 80 00 00  	jalr	ra
    6148: 97 00 00 00  	auipc	ra, 0
    614c: e7 80 00 00  	jalr	ra
    6150: 63 80 0c 00  	beqz	s9, 0x6150 <.LBB0_286+0x20>
    6154: 13 06 00 02  	li	a2, 32
    6158: 93 06 00 10  	li	a3, 256
    615c: 13 07 00 02  	li	a4, 32
    6160: 93 07 00 01  	li	a5, 16
    6164: 13 05 09 00  	mv	a0, s2
    6168: 93 05 04 00  	mv	a1, s0
    616c: 97 00 00 00  	auipc	ra, 0
    6170: e7 80 00 00  	jalr	ra
    6174: 13 05 09 02  	addi	a0, s2, 32
    6178: 93 05 04 20  	addi	a1, s0, 512
    617c: 13 06 00 02  	li	a2, 32
    6180: 93 06 00 10  	li	a3, 256
    6184: 13 07 00 02  	li	a4, 32
    6188: 93 07 00 01  	li	a5, 16
    618c: 97 00 00 00  	auipc	ra, 0
    6190: e7 80 00 00  	jalr	ra
    6194: 13 05 09 04  	addi	a0, s2, 64
    6198: 93 05 04 40  	addi	a1, s0, 1024
    619c: 13 06 00 02  	li	a2, 32
    61a0: 93 06 00 10  	li	a3, 256
    61a4: 13 07 00 02  	li	a4, 32
    61a8: 93 07 00 01  	li	a5, 16
    61ac: 97 00 00 00  	auipc	ra, 0
    61b0: e7 80 00 00  	jalr	ra
    61b4: 13 05 09 06  	addi	a0, s2, 96
    61b8: 93 05 04 60  	addi	a1, s0, 1536
    61bc: 13 06 00 02  	li	a2, 32
    61c0: 93 06 00 10  	li	a3, 256
    61c4: 13 07 00 02  	li	a4, 32
    61c8: 93 07 00 01  	li	a5, 16
    61cc: 97 00 00 00  	auipc	ra, 0
    61d0: e7 80 00 00  	jalr	ra
    61d4: 13 05 09 08  	addi	a0, s2, 128
    61d8: 13 04 f4 7f  	addi	s0, s0, 2047
    61dc: 93 05 14 00  	addi	a1, s0, 1
    61e0: 13 06 00 02  	li	a2, 32
    61e4: 93 06 00 10  	li	a3, 256
    61e8: 13 07 00 02  	li	a4, 32
    61ec: 93 07 00 01  	li	a5, 16
    61f0: 97 00 00 00  	auipc	ra, 0
    61f4: e7 80 00 00  	jalr	ra
    61f8: 13 05 09 0a  	addi	a0, s2, 160
    61fc: 93 05 14 20  	addi	a1, s0, 513
    6200: 13 06 00 02  	li	a2, 32
    6204: 93 06 00 10  	li	a3, 256
    6208: 13 07 00 02  	li	a4, 32
    620c: 93 07 00 01  	li	a5, 16
    6210: 97 00 00 00  	auipc	ra, 0
    6214: e7 80 00 00  	jalr	ra
    6218: 13 05 09 0c  	addi	a0, s2, 192
    621c: 93 05 14 40  	addi	a1, s0, 1025
    6220: 13 06 00 02  	li	a2, 32
    6224: 93 06 00 10  	li	a3, 256
    6228: 13 07 00 02  	li	a4, 32
    622c: 93 07 00 01  	li	a5, 16
    6230: 97 00 00 00  	auipc	ra, 0
    6234: e7 80 00 00  	jalr	ra
    6238: 13 05 09 0e  	addi	a0, s2, 224
    623c: 93 05 14 60  	addi	a1, s0, 1537
    6240: 13 06 00 02  	li	a2, 32
    6244: 93 06 00 10  	li	a3, 256
    6248: 13 07 00 02  	li	a4, 32
    624c: 93 07 00 01  	li	a5, 16
    6250: 97 00 00 00  	auipc	ra, 0
    6254: e7 80 00 00  	jalr	ra

00006258 <.LBB0_288>:
    6258: 97 00 00 00  	auipc	ra, 0
    625c: e7 80 00 00  	jalr	ra

00006260 <.Lpcrel_hi133>:
    6260: 17 05 00 00  	auipc	a0, 0
    6264: 13 05 05 00  	mv	a0, a0

00006268 <.Lpcrel_hi134>:
    6268: 97 05 00 00  	auipc	a1, 0
    626c: 93 85 05 00  	mv	a1, a1

00006270 <.Lpcrel_hi135>:
    6270: 17 06 00 00  	auipc	a2, 0
    6274: 93 04 06 00  	mv	s1, a2
    6278: 93 06 30 00  	li	a3, 3
    627c: 13 86 04 00  	mv	a2, s1
    6280: 97 00 00 00  	auipc	ra, 0
    6284: e7 80 00 00  	jalr	ra
    6288: 97 00 00 00  	auipc	ra, 0
    628c: e7 80 00 00  	jalr	ra

00006290 <.Lpcrel_hi136>:
    6290: 17 05 00 00  	auipc	a0, 0
    6294: 13 05 05 00  	mv	a0, a0

00006298 <.Lpcrel_hi137>:
    6298: 97 05 00 00  	auipc	a1, 0
    629c: 13 86 05 00  	mv	a2, a1
    62a0: 93 85 04 00  	mv	a1, s1
    62a4: 93 06 00 00  	li	a3, 0
    62a8: 97 00 00 00  	auipc	ra, 0
    62ac: e7 80 00 00  	jalr	ra
    62b0: 13 05 00 20  	li	a0, 512
    62b4: 93 05 00 04  	li	a1, 64
    62b8: 97 00 00 00  	auipc	ra, 0
    62bc: e7 80 00 00  	jalr	ra
    62c0: 83 24 45 00  	lw	s1, 4(a0)
    62c4: 37 15 00 00  	lui	a0, 1
    62c8: 93 05 00 04  	li	a1, 64
    62cc: 97 00 00 00  	auipc	ra, 0
    62d0: e7 80 00 00  	jalr	ra
    62d4: 83 29 45 00  	lw	s3, 4(a0)
    62d8: 37 15 00 00  	lui	a0, 1
    62dc: 93 05 00 04  	li	a1, 64
    62e0: 97 00 00 00  	auipc	ra, 0
    62e4: e7 80 00 00  	jalr	ra
    62e8: 03 29 45 00  	lw	s2, 4(a0)
    62ec: 63 80 0c 00  	beqz	s9, 0x62ec <.Lpcrel_hi137+0x54>

000062f0 <.Lpcrel_hi138>:
    62f0: 17 05 00 00  	auipc	a0, 0
    62f4: 13 05 05 00  	mv	a0, a0
    62f8: 37 16 00 00  	lui	a2, 1
    62fc: 93 85 09 00  	mv	a1, s3
    6300: 97 00 00 00  	auipc	ra, 0
    6304: e7 80 00 00  	jalr	ra

00006308 <.Lpcrel_hi139>:
    6308: 17 05 00 00  	auipc	a0, 0
    630c: 13 05 05 00  	mv	a0, a0
    6310: 13 06 00 20  	li	a2, 512
    6314: 93 85 04 00  	mv	a1, s1
    6318: 97 00 00 00  	auipc	ra, 0
    631c: e7 80 00 00  	jalr	ra

00006320 <.LBB0_290>:
    6320: 97 00 00 00  	auipc	ra, 0
    6324: e7 80 00 00  	jalr	ra
    6328: 93 06 10 00  	li	a3, 1
    632c: 13 85 04 00  	mv	a0, s1
    6330: 93 85 09 00  	mv	a1, s3
    6334: 13 06 09 00  	mv	a2, s2
    6338: 97 00 00 00  	auipc	ra, 0
    633c: e7 80 00 00  	jalr	ra
    6340: 63 00 0d 00  	beqz	s10, 0x6340 <.LBB0_290+0x20>
    6344: 13 05 10 00  	li	a0, 1
    6348: 93 15 b5 00  	slli	a1, a0, 11
    634c: 33 85 b9 00  	add	a0, s3, a1
    6350: b3 05 b9 00  	add	a1, s2, a1
    6354: 13 06 00 08  	li	a2, 128
    6358: 93 86 04 00  	mv	a3, s1
    635c: 13 07 09 00  	mv	a4, s2
    6360: 93 87 09 00  	mv	a5, s3

00006364 <.LBB0_292>:
    6364: 03 a8 06 00  	lw	a6, 0(a3)
    6368: 83 a8 07 00  	lw	a7, 0(a5)
    636c: 33 88 08 01  	add	a6, a7, a6
    6370: 23 20 07 01  	sw	a6, 0(a4)
    6374: 93 87 47 00  	addi	a5, a5, 4
    6378: 13 07 47 00  	addi	a4, a4, 4
    637c: 13 06 f6 ff  	addi	a2, a2, -1
    6380: 93 86 46 00  	addi	a3, a3, 4
    6384: 63 10 06 00  	bnez	a2, 0x6384 <.LBB0_292+0x20>
    6388: 13 06 09 20  	addi	a2, s2, 512
    638c: 93 86 09 20  	addi	a3, s3, 512
    6390: 13 07 00 08  	li	a4, 128
    6394: 93 87 04 00  	mv	a5, s1

00006398 <.LBB0_294>:
    6398: 03 a8 07 00  	lw	a6, 0(a5)
    639c: 83 a8 06 00  	lw	a7, 0(a3)
    63a0: 33 88 08 01  	add	a6, a7, a6
    63a4: 23 20 06 01  	sw	a6, 0(a2)
    63a8: 13 07 f7 ff  	addi	a4, a4, -1
    63ac: 13 06 46 00  	addi	a2, a2, 4
    63b0: 93 86 46 00  	addi	a3, a3, 4
    63b4: 93 87 47 00  	addi	a5, a5, 4
    63b8: 63 10 07 00  	bnez	a4, 0x63b8 <.LBB0_294+0x20>
    63bc: 13 06 09 40  	addi	a2, s2, 1024
    63c0: 93 86 09 40  	addi	a3, s3, 1024
    63c4: 13 07 00 08  	li	a4, 128
    63c8: 93 87 04 00  	mv	a5, s1

000063cc <.LBB0_296>:
    63cc: 03 a8 07 00  	lw	a6, 0(a5)
    63d0: 83 a8 06 00  	lw	a7, 0(a3)
    63d4: 33 88 08 01  	add	a6, a7, a6
    63d8: 23 20 06 01  	sw	a6, 0(a2)
    63dc: 13 07 f7 ff  	addi	a4, a4, -1
    63e0: 13 06 46 00  	addi	a2, a2, 4
    63e4: 93 86 46 00  	addi	a3, a3, 4
    63e8: 93 87 47 00  	addi	a5, a5, 4
    63ec: 63 10 07 00  	bnez	a4, 0x63ec <.LBB0_296+0x20>
    63f0: 13 06 09 60  	addi	a2, s2, 1536
    63f4: 93 86 09 60  	addi	a3, s3, 1536
    63f8: 13 07 00 08  	li	a4, 128
    63fc: 93 87 04 00  	mv	a5, s1

00006400 <.LBB0_298>:
    6400: 03 a8 07 00  	lw	a6, 0(a5)
    6404: 83 a8 06 00  	lw	a7, 0(a3)
    6408: 33 88 08 01  	add	a6, a7, a6
    640c: 23 20 06 01  	sw	a6, 0(a2)
    6410: 13 07 f7 ff  	addi	a4, a4, -1
    6414: 13 06 46 00  	addi	a2, a2, 4
    6418: 93 86 46 00  	addi	a3, a3, 4
    641c: 93 87 47 00  	addi	a5, a5, 4
    6420: 63 10 07 00  	bnez	a4, 0x6420 <.LBB0_298+0x20>
    6424: 13 06 00 08  	li	a2, 128
    6428: 93 86 04 00  	mv	a3, s1
    642c: 13 07 05 00  	mv	a4, a0
    6430: 93 87 05 00  	mv	a5, a1

00006434 <.LBB0_300>:
    6434: 03 a8 06 00  	lw	a6, 0(a3)
    6438: 83 28 07 00  	lw	a7, 0(a4)
    643c: 33 88 08 01  	add	a6, a7, a6
    6440: 23 a0 07 01  	sw	a6, 0(a5)
    6444: 13 06 f6 ff  	addi	a2, a2, -1
    6448: 93 87 47 00  	addi	a5, a5, 4
    644c: 13 07 47 00  	addi	a4, a4, 4
    6450: 93 86 46 00  	addi	a3, a3, 4
    6454: 63 10 06 00  	bnez	a2, 0x6454 <.LBB0_300+0x20>
    6458: 13 86 05 20  	addi	a2, a1, 512
    645c: 93 06 05 20  	addi	a3, a0, 512
    6460: 13 07 00 08  	li	a4, 128
    6464: 93 87 04 00  	mv	a5, s1

00006468 <.LBB0_302>:
    6468: 03 a8 07 00  	lw	a6, 0(a5)
    646c: 83 a8 06 00  	lw	a7, 0(a3)
    6470: 33 88 08 01  	add	a6, a7, a6
    6474: 23 20 06 01  	sw	a6, 0(a2)
    6478: 13 07 f7 ff  	addi	a4, a4, -1
    647c: 13 06 46 00  	addi	a2, a2, 4
    6480: 93 86 46 00  	addi	a3, a3, 4
    6484: 93 87 47 00  	addi	a5, a5, 4
    6488: 63 10 07 00  	bnez	a4, 0x6488 <.LBB0_302+0x20>
    648c: 13 86 05 40  	addi	a2, a1, 1024
    6490: 93 06 05 40  	addi	a3, a0, 1024
    6494: 13 07 00 08  	li	a4, 128
    6498: 93 87 04 00  	mv	a5, s1

0000649c <.LBB0_304>:
    649c: 03 a8 07 00  	lw	a6, 0(a5)
    64a0: 83 a8 06 00  	lw	a7, 0(a3)
    64a4: 33 88 08 01  	add	a6, a7, a6
    64a8: 23 20 06 01  	sw	a6, 0(a2)
    64ac: 13 07 f7 ff  	addi	a4, a4, -1
    64b0: 13 06 46 00  	addi	a2, a2, 4
    64b4: 93 86 46 00  	addi	a3, a3, 4
    64b8: 93 87 47 00  	addi	a5, a5, 4
    64bc: 63 10 07 00  	bnez	a4, 0x64bc <.LBB0_304+0x20>
    64c0: 93 85 05 60  	addi	a1, a1, 1536
    64c4: 13 05 05 60  	addi	a0, a0, 1536
    64c8: 13 06 00 08  	li	a2, 128
    64cc: 93 86 04 00  	mv	a3, s1

000064d0 <.LBB0_306>:
    64d0: 03 a7 06 00  	lw	a4, 0(a3)
    64d4: 83 27 05 00  	lw	a5, 0(a0)
    64d8: 33 87 e7 00  	add	a4, a5, a4
    64dc: 23 a0 e5 00  	sw	a4, 0(a1)
    64e0: 13 06 f6 ff  	addi	a2, a2, -1
    64e4: 93 85 45 00  	addi	a1, a1, 4
    64e8: 13 05 45 00  	addi	a0, a0, 4
    64ec: 93 86 46 00  	addi	a3, a3, 4
    64f0: 63 10 06 00  	bnez	a2, 0x64f0 <.LBB0_306+0x20>

000064f4 <.LBB0_307>:
    64f4: 93 06 20 00  	li	a3, 2
    64f8: 13 85 04 00  	mv	a0, s1
    64fc: 93 85 09 00  	mv	a1, s3
    6500: 13 06 09 00  	mv	a2, s2
    6504: 97 00 00 00  	auipc	ra, 0
    6508: e7 80 00 00  	jalr	ra
    650c: 97 00 00 00  	auipc	ra, 0
    6510: e7 80 00 00  	jalr	ra
    6514: 63 80 0c 00  	beqz	s9, 0x6514 <.LBB0_307+0x20>

00006518 <.Lpcrel_hi140>:
    6518: 17 05 00 00  	auipc	a0, 0
    651c: 93 05 05 00  	mv	a1, a0
    6520: 37 16 00 00  	lui	a2, 1
    6524: 13 05 09 00  	mv	a0, s2
    6528: 97 00 00 00  	auipc	ra, 0
    652c: e7 80 00 00  	jalr	ra

00006530 <.LBB0_309>:
    6530: 97 00 00 00  	auipc	ra, 0
    6534: e7 80 00 00  	jalr	ra

00006538 <.Lpcrel_hi141>:
    6538: 17 05 00 00  	auipc	a0, 0
    653c: 13 05 05 00  	mv	a0, a0

00006540 <.Lpcrel_hi142>:
    6540: 97 05 00 00  	auipc	a1, 0
    6544: 93 85 05 00  	mv	a1, a1

00006548 <.Lpcrel_hi143>:
    6548: 17 06 00 00  	auipc	a2, 0
    654c: 13 0a 06 00  	mv	s4, a2
    6550: 93 06 30 00  	li	a3, 3
    6554: 13 06 0a 00  	mv	a2, s4
    6558: 97 00 00 00  	auipc	ra, 0
    655c: e7 80 00 00  	jalr	ra
    6560: 97 00 00 00  	auipc	ra, 0
    6564: e7 80 00 00  	jalr	ra

00006568 <.Lpcrel_hi144>:
    6568: 17 05 00 00  	auipc	a0, 0
    656c: 93 04 05 00  	mv	s1, a0
    6570: 13 05 0a 00  	mv	a0, s4
    6574: 93 05 0a 00  	mv	a1, s4
    6578: 13 86 04 00  	mv	a2, s1
    657c: 93 06 00 00  	li	a3, 0
    6580: 97 00 00 00  	auipc	ra, 0
    6584: e7 80 00 00  	jalr	ra
    6588: 37 15 00 00  	lui	a0, 1
    658c: 93 05 00 04  	li	a1, 64
    6590: 37 14 00 00  	lui	s0, 1
    6594: 97 00 00 00  	auipc	ra, 0
    6598: e7 80 00 00  	jalr	ra
    659c: 83 29 45 00  	lw	s3, 4(a0)
    65a0: 13 05 04 f4  	addi	a0, s0, -192
    65a4: 93 05 00 04  	li	a1, 64
    65a8: 97 00 00 00  	auipc	ra, 0
    65ac: e7 80 00 00  	jalr	ra
    65b0: 03 29 45 00  	lw	s2, 4(a0)
    65b4: 63 80 0c 00  	beqz	s9, 0x65b4 <.Lpcrel_hi144+0x4c>
    65b8: 13 06 00 02  	li	a2, 32
    65bc: 93 06 00 02  	li	a3, 32
    65c0: 13 07 00 10  	li	a4, 256
    65c4: 93 07 00 01  	li	a5, 16
    65c8: 13 05 0a 00  	mv	a0, s4
    65cc: 93 85 09 00  	mv	a1, s3
    65d0: 97 00 00 00  	auipc	ra, 0
    65d4: e7 80 00 00  	jalr	ra
    65d8: 93 85 09 02  	addi	a1, s3, 32
    65dc: 13 05 0a 20  	addi	a0, s4, 512
    65e0: 13 06 00 02  	li	a2, 32
    65e4: 93 06 00 02  	li	a3, 32
    65e8: 13 07 00 10  	li	a4, 256
    65ec: 93 07 00 01  	li	a5, 16
    65f0: 97 00 00 00  	auipc	ra, 0
    65f4: e7 80 00 00  	jalr	ra
    65f8: 93 85 09 04  	addi	a1, s3, 64
    65fc: 13 05 0a 40  	addi	a0, s4, 1024
    6600: 13 06 00 02  	li	a2, 32
    6604: 93 06 00 02  	li	a3, 32
    6608: 13 07 00 10  	li	a4, 256
    660c: 93 07 00 01  	li	a5, 16
    6610: 97 00 00 00  	auipc	ra, 0
    6614: e7 80 00 00  	jalr	ra
    6618: 93 85 09 06  	addi	a1, s3, 96
    661c: 13 05 0a 60  	addi	a0, s4, 1536
    6620: 13 06 00 02  	li	a2, 32
    6624: 93 06 00 02  	li	a3, 32
    6628: 13 07 00 10  	li	a4, 256
    662c: 93 07 00 01  	li	a5, 16
    6630: 97 00 00 00  	auipc	ra, 0
    6634: e7 80 00 00  	jalr	ra
    6638: 93 85 09 08  	addi	a1, s3, 128
    663c: 13 04 fa 7f  	addi	s0, s4, 2047
    6640: 13 05 14 00  	addi	a0, s0, 1
    6644: 13 06 00 02  	li	a2, 32
    6648: 93 06 00 02  	li	a3, 32
    664c: 13 07 00 10  	li	a4, 256
    6650: 93 07 00 01  	li	a5, 16
    6654: 97 00 00 00  	auipc	ra, 0
    6658: e7 80 00 00  	jalr	ra
    665c: 93 85 09 0a  	addi	a1, s3, 160
    6660: 13 05 14 20  	addi	a0, s0, 513
    6664: 13 06 00 02  	li	a2, 32
    6668: 93 06 00 02  	li	a3, 32
    666c: 13 07 00 10  	li	a4, 256
    6670: 93 07 00 01  	li	a5, 16
    6674: 97 00 00 00  	auipc	ra, 0
    6678: e7 80 00 00  	jalr	ra
    667c: 93 85 09 0c  	addi	a1, s3, 192
    6680: 13 05 14 40  	addi	a0, s0, 1025
    6684: 13 06 00 02  	li	a2, 32
    6688: 93 06 00 02  	li	a3, 32
    668c: 13 07 00 10  	li	a4, 256
    6690: 93 07 00 01  	li	a5, 16
    6694: 97 00 00 00  	auipc	ra, 0
    6698: e7 80 00 00  	jalr	ra
    669c: 93 85 09 0e  	addi	a1, s3, 224
    66a0: 13 05 14 60  	addi	a0, s0, 1537
    66a4: 13 06 00 02  	li	a2, 32
    66a8: 93 06 00 02  	li	a3, 32
    66ac: 13 07 00 10  	li	a4, 256
    66b0: 93 07 00 01  	li	a5, 16
    66b4: 97 00 00 00  	auipc	ra, 0
    66b8: e7 80 00 00  	jalr	ra

000066bc <.LBB0_311>:
    66bc: 97 00 00 00  	auipc	ra, 0
    66c0: e7 80 00 00  	jalr	ra
    66c4: 93 06 10 00  	li	a3, 1
    66c8: 13 85 09 00  	mv	a0, s3
    66cc: 93 85 09 00  	mv	a1, s3
    66d0: 13 06 09 00  	mv	a2, s2
    66d4: 97 00 00 00  	auipc	ra, 0
    66d8: e7 80 00 00  	jalr	ra
    66dc: 63 00 0d 00  	beqz	s10, 0x66dc <.LBB0_311+0x20>
    66e0: 73 d0 00 3c  	csrwi	pmpaddr16, 1
    66e4: 73 d0 10 3c  	csrwi	pmpaddr17, 1
    66e8: 73 d0 20 3c  	csrwi	pmpaddr18, 1
    66ec: 73 d0 30 3c  	csrwi	pmpaddr19, 1
    66f0: 73 50 48 3c  	csrwi	pmpaddr20, 16
    66f4: 73 d0 50 3c  	csrwi	pmpaddr21, 1
    66f8: 73 d0 60 3c  	csrwi	pmpaddr22, 1
    66fc: 73 50 78 3c  	csrwi	pmpaddr23, 16
    6700: 73 d0 80 3c  	csrwi	pmpaddr24, 1
    6704: 73 d0 90 3c  	csrwi	pmpaddr25, 1
    6708: 73 50 a8 3c  	csrwi	pmpaddr26, 16
    670c: 73 d0 b0 3c  	csrwi	pmpaddr27, 1
    6710: 73 d0 c0 3c  	csrwi	pmpaddr28, 1
    6714: 73 50 d8 3c  	csrwi	pmpaddr29, 16
    6718: 73 d0 e0 3c  	csrwi	pmpaddr30, 1
    671c: 73 50 f0 3c  	csrwi	pmpaddr31, 0
    6720: 73 50 00 3d  	csrwi	pmpaddr32, 0
    6724: 73 50 10 3d  	csrwi	pmpaddr33, 0
    6728: 73 50 20 3d  	csrwi	pmpaddr34, 0
    672c: 73 50 30 3d  	csrwi	pmpaddr35, 0
    6730: 73 50 40 3d  	csrwi	pmpaddr36, 0
    6734: 73 50 50 3d  	csrwi	pmpaddr37, 0
    6738: 73 50 60 3d  	csrwi	pmpaddr38, 0
    673c: 73 50 70 3d  	csrwi	pmpaddr39, 0
    6740: 73 50 80 3d  	csrwi	pmpaddr40, 0
    6744: 73 50 90 3d  	csrwi	pmpaddr41, 0
    6748: 73 50 a0 3d  	csrwi	pmpaddr42, 0
    674c: 73 50 b0 3d  	csrwi	pmpaddr43, 0
    6750: 13 05 00 10  	li	a0, 256
    6754: 73 10 c5 3d  	csrw	pmpaddr44, a0
    6758: b7 15 00 00  	lui	a1, 1
    675c: 73 90 d5 3d  	csrw	pmpaddr45, a1
    6760: 73 50 e0 3d  	csrwi	pmpaddr46, 0
    6764: 73 10 f5 3d  	csrw	pmpaddr47, a0
    6768: 73 90 05 3e  	csrw	pmpaddr48, a1
    676c: 73 50 10 3e  	csrwi	pmpaddr49, 0
    6770: 73 50 20 3e  	csrwi	pmpaddr50, 0
    6774: 73 50 30 3e  	csrwi	pmpaddr51, 0
    6778: 73 d0 40 3e  	csrwi	pmpaddr52, 1
    677c: 73 50 54 3e  	csrwi	pmpaddr53, 8
    6780: 73 d0 60 3e  	csrwi	pmpaddr54, 1
    6784: 73 50 74 3e  	csrwi	pmpaddr55, 8
    6788: 73 d0 80 3e  	csrwi	pmpaddr56, 1
    678c: 73 50 94 3e  	csrwi	pmpaddr57, 8
    6790: 73 50 a2 3e  	csrwi	pmpaddr58, 4
    6794: 13 05 00 02  	li	a0, 32
    6798: 73 10 b5 3e  	csrw	pmpaddr59, a0
    679c: 73 50 c0 3e  	csrwi	pmpaddr60, 0
    67a0: 73 50 d0 3e  	csrwi	pmpaddr61, 0
    67a4: 37 05 00 10  	lui	a0, 65536
    67a8: 93 05 05 08  	addi	a1, a0, 128
    67ac: 73 90 e5 3e  	csrw	pmpaddr62, a1
    67b0: 13 05 05 04  	addi	a0, a0, 64
    67b4: 73 10 f5 3e  	csrw	pmpaddr63, a0
    67b8: 73 10 09 3f  	csrw	1008, s2
    67bc: 73 90 19 3f  	csrw	1009, s3
    67c0: 73 90 29 3f  	csrw	1010, s3
    67c4: 73 50 30 3f  	csrwi	1011, 0
    67c8: 73 d0 70 3f  	csrwi	1015, 1
    67cc: 73 50 88 3f  	csrwi	1016, 16
    67d0: 73 d0 90 3f  	csrwi	1017, 1
    67d4: 73 50 a0 3f  	csrwi	1018, 0
    67d8: 37 85 25 7f  	lui	a0, 520792
    67dc: 73 10 b5 3f  	csrw	1019, a0
    67e0: 13 05 00 18  	li	a0, 384
    67e4: 73 10 c5 3f  	csrw	1020, a0
    67e8: 37 05 eb 41  	lui	a0, 270000
    67ec: 13 05 a5 62  	addi	a0, a0, 1578
    67f0: 73 10 d5 3f  	csrw	1021, a0
    67f4: 73 50 e8 3f  	csrwi	1022, 16
    67f8: 73 50 f0 3f  	csrwi	1023, 0
    67fc: 73 d0 40 3f  	csrwi	1012, 1
    6800: 73 d0 00 40  	csrwi	1024, 1
    6804: 73 50 40 3f  	csrwi	1012, 0
    6808: 73 50 40 3f  	csrwi	1012, 0
    680c: 73 50 00 40  	csrwi	1024, 0
    6810: 73 50 00 40  	csrwi	1024, 0

00006814 <.LBB0_313>:
    6814: 93 06 20 00  	li	a3, 2
    6818: 13 85 09 00  	mv	a0, s3
    681c: 93 85 09 00  	mv	a1, s3
    6820: 13 06 09 00  	mv	a2, s2
    6824: 97 00 00 00  	auipc	ra, 0
    6828: e7 80 00 00  	jalr	ra
    682c: 97 00 00 00  	auipc	ra, 0
    6830: e7 80 00 00  	jalr	ra
    6834: 63 80 0c 00  	beqz	s9, 0x6834 <.LBB0_313+0x20>
    6838: 13 06 80 00  	li	a2, 8
    683c: 93 06 00 10  	li	a3, 256
    6840: 13 07 80 00  	li	a4, 8
    6844: 93 07 00 01  	li	a5, 16
    6848: 13 05 09 00  	mv	a0, s2
    684c: 93 85 04 00  	mv	a1, s1
    6850: 97 00 00 00  	auipc	ra, 0
    6854: e7 80 00 00  	jalr	ra
    6858: 13 05 89 00  	addi	a0, s2, 8
    685c: 93 85 04 08  	addi	a1, s1, 128
    6860: 13 06 80 00  	li	a2, 8
    6864: 93 06 00 10  	li	a3, 256
    6868: 13 07 80 00  	li	a4, 8
    686c: 93 07 00 01  	li	a5, 16
    6870: 97 00 00 00  	auipc	ra, 0
    6874: e7 80 00 00  	jalr	ra
    6878: 13 05 09 01  	addi	a0, s2, 16
    687c: 93 85 04 10  	addi	a1, s1, 256
    6880: 13 06 80 00  	li	a2, 8
    6884: 93 06 00 10  	li	a3, 256
    6888: 13 07 80 00  	li	a4, 8
    688c: 93 07 00 01  	li	a5, 16
    6890: 97 00 00 00  	auipc	ra, 0
    6894: e7 80 00 00  	jalr	ra
    6898: 13 05 89 01  	addi	a0, s2, 24
    689c: 93 85 04 18  	addi	a1, s1, 384
    68a0: 13 06 80 00  	li	a2, 8
    68a4: 93 06 00 10  	li	a3, 256
    68a8: 13 07 80 00  	li	a4, 8
    68ac: 93 07 00 01  	li	a5, 16
    68b0: 97 00 00 00  	auipc	ra, 0
    68b4: e7 80 00 00  	jalr	ra
    68b8: 13 05 09 02  	addi	a0, s2, 32
    68bc: 93 85 04 20  	addi	a1, s1, 512
    68c0: 13 06 80 00  	li	a2, 8
    68c4: 93 06 00 10  	li	a3, 256
    68c8: 13 07 80 00  	li	a4, 8
    68cc: 93 07 00 01  	li	a5, 16
    68d0: 97 00 00 00  	auipc	ra, 0
    68d4: e7 80 00 00  	jalr	ra
    68d8: 13 05 89 02  	addi	a0, s2, 40
    68dc: 93 85 04 28  	addi	a1, s1, 640
    68e0: 13 06 80 00  	li	a2, 8
    68e4: 93 06 00 10  	li	a3, 256
    68e8: 13 07 80 00  	li	a4, 8
    68ec: 93 07 00 01  	li	a5, 16
    68f0: 97 00 00 00  	auipc	ra, 0
    68f4: e7 80 00 00  	jalr	ra
    68f8: 13 05 09 03  	addi	a0, s2, 48
    68fc: 93 85 04 30  	addi	a1, s1, 768
    6900: 13 06 80 00  	li	a2, 8
    6904: 93 06 00 10  	li	a3, 256
    6908: 13 07 80 00  	li	a4, 8
    690c: 93 07 00 01  	li	a5, 16
    6910: 97 00 00 00  	auipc	ra, 0
    6914: e7 80 00 00  	jalr	ra
    6918: 13 05 89 03  	addi	a0, s2, 56
    691c: 93 85 04 38  	addi	a1, s1, 896
    6920: 13 06 80 00  	li	a2, 8
    6924: 93 06 00 10  	li	a3, 256
    6928: 13 07 80 00  	li	a4, 8
    692c: 93 07 00 01  	li	a5, 16
    6930: 97 00 00 00  	auipc	ra, 0
    6934: e7 80 00 00  	jalr	ra

00006938 <.LBB0_315>:
    6938: 97 00 00 00  	auipc	ra, 0
    693c: e7 80 00 00  	jalr	ra

00006940 <.Lpcrel_hi145>:
    6940: 17 05 00 00  	auipc	a0, 0
    6944: 13 05 05 00  	mv	a0, a0

00006948 <.Lpcrel_hi146>:
    6948: 97 05 00 00  	auipc	a1, 0
    694c: 93 8a 05 00  	mv	s5, a1
    6950: 93 06 30 00  	li	a3, 3
    6954: 93 05 05 00  	mv	a1, a0
    6958: 13 86 0a 00  	mv	a2, s5
    695c: 97 00 00 00  	auipc	ra, 0
    6960: e7 80 00 00  	jalr	ra
    6964: 97 00 00 00  	auipc	ra, 0
    6968: e7 80 00 00  	jalr	ra

0000696c <.Lpcrel_hi147>:
    696c: 17 05 00 00  	auipc	a0, 0
    6970: 13 0b 05 00  	mv	s6, a0

00006974 <.Lpcrel_hi148>:
    6974: 17 05 00 00  	auipc	a0, 0
    6978: 13 0a 05 00  	mv	s4, a0
    697c: 13 85 0a 00  	mv	a0, s5
    6980: 93 05 0b 00  	mv	a1, s6
    6984: 13 06 0a 00  	mv	a2, s4
    6988: 93 06 00 00  	li	a3, 0
    698c: 97 00 00 00  	auipc	ra, 0
    6990: e7 80 00 00  	jalr	ra
    6994: 37 15 00 00  	lui	a0, 1
    6998: 13 05 05 f4  	addi	a0, a0, -192
    699c: 93 05 00 04  	li	a1, 64
    69a0: 97 00 00 00  	auipc	ra, 0
    69a4: e7 80 00 00  	jalr	ra
    69a8: 83 29 45 00  	lw	s3, 4(a0)
    69ac: 37 05 05 00  	lui	a0, 80
    69b0: 13 05 05 f4  	addi	a0, a0, -192
    69b4: 93 05 00 04  	li	a1, 64
    69b8: 97 00 00 00  	auipc	ra, 0
    69bc: e7 80 00 00  	jalr	ra
    69c0: 83 24 45 00  	lw	s1, 4(a0)
    69c4: 37 55 00 00  	lui	a0, 5
    69c8: 93 05 00 04  	li	a1, 64
    69cc: 97 00 00 00  	auipc	ra, 0
    69d0: e7 80 00 00  	jalr	ra
    69d4: 03 29 45 00  	lw	s2, 4(a0)
    69d8: 63 80 0c 00  	beqz	s9, 0x69d8 <.Lpcrel_hi148+0x64>
    69dc: 23 26 41 01  	sw	s4, 12(sp)
    69e0: 13 04 00 00  	li	s0, 0
    69e4: 13 0c 7b 00  	addi	s8, s6, 7
    69e8: 13 0d 80 00  	li	s10, 8
    69ec: 93 0c 50 00  	li	s9, 5
    69f0: 93 9c ac 00  	slli	s9, s9, 10
    69f4: 93 0d 00 01  	li	s11, 16
    69f8: 23 24 91 00  	sw	s1, 8(sp)
    69fc: 13 8a 04 00  	mv	s4, s1

00006a00 <.LBB0_317>:
    6a00: 93 04 00 00  	li	s1, 0
    6a04: 13 0b 0c 00  	mv	s6, s8

00006a08 <.LBB0_318>:
    6a08: 13 05 9b ff  	addi	a0, s6, -7
    6a0c: b3 0b 9a 00  	add	s7, s4, s1
    6a10: 13 06 10 00  	li	a2, 1
    6a14: 93 06 80 00  	li	a3, 8
    6a18: 37 17 00 00  	lui	a4, 1
    6a1c: 93 07 00 05  	li	a5, 80
    6a20: 93 85 0b 00  	mv	a1, s7
    6a24: 97 00 00 00  	auipc	ra, 0
    6a28: e7 80 00 00  	jalr	ra
    6a2c: 13 05 ab ff  	addi	a0, s6, -6
    6a30: 93 85 8b 00  	addi	a1, s7, 8
    6a34: 13 06 10 00  	li	a2, 1
    6a38: 93 06 80 00  	li	a3, 8
    6a3c: 37 17 00 00  	lui	a4, 1
    6a40: 93 07 00 05  	li	a5, 80
    6a44: 97 00 00 00  	auipc	ra, 0
    6a48: e7 80 00 00  	jalr	ra
    6a4c: 13 05 bb ff  	addi	a0, s6, -5
    6a50: 93 85 0b 01  	addi	a1, s7, 16
    6a54: 13 06 10 00  	li	a2, 1
    6a58: 93 06 80 00  	li	a3, 8
    6a5c: 37 17 00 00  	lui	a4, 1
    6a60: 93 07 00 05  	li	a5, 80
    6a64: 97 00 00 00  	auipc	ra, 0
    6a68: e7 80 00 00  	jalr	ra
    6a6c: 13 05 cb ff  	addi	a0, s6, -4
    6a70: 93 85 8b 01  	addi	a1, s7, 24
    6a74: 13 06 10 00  	li	a2, 1
    6a78: 93 06 80 00  	li	a3, 8
    6a7c: 37 17 00 00  	lui	a4, 1
    6a80: 93 07 00 05  	li	a5, 80
    6a84: 97 00 00 00  	auipc	ra, 0
    6a88: e7 80 00 00  	jalr	ra
    6a8c: 13 05 db ff  	addi	a0, s6, -3
    6a90: 93 85 0b 02  	addi	a1, s7, 32
    6a94: 13 06 10 00  	li	a2, 1
    6a98: 93 06 80 00  	li	a3, 8
    6a9c: 37 17 00 00  	lui	a4, 1
    6aa0: 93 07 00 05  	li	a5, 80
    6aa4: 97 00 00 00  	auipc	ra, 0
    6aa8: e7 80 00 00  	jalr	ra
    6aac: 13 05 eb ff  	addi	a0, s6, -2
    6ab0: 93 85 8b 02  	addi	a1, s7, 40
    6ab4: 13 06 10 00  	li	a2, 1
    6ab8: 93 06 80 00  	li	a3, 8
    6abc: 37 17 00 00  	lui	a4, 1
    6ac0: 93 07 00 05  	li	a5, 80
    6ac4: 97 00 00 00  	auipc	ra, 0
    6ac8: e7 80 00 00  	jalr	ra
    6acc: 13 05 fb ff  	addi	a0, s6, -1
    6ad0: 93 85 0b 03  	addi	a1, s7, 48
    6ad4: 13 06 10 00  	li	a2, 1
    6ad8: 93 06 80 00  	li	a3, 8
    6adc: 37 17 00 00  	lui	a4, 1
    6ae0: 93 07 00 05  	li	a5, 80
    6ae4: 97 00 00 00  	auipc	ra, 0
    6ae8: e7 80 00 00  	jalr	ra
    6aec: 93 85 8b 03  	addi	a1, s7, 56
    6af0: 13 06 10 00  	li	a2, 1
    6af4: 93 06 80 00  	li	a3, 8
    6af8: 37 17 00 00  	lui	a4, 1
    6afc: 93 07 00 05  	li	a5, 80
    6b00: 13 05 0b 00  	mv	a0, s6
    6b04: 97 00 00 00  	auipc	ra, 0
    6b08: e7 80 00 00  	jalr	ra
    6b0c: 93 84 14 00  	addi	s1, s1, 1
    6b10: 13 0b 0b 28  	addi	s6, s6, 640
    6b14: 63 90 a4 01  	bne	s1, s10, 0x6b14 <.LBB0_318+0x10c>
    6b18: 13 04 14 00  	addi	s0, s0, 1
    6b1c: 13 0a 0a 10  	addi	s4, s4, 256
    6b20: 33 0c 9c 01  	add	s8, s8, s9
    6b24: 63 10 b4 01  	bne	s0, s11, 0x6b24 <.LBB0_318+0x11c>
    6b28: 13 06 80 00  	li	a2, 8
    6b2c: 93 06 80 00  	li	a3, 8
    6b30: 13 07 00 10  	li	a4, 256
    6b34: 93 07 00 01  	li	a5, 16
    6b38: 13 85 0a 00  	mv	a0, s5
    6b3c: 93 85 09 00  	mv	a1, s3
    6b40: 97 00 00 00  	auipc	ra, 0
    6b44: e7 80 00 00  	jalr	ra
    6b48: 93 85 89 00  	addi	a1, s3, 8
    6b4c: 13 85 0a 08  	addi	a0, s5, 128
    6b50: 13 06 80 00  	li	a2, 8
    6b54: 93 06 80 00  	li	a3, 8
    6b58: 13 07 00 10  	li	a4, 256
    6b5c: 93 07 00 01  	li	a5, 16
    6b60: 97 00 00 00  	auipc	ra, 0
    6b64: e7 80 00 00  	jalr	ra
    6b68: 93 85 09 01  	addi	a1, s3, 16
    6b6c: 13 85 0a 10  	addi	a0, s5, 256
    6b70: 13 06 80 00  	li	a2, 8
    6b74: 93 06 80 00  	li	a3, 8
    6b78: 13 07 00 10  	li	a4, 256
    6b7c: 93 07 00 01  	li	a5, 16
    6b80: 97 00 00 00  	auipc	ra, 0
    6b84: e7 80 00 00  	jalr	ra
    6b88: 93 85 89 01  	addi	a1, s3, 24
    6b8c: 13 85 0a 18  	addi	a0, s5, 384
    6b90: 13 06 80 00  	li	a2, 8
    6b94: 93 06 80 00  	li	a3, 8
    6b98: 13 07 00 10  	li	a4, 256
    6b9c: 93 07 00 01  	li	a5, 16
    6ba0: 97 00 00 00  	auipc	ra, 0
    6ba4: e7 80 00 00  	jalr	ra
    6ba8: 93 85 09 02  	addi	a1, s3, 32
    6bac: 13 85 0a 20  	addi	a0, s5, 512
    6bb0: 13 06 80 00  	li	a2, 8
    6bb4: 93 06 80 00  	li	a3, 8
    6bb8: 13 07 00 10  	li	a4, 256
    6bbc: 93 07 00 01  	li	a5, 16
    6bc0: 97 00 00 00  	auipc	ra, 0
    6bc4: e7 80 00 00  	jalr	ra
    6bc8: 93 85 89 02  	addi	a1, s3, 40
    6bcc: 13 85 0a 28  	addi	a0, s5, 640
    6bd0: 13 06 80 00  	li	a2, 8
    6bd4: 93 06 80 00  	li	a3, 8
    6bd8: 13 07 00 10  	li	a4, 256
    6bdc: 93 07 00 01  	li	a5, 16
    6be0: 97 00 00 00  	auipc	ra, 0
    6be4: e7 80 00 00  	jalr	ra
    6be8: 93 85 09 03  	addi	a1, s3, 48
    6bec: 13 85 0a 30  	addi	a0, s5, 768
    6bf0: 13 06 80 00  	li	a2, 8
    6bf4: 93 06 80 00  	li	a3, 8
    6bf8: 13 07 00 10  	li	a4, 256
    6bfc: 93 07 00 01  	li	a5, 16
    6c00: 97 00 00 00  	auipc	ra, 0
    6c04: e7 80 00 00  	jalr	ra
    6c08: 93 85 89 03  	addi	a1, s3, 56
    6c0c: 13 85 0a 38  	addi	a0, s5, 896
    6c10: 13 06 80 00  	li	a2, 8
    6c14: 93 06 80 00  	li	a3, 8
    6c18: 13 07 00 10  	li	a4, 256
    6c1c: 93 07 00 01  	li	a5, 16
    6c20: 97 00 00 00  	auipc	ra, 0
    6c24: e7 80 00 00  	jalr	ra
    6c28: 83 2c 81 01  	lw	s9, 24(sp)
    6c2c: 03 2d 41 01  	lw	s10, 20(sp)
    6c30: 03 2a c1 00  	lw	s4, 12(sp)
    6c34: 83 24 81 00  	lw	s1, 8(sp)

00006c38 <.LBB0_321>:
    6c38: 97 00 00 00  	auipc	ra, 0
    6c3c: e7 80 00 00  	jalr	ra
    6c40: 93 06 10 00  	li	a3, 1
    6c44: 13 85 09 00  	mv	a0, s3
    6c48: 93 85 04 00  	mv	a1, s1
    6c4c: 13 06 09 00  	mv	a2, s2
    6c50: 97 00 00 00  	auipc	ra, 0
    6c54: e7 80 00 00  	jalr	ra
    6c58: 63 00 0d 00  	beqz	s10, 0x6c58 <.LBB0_321+0x20>
    6c5c: 73 d0 00 3c  	csrwi	pmpaddr16, 1
    6c60: 73 d0 10 3c  	csrwi	pmpaddr17, 1
    6c64: 73 d0 20 3c  	csrwi	pmpaddr18, 1
    6c68: 73 50 38 3c  	csrwi	pmpaddr19, 16
    6c6c: 13 05 00 05  	li	a0, 80
    6c70: 73 10 45 3c  	csrw	pmpaddr20, a0
    6c74: 73 d0 50 3c  	csrwi	pmpaddr21, 1
    6c78: 73 50 68 3c  	csrwi	pmpaddr22, 16
    6c7c: 73 10 75 3c  	csrw	pmpaddr23, a0
    6c80: 73 d0 80 3c  	csrwi	pmpaddr24, 1
    6c84: 73 50 90 3c  	csrwi	pmpaddr25, 0
    6c88: 73 50 a0 3c  	csrwi	pmpaddr26, 0
    6c8c: 73 50 b0 3c  	csrwi	pmpaddr27, 0
    6c90: 73 d0 c0 3c  	csrwi	pmpaddr28, 1
    6c94: 73 10 d5 3c  	csrw	pmpaddr29, a0
    6c98: 73 d0 e0 3c  	csrwi	pmpaddr30, 1
    6c9c: 73 d0 f0 3c  	csrwi	pmpaddr31, 1
    6ca0: 73 10 05 3d  	csrw	pmpaddr32, a0
    6ca4: 73 d0 10 3d  	csrwi	pmpaddr33, 1
    6ca8: 73 50 20 3d  	csrwi	pmpaddr34, 0
    6cac: 73 50 30 3d  	csrwi	pmpaddr35, 0
    6cb0: 73 50 40 3d  	csrwi	pmpaddr36, 0
    6cb4: 93 05 00 10  	li	a1, 256
    6cb8: 73 90 55 3d  	csrw	pmpaddr37, a1
    6cbc: 73 50 60 3d  	csrwi	pmpaddr38, 0
    6cc0: 37 16 00 00  	lui	a2, 1
    6cc4: 73 10 76 3d  	csrw	pmpaddr39, a2
    6cc8: 73 90 85 3d  	csrw	pmpaddr40, a1
    6ccc: 73 10 96 3d  	csrw	pmpaddr41, a2
    6cd0: 73 50 a0 3d  	csrwi	pmpaddr42, 0
    6cd4: 73 50 b0 3d  	csrwi	pmpaddr43, 0
    6cd8: 73 50 c0 3d  	csrwi	pmpaddr44, 0
    6cdc: 73 50 d0 3d  	csrwi	pmpaddr45, 0
    6ce0: 73 50 e0 3d  	csrwi	pmpaddr46, 0
    6ce4: 73 90 f5 3d  	csrw	pmpaddr47, a1
    6ce8: 37 56 00 00  	lui	a2, 5
    6cec: 73 10 06 3e  	csrw	pmpaddr48, a2
    6cf0: 73 50 10 3e  	csrwi	pmpaddr49, 0
    6cf4: 73 90 25 3e  	csrw	pmpaddr50, a1
    6cf8: 73 10 36 3e  	csrw	pmpaddr51, a2
    6cfc: 73 d0 40 3e  	csrwi	pmpaddr52, 1
    6d00: 73 50 54 3e  	csrwi	pmpaddr53, 8
    6d04: 73 d0 60 3e  	csrwi	pmpaddr54, 1
    6d08: 73 50 74 3e  	csrwi	pmpaddr55, 8
    6d0c: 73 50 80 3e  	csrwi	pmpaddr56, 0
    6d10: 73 50 90 3e  	csrwi	pmpaddr57, 0
    6d14: 73 50 a2 3e  	csrwi	pmpaddr58, 4
    6d18: 93 05 00 02  	li	a1, 32
    6d1c: 73 90 b5 3e  	csrw	pmpaddr59, a1
    6d20: 73 50 c2 3e  	csrwi	pmpaddr60, 4
    6d24: 73 90 d5 3e  	csrw	pmpaddr61, a1
    6d28: 73 90 e9 3e  	csrw	pmpaddr62, s3
    6d2c: 73 90 f4 3e  	csrw	pmpaddr63, s1
    6d30: 73 90 04 3f  	csrw	1008, s1
    6d34: 73 10 19 3f  	csrw	1009, s2
    6d38: 73 10 29 3f  	csrw	1010, s2
    6d3c: 73 50 30 3f  	csrwi	1011, 0
    6d40: 73 50 78 3f  	csrwi	1015, 16
    6d44: 73 10 85 3f  	csrw	1016, a0
    6d48: 73 d0 90 3f  	csrwi	1017, 1
    6d4c: 13 05 00 08  	li	a0, 128
    6d50: 73 10 a5 3f  	csrw	1018, a0
    6d54: 73 50 b0 3f  	csrwi	1019, 0
    6d58: 73 50 c0 3f  	csrwi	1020, 0
    6d5c: 73 50 d0 3f  	csrwi	1021, 0
    6d60: 73 50 e0 3f  	csrwi	1022, 0
    6d64: 73 d0 f0 3f  	csrwi	1023, 1
    6d68: 73 d0 40 3f  	csrwi	1012, 1
    6d6c: 73 d0 00 40  	csrwi	1024, 1
    6d70: 73 50 40 3f  	csrwi	1012, 0
    6d74: 73 50 40 3f  	csrwi	1012, 0
    6d78: 73 50 00 40  	csrwi	1024, 0
    6d7c: 73 50 00 40  	csrwi	1024, 0

00006d80 <.LBB0_323>:
    6d80: 93 06 20 00  	li	a3, 2
    6d84: 13 85 09 00  	mv	a0, s3
    6d88: 93 85 04 00  	mv	a1, s1
    6d8c: 13 06 09 00  	mv	a2, s2
    6d90: 97 00 00 00  	auipc	ra, 0
    6d94: e7 80 00 00  	jalr	ra
    6d98: 97 00 00 00  	auipc	ra, 0
    6d9c: e7 80 00 00  	jalr	ra
    6da0: 63 80 0c 00  	beqz	s9, 0x6da0 <.LBB0_323+0x20>
    6da4: 13 06 00 02  	li	a2, 32
    6da8: 93 06 00 10  	li	a3, 256
    6dac: 13 07 00 02  	li	a4, 32
    6db0: 93 07 00 05  	li	a5, 80
    6db4: 13 05 09 00  	mv	a0, s2
    6db8: 93 05 0a 00  	mv	a1, s4
    6dbc: 97 00 00 00  	auipc	ra, 0
    6dc0: e7 80 00 00  	jalr	ra
    6dc4: 13 05 09 02  	addi	a0, s2, 32
    6dc8: 93 05 fa 7f  	addi	a1, s4, 2047
    6dcc: 93 85 15 20  	addi	a1, a1, 513
    6dd0: 13 06 00 02  	li	a2, 32
    6dd4: 93 06 00 10  	li	a3, 256
    6dd8: 13 07 00 02  	li	a4, 32
    6ddc: 93 07 00 05  	li	a5, 80
    6de0: 97 00 00 00  	auipc	ra, 0
    6de4: e7 80 00 00  	jalr	ra
    6de8: 13 05 09 04  	addi	a0, s2, 64
    6dec: 13 04 50 00  	li	s0, 5
    6df0: 93 15 a4 00  	slli	a1, s0, 10
    6df4: b3 05 ba 00  	add	a1, s4, a1
    6df8: 13 06 00 02  	li	a2, 32
    6dfc: 93 06 00 10  	li	a3, 256
    6e00: 13 07 00 02  	li	a4, 32
    6e04: 93 07 00 05  	li	a5, 80
    6e08: 97 00 00 00  	auipc	ra, 0
    6e0c: e7 80 00 00  	jalr	ra
    6e10: 13 05 09 06  	addi	a0, s2, 96
    6e14: 93 04 f0 00  	li	s1, 15
    6e18: 93 95 94 00  	slli	a1, s1, 9
    6e1c: b3 05 ba 00  	add	a1, s4, a1
    6e20: 13 06 00 02  	li	a2, 32
    6e24: 93 06 00 10  	li	a3, 256
    6e28: 13 07 00 02  	li	a4, 32
    6e2c: 93 07 00 05  	li	a5, 80
    6e30: 97 00 00 00  	auipc	ra, 0
    6e34: e7 80 00 00  	jalr	ra
    6e38: 13 05 09 08  	addi	a0, s2, 128
    6e3c: 93 15 b4 00  	slli	a1, s0, 11
    6e40: b3 05 ba 00  	add	a1, s4, a1
    6e44: 13 06 00 02  	li	a2, 32
    6e48: 93 06 00 10  	li	a3, 256
    6e4c: 13 07 00 02  	li	a4, 32
    6e50: 93 07 00 05  	li	a5, 80
    6e54: 97 00 00 00  	auipc	ra, 0
    6e58: e7 80 00 00  	jalr	ra
    6e5c: 13 05 09 0a  	addi	a0, s2, 160
    6e60: 93 05 90 01  	li	a1, 25
    6e64: 93 95 95 00  	slli	a1, a1, 9
    6e68: b3 05 ba 00  	add	a1, s4, a1
    6e6c: 13 06 00 02  	li	a2, 32
    6e70: 93 06 00 10  	li	a3, 256
    6e74: 13 07 00 02  	li	a4, 32
    6e78: 93 07 00 05  	li	a5, 80
    6e7c: 97 00 00 00  	auipc	ra, 0
    6e80: e7 80 00 00  	jalr	ra
    6e84: 13 05 09 0c  	addi	a0, s2, 192
    6e88: 93 95 a4 00  	slli	a1, s1, 10
    6e8c: b3 05 ba 00  	add	a1, s4, a1
    6e90: 13 06 00 02  	li	a2, 32
    6e94: 93 06 00 10  	li	a3, 256
    6e98: 13 07 00 02  	li	a4, 32
    6e9c: 93 07 00 05  	li	a5, 80
    6ea0: 97 00 00 00  	auipc	ra, 0
    6ea4: e7 80 00 00  	jalr	ra
    6ea8: 13 05 09 0e  	addi	a0, s2, 224
    6eac: b7 45 00 00  	lui	a1, 4
    6eb0: 93 85 05 60  	addi	a1, a1, 1536
    6eb4: b3 05 ba 00  	add	a1, s4, a1
    6eb8: 13 06 00 02  	li	a2, 32
    6ebc: 93 06 00 10  	li	a3, 256
    6ec0: 13 07 00 02  	li	a4, 32
    6ec4: 93 07 00 05  	li	a5, 80
    6ec8: 97 00 00 00  	auipc	ra, 0
    6ecc: e7 80 00 00  	jalr	ra

00006ed0 <.LBB0_325>:
    6ed0: 97 00 00 00  	auipc	ra, 0
    6ed4: e7 80 00 00  	jalr	ra

00006ed8 <.Lpcrel_hi149>:
    6ed8: 17 05 00 00  	auipc	a0, 0
    6edc: 13 05 05 00  	mv	a0, a0

00006ee0 <.Lpcrel_hi150>:
    6ee0: 97 05 00 00  	auipc	a1, 0
    6ee4: 93 85 05 00  	mv	a1, a1

00006ee8 <.Lpcrel_hi151>:
    6ee8: 17 06 00 00  	auipc	a2, 0
    6eec: 93 04 06 00  	mv	s1, a2
    6ef0: 93 06 30 00  	li	a3, 3
    6ef4: 13 86 04 00  	mv	a2, s1
    6ef8: 97 00 00 00  	auipc	ra, 0
    6efc: e7 80 00 00  	jalr	ra
    6f00: 97 00 00 00  	auipc	ra, 0
    6f04: e7 80 00 00  	jalr	ra

00006f08 <.Lpcrel_hi152>:
    6f08: 17 05 00 00  	auipc	a0, 0
    6f0c: 13 05 05 00  	mv	a0, a0

00006f10 <.Lpcrel_hi153>:
    6f10: 97 05 00 00  	auipc	a1, 0
    6f14: 13 86 05 00  	mv	a2, a1
    6f18: 93 85 04 00  	mv	a1, s1
    6f1c: 93 06 00 00  	li	a3, 0
    6f20: 97 00 00 00  	auipc	ra, 0
    6f24: e7 80 00 00  	jalr	ra
    6f28: 13 04 50 00  	li	s0, 5
    6f2c: 13 1a 94 00  	slli	s4, s0, 9
    6f30: 93 05 00 04  	li	a1, 64
    6f34: 13 05 0a 00  	mv	a0, s4
    6f38: 97 00 00 00  	auipc	ra, 0
    6f3c: e7 80 00 00  	jalr	ra
    6f40: 83 24 45 00  	lw	s1, 4(a0)
    6f44: 37 55 00 00  	lui	a0, 5
    6f48: 93 05 00 04  	li	a1, 64
    6f4c: 97 00 00 00  	auipc	ra, 0
    6f50: e7 80 00 00  	jalr	ra
    6f54: 83 29 45 00  	lw	s3, 4(a0)
    6f58: 37 55 00 00  	lui	a0, 5
    6f5c: 93 05 00 04  	li	a1, 64
    6f60: 97 00 00 00  	auipc	ra, 0
    6f64: e7 80 00 00  	jalr	ra
    6f68: 03 29 45 00  	lw	s2, 4(a0)
    6f6c: 63 80 0c 00  	beqz	s9, 0x6f6c <.Lpcrel_hi153+0x5c>

00006f70 <.Lpcrel_hi154>:
    6f70: 17 05 00 00  	auipc	a0, 0
    6f74: 13 05 05 00  	mv	a0, a0
    6f78: 37 56 00 00  	lui	a2, 5
    6f7c: 93 85 09 00  	mv	a1, s3
    6f80: 97 00 00 00  	auipc	ra, 0
    6f84: e7 80 00 00  	jalr	ra

00006f88 <.Lpcrel_hi155>:
    6f88: 17 05 00 00  	auipc	a0, 0
    6f8c: 13 05 05 00  	mv	a0, a0
    6f90: 93 85 04 00  	mv	a1, s1
    6f94: 13 06 0a 00  	mv	a2, s4
    6f98: 97 00 00 00  	auipc	ra, 0
    6f9c: e7 80 00 00  	jalr	ra

00006fa0 <.LBB0_327>:
    6fa0: 97 00 00 00  	auipc	ra, 0
    6fa4: e7 80 00 00  	jalr	ra
    6fa8: 93 06 10 00  	li	a3, 1
    6fac: 13 85 04 00  	mv	a0, s1
    6fb0: 93 85 09 00  	mv	a1, s3
    6fb4: 13 06 09 00  	mv	a2, s2
    6fb8: 97 00 00 00  	auipc	ra, 0
    6fbc: e7 80 00 00  	jalr	ra
    6fc0: 63 00 0d 00  	beqz	s10, 0x6fc0 <.LBB0_327+0x20>
    6fc4: 37 45 00 00  	lui	a0, 4
    6fc8: 93 05 f0 00  	li	a1, 15
    6fcc: 13 06 90 01  	li	a2, 25
    6fd0: 93 06 05 60  	addi	a3, a0, 1536
    6fd4: 93 97 a5 00  	slli	a5, a1, 10
    6fd8: 93 18 96 00  	slli	a7, a2, 9
    6fdc: 13 13 b4 00  	slli	t1, s0, 11
    6fe0: 13 9e 95 00  	slli	t3, a1, 9
    6fe4: 13 14 a4 00  	slli	s0, s0, 10
    6fe8: 33 85 d9 00  	add	a0, s3, a3
    6fec: 33 86 f9 00  	add	a2, s3, a5
    6ff0: 33 87 19 01  	add	a4, s3, a7
    6ff4: 33 88 69 00  	add	a6, s3, t1
    6ff8: b3 82 c9 01  	add	t0, s3, t3
    6ffc: b3 83 89 00  	add	t2, s3, s0
    7000: b3 8e 49 01  	add	t4, s3, s4
    7004: b3 05 d9 00  	add	a1, s2, a3
    7008: b3 06 f9 00  	add	a3, s2, a5
    700c: b3 07 19 01  	add	a5, s2, a7
    7010: b3 08 69 00  	add	a7, s2, t1
    7014: 33 03 c9 01  	add	t1, s2, t3
    7018: 33 0e 89 00  	add	t3, s2, s0
    701c: 33 0a 49 01  	add	s4, s2, s4
    7020: 13 0f 00 28  	li	t5, 640
    7024: 93 8f 04 00  	mv	t6, s1
    7028: 13 04 09 00  	mv	s0, s2
    702c: 93 8a 09 00  	mv	s5, s3

00007030 <.LBB0_329>:
    7030: 03 ab 0f 00  	lw	s6, 0(t6)
    7034: 83 ab 0a 00  	lw	s7, 0(s5)
    7038: 33 8b 6b 01  	add	s6, s7, s6
    703c: 23 20 64 01  	sw	s6, 0(s0)
    7040: 93 8a 4a 00  	addi	s5, s5, 4
    7044: 13 04 44 00  	addi	s0, s0, 4
    7048: 13 0f ff ff  	addi	t5, t5, -1
    704c: 93 8f 4f 00  	addi	t6, t6, 4
    7050: 63 10 0f 00  	bnez	t5, 0x7050 <.LBB0_329+0x20>
    7054: 13 0f 00 28  	li	t5, 640
    7058: 93 8f 04 00  	mv	t6, s1

0000705c <.LBB0_331>:
    705c: 03 a4 0f 00  	lw	s0, 0(t6)
    7060: 83 aa 0e 00  	lw	s5, 0(t4)
    7064: 33 84 8a 00  	add	s0, s5, s0
    7068: 23 20 8a 00  	sw	s0, 0(s4)
    706c: 13 0f ff ff  	addi	t5, t5, -1
    7070: 13 0a 4a 00  	addi	s4, s4, 4
    7074: 93 8e 4e 00  	addi	t4, t4, 4
    7078: 93 8f 4f 00  	addi	t6, t6, 4
    707c: 63 10 0f 00  	bnez	t5, 0x707c <.LBB0_331+0x20>
    7080: 93 0e 00 28  	li	t4, 640
    7084: 13 8f 04 00  	mv	t5, s1

00007088 <.LBB0_333>:
    7088: 83 2f 0f 00  	lw	t6, 0(t5)
    708c: 03 a4 03 00  	lw	s0, 0(t2)
    7090: b3 0f f4 01  	add	t6, s0, t6
    7094: 23 20 fe 01  	sw	t6, 0(t3)
    7098: 93 8e fe ff  	addi	t4, t4, -1
    709c: 13 0e 4e 00  	addi	t3, t3, 4
    70a0: 93 83 43 00  	addi	t2, t2, 4
    70a4: 13 0f 4f 00  	addi	t5, t5, 4
    70a8: 63 90 0e 00  	bnez	t4, 0x70a8 <.LBB0_333+0x20>
    70ac: 93 03 00 28  	li	t2, 640
    70b0: 13 8e 04 00  	mv	t3, s1

000070b4 <.LBB0_335>:
    70b4: 83 2e 0e 00  	lw	t4, 0(t3)
    70b8: 03 af 02 00  	lw	t5, 0(t0)
    70bc: b3 0e df 01  	add	t4, t5, t4
    70c0: 23 20 d3 01  	sw	t4, 0(t1)
    70c4: 93 83 f3 ff  	addi	t2, t2, -1
    70c8: 13 03 43 00  	addi	t1, t1, 4
    70cc: 93 82 42 00  	addi	t0, t0, 4
    70d0: 13 0e 4e 00  	addi	t3, t3, 4
    70d4: 63 90 03 00  	bnez	t2, 0x70d4 <.LBB0_335+0x20>
    70d8: 93 02 00 28  	li	t0, 640
    70dc: 13 83 04 00  	mv	t1, s1

000070e0 <.LBB0_337>:
    70e0: 83 23 03 00  	lw	t2, 0(t1)
    70e4: 03 2e 08 00  	lw	t3, 0(a6)
    70e8: b3 03 7e 00  	add	t2, t3, t2
    70ec: 23 a0 78 00  	sw	t2, 0(a7)
    70f0: 93 82 f2 ff  	addi	t0, t0, -1
    70f4: 93 88 48 00  	addi	a7, a7, 4
    70f8: 13 08 48 00  	addi	a6, a6, 4
    70fc: 13 03 43 00  	addi	t1, t1, 4
    7100: 63 90 02 00  	bnez	t0, 0x7100 <.LBB0_337+0x20>
    7104: 13 08 00 28  	li	a6, 640
    7108: 93 88 04 00  	mv	a7, s1

0000710c <.LBB0_339>:
    710c: 83 a2 08 00  	lw	t0, 0(a7)
    7110: 03 23 07 00  	lw	t1, 0(a4)
    7114: b3 02 53 00  	add	t0, t1, t0
    7118: 23 a0 57 00  	sw	t0, 0(a5)
    711c: 13 08 f8 ff  	addi	a6, a6, -1
    7120: 93 87 47 00  	addi	a5, a5, 4
    7124: 13 07 47 00  	addi	a4, a4, 4
    7128: 93 88 48 00  	addi	a7, a7, 4
    712c: 63 10 08 00  	bnez	a6, 0x712c <.LBB0_339+0x20>
    7130: 13 07 00 28  	li	a4, 640
    7134: 93 87 04 00  	mv	a5, s1

00007138 <.LBB0_341>:
    7138: 03 a8 07 00  	lw	a6, 0(a5)
    713c: 83 28 06 00  	lw	a7, 0(a2)
    7140: 33 88 08 01  	add	a6, a7, a6
    7144: 23 a0 06 01  	sw	a6, 0(a3)
    7148: 13 07 f7 ff  	addi	a4, a4, -1
    714c: 93 86 46 00  	addi	a3, a3, 4
    7150: 13 06 46 00  	addi	a2, a2, 4
    7154: 93 87 47 00  	addi	a5, a5, 4
    7158: 63 10 07 00  	bnez	a4, 0x7158 <.LBB0_341+0x20>
    715c: 13 06 00 28  	li	a2, 640
    7160: 93 86 04 00  	mv	a3, s1

00007164 <.LBB0_343>:
    7164: 03 a7 06 00  	lw	a4, 0(a3)
    7168: 83 27 05 00  	lw	a5, 0(a0)
    716c: 33 87 e7 00  	add	a4, a5, a4
    7170: 23 a0 e5 00  	sw	a4, 0(a1)
    7174: 13 06 f6 ff  	addi	a2, a2, -1
    7178: 93 85 45 00  	addi	a1, a1, 4
    717c: 13 05 45 00  	addi	a0, a0, 4
    7180: 93 86 46 00  	addi	a3, a3, 4
    7184: 63 10 06 00  	bnez	a2, 0x7184 <.LBB0_343+0x20>

00007188 <.LBB0_344>:
    7188: 93 06 20 00  	li	a3, 2
    718c: 13 85 04 00  	mv	a0, s1
    7190: 93 85 09 00  	mv	a1, s3
    7194: 13 06 09 00  	mv	a2, s2
    7198: 97 00 00 00  	auipc	ra, 0
    719c: e7 80 00 00  	jalr	ra
    71a0: 97 00 00 00  	auipc	ra, 0
    71a4: e7 80 00 00  	jalr	ra
    71a8: 63 80 0c 00  	beqz	s9, 0x71a8 <.LBB0_344+0x20>

000071ac <.Lpcrel_hi156>:
    71ac: 17 05 00 00  	auipc	a0, 0
    71b0: 93 05 05 00  	mv	a1, a0
    71b4: 37 56 00 00  	lui	a2, 5
    71b8: 13 05 09 00  	mv	a0, s2
    71bc: 97 00 00 00  	auipc	ra, 0
    71c0: e7 80 00 00  	jalr	ra

000071c4 <.LBB0_346>:
    71c4: 97 00 00 00  	auipc	ra, 0
    71c8: e7 80 00 00  	jalr	ra

000071cc <.Lpcrel_hi157>:
    71cc: 17 05 00 00  	auipc	a0, 0
    71d0: 13 05 05 00  	mv	a0, a0

000071d4 <.Lpcrel_hi158>:
    71d4: 97 05 00 00  	auipc	a1, 0
    71d8: 93 85 05 00  	mv	a1, a1

000071dc <.Lpcrel_hi159>:
    71dc: 17 06 00 00  	auipc	a2, 0
    71e0: 13 0a 06 00  	mv	s4, a2
    71e4: 93 06 30 00  	li	a3, 3
    71e8: 13 06 0a 00  	mv	a2, s4
    71ec: 97 00 00 00  	auipc	ra, 0
    71f0: e7 80 00 00  	jalr	ra
    71f4: 97 00 00 00  	auipc	ra, 0
    71f8: e7 80 00 00  	jalr	ra

000071fc <.Lpcrel_hi160>:
    71fc: 17 05 00 00  	auipc	a0, 0
    7200: 93 04 05 00  	mv	s1, a0
    7204: 13 05 0a 00  	mv	a0, s4
    7208: 93 05 0a 00  	mv	a1, s4
    720c: 13 86 04 00  	mv	a2, s1
    7210: 93 06 00 00  	li	a3, 0
    7214: 97 00 00 00  	auipc	ra, 0
    7218: e7 80 00 00  	jalr	ra
    721c: 37 55 00 00  	lui	a0, 5
    7220: 93 05 00 04  	li	a1, 64
    7224: 37 54 00 00  	lui	s0, 5
    7228: 97 00 00 00  	auipc	ra, 0
    722c: e7 80 00 00  	jalr	ra
    7230: 83 29 45 00  	lw	s3, 4(a0)
    7234: 13 05 04 f4  	addi	a0, s0, -192
    7238: 93 05 00 04  	li	a1, 64
    723c: 97 00 00 00  	auipc	ra, 0
    7240: e7 80 00 00  	jalr	ra
    7244: 03 29 45 00  	lw	s2, 4(a0)
    7248: 63 80 0c 00  	beqz	s9, 0x7248 <.Lpcrel_hi160+0x4c>
    724c: 13 06 00 02  	li	a2, 32
    7250: 93 06 00 02  	li	a3, 32
    7254: 13 07 00 10  	li	a4, 256
    7258: 93 07 00 05  	li	a5, 80
    725c: 13 05 0a 00  	mv	a0, s4
    7260: 93 85 09 00  	mv	a1, s3
    7264: 97 00 00 00  	auipc	ra, 0
    7268: e7 80 00 00  	jalr	ra
    726c: 93 85 09 02  	addi	a1, s3, 32
    7270: 13 05 fa 7f  	addi	a0, s4, 2047
    7274: 13 05 15 20  	addi	a0, a0, 513
    7278: 13 06 00 02  	li	a2, 32
    727c: 93 06 00 02  	li	a3, 32
    7280: 13 07 00 10  	li	a4, 256
    7284: 93 07 00 05  	li	a5, 80
    7288: 97 00 00 00  	auipc	ra, 0
    728c: e7 80 00 00  	jalr	ra
    7290: 93 85 09 04  	addi	a1, s3, 64
    7294: 13 04 50 00  	li	s0, 5
    7298: 13 15 a4 00  	slli	a0, s0, 10
    729c: 33 05 aa 00  	add	a0, s4, a0
    72a0: 13 06 00 02  	li	a2, 32
    72a4: 93 06 00 02  	li	a3, 32
    72a8: 13 07 00 10  	li	a4, 256
    72ac: 93 07 00 05  	li	a5, 80
    72b0: 97 00 00 00  	auipc	ra, 0
    72b4: e7 80 00 00  	jalr	ra
    72b8: 93 85 09 06  	addi	a1, s3, 96
    72bc: 93 0a f0 00  	li	s5, 15
    72c0: 13 95 9a 00  	slli	a0, s5, 9
    72c4: 33 05 aa 00  	add	a0, s4, a0
    72c8: 13 06 00 02  	li	a2, 32
    72cc: 93 06 00 02  	li	a3, 32
    72d0: 13 07 00 10  	li	a4, 256
    72d4: 93 07 00 05  	li	a5, 80
    72d8: 97 00 00 00  	auipc	ra, 0
    72dc: e7 80 00 00  	jalr	ra
    72e0: 93 85 09 08  	addi	a1, s3, 128
    72e4: 13 15 b4 00  	slli	a0, s0, 11
    72e8: 33 05 aa 00  	add	a0, s4, a0
    72ec: 13 06 00 02  	li	a2, 32
    72f0: 93 06 00 02  	li	a3, 32
    72f4: 13 07 00 10  	li	a4, 256
    72f8: 93 07 00 05  	li	a5, 80
    72fc: 97 00 00 00  	auipc	ra, 0
    7300: e7 80 00 00  	jalr	ra
    7304: 93 85 09 0a  	addi	a1, s3, 160
    7308: 13 05 90 01  	li	a0, 25
    730c: 13 15 95 00  	slli	a0, a0, 9
    7310: 33 05 aa 00  	add	a0, s4, a0
    7314: 13 06 00 02  	li	a2, 32
    7318: 93 06 00 02  	li	a3, 32
    731c: 13 07 00 10  	li	a4, 256
    7320: 93 07 00 05  	li	a5, 80
    7324: 97 00 00 00  	auipc	ra, 0
    7328: e7 80 00 00  	jalr	ra
    732c: 93 85 09 0c  	addi	a1, s3, 192
    7330: 13 95 aa 00  	slli	a0, s5, 10
    7334: 33 05 aa 00  	add	a0, s4, a0
    7338: 13 06 00 02  	li	a2, 32
    733c: 93 06 00 02  	li	a3, 32
    7340: 13 07 00 10  	li	a4, 256
    7344: 93 07 00 05  	li	a5, 80
    7348: 97 00 00 00  	auipc	ra, 0
    734c: e7 80 00 00  	jalr	ra
    7350: 93 85 09 0e  	addi	a1, s3, 224
    7354: 37 45 00 00  	lui	a0, 4
    7358: 13 05 05 60  	addi	a0, a0, 1536
    735c: 33 05 aa 00  	add	a0, s4, a0
    7360: 13 06 00 02  	li	a2, 32
    7364: 93 06 00 02  	li	a3, 32
    7368: 13 07 00 10  	li	a4, 256
    736c: 93 07 00 05  	li	a5, 80
    7370: 97 00 00 00  	auipc	ra, 0
    7374: e7 80 00 00  	jalr	ra

00007378 <.LBB0_348>:
    7378: 97 00 00 00  	auipc	ra, 0
    737c: e7 80 00 00  	jalr	ra
    7380: 93 06 10 00  	li	a3, 1
    7384: 13 85 09 00  	mv	a0, s3
    7388: 93 85 09 00  	mv	a1, s3
    738c: 13 06 09 00  	mv	a2, s2
    7390: 97 00 00 00  	auipc	ra, 0
    7394: e7 80 00 00  	jalr	ra
    7398: 63 00 0d 00  	beqz	s10, 0x7398 <.LBB0_348+0x20>
    739c: 73 d0 00 3c  	csrwi	pmpaddr16, 1
    73a0: 73 d0 10 3c  	csrwi	pmpaddr17, 1
    73a4: 73 d0 20 3c  	csrwi	pmpaddr18, 1
    73a8: 73 d0 30 3c  	csrwi	pmpaddr19, 1
    73ac: 13 05 00 05  	li	a0, 80
    73b0: 73 10 45 3c  	csrw	pmpaddr20, a0
    73b4: 73 d0 50 3c  	csrwi	pmpaddr21, 1
    73b8: 73 d0 60 3c  	csrwi	pmpaddr22, 1
    73bc: 73 10 75 3c  	csrw	pmpaddr23, a0
    73c0: 73 d0 80 3c  	csrwi	pmpaddr24, 1
    73c4: 73 d0 90 3c  	csrwi	pmpaddr25, 1
    73c8: 73 10 a5 3c  	csrw	pmpaddr26, a0
    73cc: 73 d0 b0 3c  	csrwi	pmpaddr27, 1
    73d0: 73 d0 c0 3c  	csrwi	pmpaddr28, 1
    73d4: 73 10 d5 3c  	csrw	pmpaddr29, a0
    73d8: 73 d0 e0 3c  	csrwi	pmpaddr30, 1
    73dc: 73 50 f0 3c  	csrwi	pmpaddr31, 0
    73e0: 73 50 00 3d  	csrwi	pmpaddr32, 0
    73e4: 73 50 10 3d  	csrwi	pmpaddr33, 0
    73e8: 73 50 20 3d  	csrwi	pmpaddr34, 0
    73ec: 73 50 30 3d  	csrwi	pmpaddr35, 0
    73f0: 73 50 40 3d  	csrwi	pmpaddr36, 0
    73f4: 73 50 50 3d  	csrwi	pmpaddr37, 0
    73f8: 73 50 60 3d  	csrwi	pmpaddr38, 0
    73fc: 73 50 70 3d  	csrwi	pmpaddr39, 0
    7400: 73 50 80 3d  	csrwi	pmpaddr40, 0
    7404: 73 50 90 3d  	csrwi	pmpaddr41, 0
    7408: 73 50 a0 3d  	csrwi	pmpaddr42, 0
    740c: 73 50 b0 3d  	csrwi	pmpaddr43, 0
    7410: 93 05 00 10  	li	a1, 256
    7414: 73 90 c5 3d  	csrw	pmpaddr44, a1
    7418: 37 56 00 00  	lui	a2, 5
    741c: 73 10 d6 3d  	csrw	pmpaddr45, a2
    7420: 73 50 e0 3d  	csrwi	pmpaddr46, 0
    7424: 73 90 f5 3d  	csrw	pmpaddr47, a1
    7428: 73 10 06 3e  	csrw	pmpaddr48, a2
    742c: 73 50 10 3e  	csrwi	pmpaddr49, 0
    7430: 73 50 20 3e  	csrwi	pmpaddr50, 0
    7434: 73 50 30 3e  	csrwi	pmpaddr51, 0
    7438: 73 d0 40 3e  	csrwi	pmpaddr52, 1
    743c: 73 50 54 3e  	csrwi	pmpaddr53, 8
    7440: 73 d0 60 3e  	csrwi	pmpaddr54, 1
    7444: 73 50 74 3e  	csrwi	pmpaddr55, 8
    7448: 73 d0 80 3e  	csrwi	pmpaddr56, 1
    744c: 73 50 94 3e  	csrwi	pmpaddr57, 8
    7450: 73 50 a2 3e  	csrwi	pmpaddr58, 4
    7454: 93 05 00 02  	li	a1, 32
    7458: 73 90 b5 3e  	csrw	pmpaddr59, a1
    745c: 73 50 c0 3e  	csrwi	pmpaddr60, 0
    7460: 73 50 d0 3e  	csrwi	pmpaddr61, 0
    7464: b7 05 00 10  	lui	a1, 65536
    7468: 13 86 05 08  	addi	a2, a1, 128
    746c: 73 10 e6 3e  	csrw	pmpaddr62, a2
    7470: 93 85 05 04  	addi	a1, a1, 64
    7474: 73 90 f5 3e  	csrw	pmpaddr63, a1
    7478: 73 10 09 3f  	csrw	1008, s2
    747c: 73 90 19 3f  	csrw	1009, s3
    7480: 73 90 29 3f  	csrw	1010, s3
    7484: 73 50 30 3f  	csrwi	1011, 0
    7488: 73 d0 70 3f  	csrwi	1015, 1
    748c: 73 10 85 3f  	csrw	1016, a0
    7490: 73 d0 90 3f  	csrwi	1017, 1
    7494: 73 50 a0 3f  	csrwi	1018, 0
    7498: b7 05 28 7f  	lui	a1, 520832
    749c: 73 90 b5 3f  	csrw	1019, a1
    74a0: 93 05 00 18  	li	a1, 384
    74a4: 73 90 c5 3f  	csrw	1020, a1
    74a8: b7 c5 2b 57  	lui	a1, 357052
    74ac: 93 85 95 03  	addi	a1, a1, 57
    74b0: 73 90 d5 3f  	csrw	1021, a1
    74b4: 73 10 e5 3f  	csrw	1022, a0
    74b8: 73 50 f0 3f  	csrwi	1023, 0
    74bc: 73 d0 40 3f  	csrwi	1012, 1
    74c0: 73 d0 00 40  	csrwi	1024, 1
    74c4: 73 50 40 3f  	csrwi	1012, 0
    74c8: 73 50 40 3f  	csrwi	1012, 0
    74cc: 73 50 00 40  	csrwi	1024, 0
    74d0: 73 50 00 40  	csrwi	1024, 0

000074d4 <.LBB0_350>:
    74d4: 93 06 20 00  	li	a3, 2
    74d8: 13 85 09 00  	mv	a0, s3
    74dc: 93 85 09 00  	mv	a1, s3
    74e0: 13 06 09 00  	mv	a2, s2
    74e4: 97 00 00 00  	auipc	ra, 0
    74e8: e7 80 00 00  	jalr	ra
    74ec: 97 00 00 00  	auipc	ra, 0
    74f0: e7 80 00 00  	jalr	ra
    74f4: 63 80 0c 00  	beqz	s9, 0x74f4 <.LBB0_350+0x20>
    74f8: 13 06 80 00  	li	a2, 8
    74fc: 93 06 00 10  	li	a3, 256
    7500: 13 07 80 00  	li	a4, 8
    7504: 93 07 00 05  	li	a5, 80
    7508: 13 05 09 00  	mv	a0, s2
    750c: 93 85 04 00  	mv	a1, s1
    7510: 97 00 00 00  	auipc	ra, 0
    7514: e7 80 00 00  	jalr	ra
    7518: 13 05 89 00  	addi	a0, s2, 8
    751c: 93 85 04 28  	addi	a1, s1, 640
    7520: 13 06 80 00  	li	a2, 8
    7524: 93 06 00 10  	li	a3, 256
    7528: 13 07 80 00  	li	a4, 8
    752c: 93 07 00 05  	li	a5, 80
    7530: 97 00 00 00  	auipc	ra, 0
    7534: e7 80 00 00  	jalr	ra
    7538: 13 05 09 01  	addi	a0, s2, 16
    753c: 93 85 04 50  	addi	a1, s1, 1280
    7540: 13 06 80 00  	li	a2, 8
    7544: 93 06 00 10  	li	a3, 256
    7548: 13 07 80 00  	li	a4, 8
    754c: 93 07 00 05  	li	a5, 80
    7550: 97 00 00 00  	auipc	ra, 0
    7554: e7 80 00 00  	jalr	ra
    7558: 13 05 89 01  	addi	a0, s2, 24
    755c: 93 85 04 78  	addi	a1, s1, 1920
    7560: 13 06 80 00  	li	a2, 8
    7564: 93 06 00 10  	li	a3, 256
    7568: 13 07 80 00  	li	a4, 8
    756c: 93 07 00 05  	li	a5, 80
    7570: 97 00 00 00  	auipc	ra, 0
    7574: e7 80 00 00  	jalr	ra
    7578: 13 05 09 02  	addi	a0, s2, 32
    757c: 13 84 f4 7f  	addi	s0, s1, 2047
    7580: 93 05 14 20  	addi	a1, s0, 513
    7584: 13 06 80 00  	li	a2, 8
    7588: 93 06 00 10  	li	a3, 256
    758c: 13 07 80 00  	li	a4, 8
    7590: 93 07 00 05  	li	a5, 80
    7594: 97 00 00 00  	auipc	ra, 0
    7598: e7 80 00 00  	jalr	ra
    759c: 13 05 89 02  	addi	a0, s2, 40
    75a0: 93 05 14 48  	addi	a1, s0, 1153
    75a4: 13 06 80 00  	li	a2, 8
    75a8: 93 06 00 10  	li	a3, 256
    75ac: 13 07 80 00  	li	a4, 8
    75b0: 93 07 00 05  	li	a5, 80
    75b4: 97 00 00 00  	auipc	ra, 0
    75b8: e7 80 00 00  	jalr	ra
    75bc: 13 05 09 03  	addi	a0, s2, 48
    75c0: 93 05 14 70  	addi	a1, s0, 1793
    75c4: 13 06 80 00  	li	a2, 8
    75c8: 93 06 00 10  	li	a3, 256
    75cc: 13 07 80 00  	li	a4, 8
    75d0: 93 07 00 05  	li	a5, 80
    75d4: 97 00 00 00  	auipc	ra, 0
    75d8: e7 80 00 00  	jalr	ra
    75dc: 13 05 89 03  	addi	a0, s2, 56
    75e0: b7 15 00 00  	lui	a1, 1
    75e4: 93 85 05 18  	addi	a1, a1, 384
    75e8: b3 85 b4 00  	add	a1, s1, a1
    75ec: 13 06 80 00  	li	a2, 8
    75f0: 93 06 00 10  	li	a3, 256
    75f4: 13 07 80 00  	li	a4, 8
    75f8: 93 07 00 05  	li	a5, 80
    75fc: 97 00 00 00  	auipc	ra, 0
    7600: e7 80 00 00  	jalr	ra

00007604 <.LBB0_352>:
    7604: 97 00 00 00  	auipc	ra, 0
    7608: e7 80 00 00  	jalr	ra

0000760c <.Lpcrel_hi161>:
    760c: 17 05 00 00  	auipc	a0, 0
    7610: 13 05 05 00  	mv	a0, a0
    7614: 93 06 30 00  	li	a3, 3
    7618: 93 05 05 00  	mv	a1, a0
    761c: 13 86 04 00  	mv	a2, s1
    7620: 97 00 00 00  	auipc	ra, 0
    7624: e7 80 00 00  	jalr	ra
    7628: 13 05 10 00  	li	a0, 1
    762c: 83 25 01 01  	lw	a1, 16(sp)
    7630: 23 ac a5 00  	sw	a0, 24(a1)
    7634: 13 05 00 28  	li	a0, 640
    7638: 23 aa a5 00  	sw	a0, 20(a1)
    763c: 23 a8 a5 00  	sw	a0, 16(a1)
    7640: 13 05 80 00  	li	a0, 8
    7644: 23 a6 a5 00  	sw	a0, 12(a1)
    7648: 23 a4 05 00  	sw	zero, 8(a1)
    764c: 23 a2 95 00  	sw	s1, 4(a1)
    7650: 37 c5 ad de  	lui	a0, 912092
    7654: 13 05 f5 ee  	addi	a0, a0, -273
    7658: 23 a0 a5 00  	sw	a0, 0(a1)
    765c: 83 20 c1 04  	lw	ra, 76(sp)
    7660: 03 24 81 04  	lw	s0, 72(sp)
    7664: 83 24 41 04  	lw	s1, 68(sp)
    7668: 03 29 01 04  	lw	s2, 64(sp)
    766c: 83 29 c1 03  	lw	s3, 60(sp)
    7670: 03 2a 81 03  	lw	s4, 56(sp)
    7674: 83 2a 41 03  	lw	s5, 52(sp)
    7678: 03 2b 01 03  	lw	s6, 48(sp)
    767c: 83 2b c1 02  	lw	s7, 44(sp)
    7680: 03 2c 81 02  	lw	s8, 40(sp)
    7684: 83 2c 41 02  	lw	s9, 36(sp)
    7688: 03 2d 01 02  	lw	s10, 32(sp)
    768c: 83 2d c1 01  	lw	s11, 28(sp)
    7690: 13 01 01 05  	addi	sp, sp, 80
    7694: 67 80 00 00  	ret

00007698 <_mlir_ciface_run_network>:
    7698: 13 01 01 fd  	addi	sp, sp, -48
    769c: 23 26 11 02  	sw	ra, 44(sp)
    76a0: 23 24 81 02  	sw	s0, 40(sp)
    76a4: 03 a6 45 00  	lw	a2, 4(a1)
    76a8: 13 04 05 00  	mv	s0, a0
    76ac: 13 05 81 00  	addi	a0, sp, 8
    76b0: 97 00 00 00  	auipc	ra, 0
    76b4: e7 80 00 00  	jalr	ra
    76b8: 37 c5 ad de  	lui	a0, 912092
    76bc: 13 05 f5 ee  	addi	a0, a0, -273
    76c0: 23 20 a4 00  	sw	a0, 0(s0)

000076c4 <.Lpcrel_hi162>:
    76c4: 17 05 00 00  	auipc	a0, 0
    76c8: 13 05 05 00  	mv	a0, a0
    76cc: 23 22 a4 00  	sw	a0, 4(s0)
    76d0: 23 24 04 00  	sw	zero, 8(s0)
    76d4: 13 05 80 00  	li	a0, 8
    76d8: 23 26 a4 00  	sw	a0, 12(s0)
    76dc: 13 05 00 28  	li	a0, 640
    76e0: 23 28 a4 00  	sw	a0, 16(s0)
    76e4: 23 2a a4 00  	sw	a0, 20(s0)
    76e8: 13 05 10 00  	li	a0, 1
    76ec: 23 2c a4 00  	sw	a0, 24(s0)
    76f0: 83 20 c1 02  	lw	ra, 44(sp)
    76f4: 03 24 81 02  	lw	s0, 40(sp)
    76f8: 13 01 01 03  	addi	sp, sp, 48
    76fc: 67 80 00 00  	ret
