
test/bootrom.elf:     file format elf64-littleriscv


Disassembly of section .text:

0000000001000000 <_start>:
 1000000:	301022f3          	csrr	t0,misa
 1000004:	0202ce63          	bltz	t0,1000040 <_cva6_init>

0000000001000008 <_snitch_park>:
 1000008:	f1402573          	csrr	a0,mhartid
 100000c:	00000297          	auipc	t0,0x0
 1000010:	02028293          	addi	t0,t0,32 # 100002c <_snitch_resume>
 1000014:	30529073          	csrw	mtvec,t0
 1000018:	30046073          	csrsi	mstatus,8
 100001c:	000802b7          	lui	t0,0x80
 1000020:	00828293          	addi	t0,t0,8 # 80008 <__quad_stride+0x70008>
 1000024:	30429073          	csrw	mie,t0
 1000028:	10500073          	wfi

000000000100002c <_snitch_resume>:
 100002c:	01000297          	auipc	t0,0x1000
 1000030:	fec28293          	addi	t0,t0,-20 # 2000018 <__soc_ctrl_scratch1>
 1000034:	0002a283          	lw	t0,0(t0)
 1000038:	000280e7          	jalr	t0
 100003c:	fcdff06f          	j	1000008 <_snitch_park>

0000000001000040 <_cva6_init>:
 1000040:	f1502473          	csrr	s0,0xf15
 1000044:	02841413          	slli	s0,s0,0x28
 1000048:	00001197          	auipc	gp,0x1
 100004c:	86018193          	addi	gp,gp,-1952 # 10008a8 <__global_pointer$>
 1000050:	0081e1b3          	or	gp,gp,s0
 1000054:	6f020117          	auipc	sp,0x6f020
 1000058:	fa410113          	addi	sp,sp,-92 # 7001fff8 <__stack_pointer$>
 100005c:	00816133          	or	sp,sp,s0
 1000060:	00000317          	auipc	t1,0x0
 1000064:	02030313          	addi	t1,t1,32 # 1000080 <exception>
 1000068:	30531073          	csrw	mtvec,t1
 100006c:	458000ef          	jal	ra,10004c4 <bootrom>
 1000070:	0010029b          	addiw	t0,zero,1
 1000074:	01f29293          	slli	t0,t0,0x1f
 1000078:	000280e7          	jalr	t0
 100007c:	f85ff06f          	j	1000000 <_start>

0000000001000080 <exception>:
 1000080:	10500073          	wfi
 1000084:	ffdff06f          	j	1000080 <exception>

0000000001000088 <write_serial>:
 1000088:	ff010113          	addi	sp,sp,-16
 100008c:	6f000697          	auipc	a3,0x6f000
 1000090:	f7c6b683          	ld	a3,-132(a3) # 70000008 <__base_spm_sym+0x8>
 1000094:	00813423          	sd	s0,8(sp)
 1000098:	01468713          	addi	a4,a3,20
 100009c:	01010413          	addi	s0,sp,16
 10000a0:	00a76733          	or	a4,a4,a0
 10000a4:	00074783          	lbu	a5,0(a4)
 10000a8:	0207f793          	andi	a5,a5,32
 10000ac:	fe078ce3          	beqz	a5,10000a4 <write_serial+0x1c>
 10000b0:	00d56533          	or	a0,a0,a3
 10000b4:	00b50023          	sb	a1,0(a0)
 10000b8:	00813403          	ld	s0,8(sp)
 10000bc:	01010113          	addi	sp,sp,16
 10000c0:	00008067          	ret

00000000010000c4 <read_serial>:
 10000c4:	ff010113          	addi	sp,sp,-16
 10000c8:	6f000697          	auipc	a3,0x6f000
 10000cc:	f406b683          	ld	a3,-192(a3) # 70000008 <__base_spm_sym+0x8>
 10000d0:	00813423          	sd	s0,8(sp)
 10000d4:	01468713          	addi	a4,a3,20
 10000d8:	01010413          	addi	s0,sp,16
 10000dc:	00a76733          	or	a4,a4,a0
 10000e0:	00074783          	lbu	a5,0(a4)
 10000e4:	0017f793          	andi	a5,a5,1
 10000e8:	fe078ce3          	beqz	a5,10000e0 <read_serial+0x1c>
 10000ec:	00813403          	ld	s0,8(sp)
 10000f0:	00d56533          	or	a0,a0,a3
 10000f4:	00054503          	lbu	a0,0(a0)
 10000f8:	01010113          	addi	sp,sp,16
 10000fc:	00008067          	ret

0000000001000100 <print_uart>:
 1000100:	fe010113          	addi	sp,sp,-32
 1000104:	00813823          	sd	s0,16(sp)
 1000108:	00913423          	sd	s1,8(sp)
 100010c:	01213023          	sd	s2,0(sp)
 1000110:	00113c23          	sd	ra,24(sp)
 1000114:	02010413          	addi	s0,sp,32
 1000118:	00050913          	mv	s2,a0
 100011c:	00058493          	mv	s1,a1
 1000120:	0004c583          	lbu	a1,0(s1)
 1000124:	02059c63          	bnez	a1,100015c <print_uart+0x5c>
 1000128:	6f000517          	auipc	a0,0x6f000
 100012c:	ee053503          	ld	a0,-288(a0) # 70000008 <__base_spm_sym+0x8>
 1000130:	01450513          	addi	a0,a0,20
 1000134:	01256533          	or	a0,a0,s2
 1000138:	00054783          	lbu	a5,0(a0)
 100013c:	0407f793          	andi	a5,a5,64
 1000140:	fe078ce3          	beqz	a5,1000138 <print_uart+0x38>
 1000144:	01813083          	ld	ra,24(sp)
 1000148:	01013403          	ld	s0,16(sp)
 100014c:	00813483          	ld	s1,8(sp)
 1000150:	00013903          	ld	s2,0(sp)
 1000154:	02010113          	addi	sp,sp,32
 1000158:	00008067          	ret
 100015c:	00090513          	mv	a0,s2
 1000160:	f29ff0ef          	jal	ra,1000088 <write_serial>
 1000164:	00148493          	addi	s1,s1,1
 1000168:	fb9ff06f          	j	1000120 <print_uart+0x20>

000000000100016c <print_uart_hex.constprop.1>:
 100016c:	fb010113          	addi	sp,sp,-80
 1000170:	04813023          	sd	s0,64(sp)
 1000174:	02913c23          	sd	s1,56(sp)
 1000178:	05010413          	addi	s0,sp,80
 100017c:	03313423          	sd	s3,40(sp)
 1000180:	03413023          	sd	s4,32(sp)
 1000184:	01513c23          	sd	s5,24(sp)
 1000188:	04113423          	sd	ra,72(sp)
 100018c:	03213823          	sd	s2,48(sp)
 1000190:	00000797          	auipc	a5,0x0
 1000194:	63878793          	addi	a5,a5,1592 # 10007c8 <bootrom+0x304>
 1000198:	0007b783          	ld	a5,0(a5)
 100019c:	02059593          	slli	a1,a1,0x20
 10001a0:	0205d593          	srli	a1,a1,0x20
 10001a4:	faf43823          	sd	a5,-80(s0)
 10001a8:	00000797          	auipc	a5,0x0
 10001ac:	62878793          	addi	a5,a5,1576 # 10007d0 <bootrom+0x30c>
 10001b0:	0007b783          	ld	a5,0(a5)
 10001b4:	00060a13          	mv	s4,a2
 10001b8:	00050493          	mv	s1,a0
 10001bc:	faf43c23          	sd	a5,-72(s0)
 10001c0:	00b509b3          	add	s3,a0,a1
 10001c4:	ffc00a93          	li	s5,-4
 10001c8:	0334ee63          	bltu	s1,s3,1000204 <print_uart_hex.constprop.1+0x98>
 10001cc:	6f000717          	auipc	a4,0x6f000
 10001d0:	e3c73703          	ld	a4,-452(a4) # 70000008 <__base_spm_sym+0x8>
 10001d4:	01474783          	lbu	a5,20(a4)
 10001d8:	0407f793          	andi	a5,a5,64
 10001dc:	fe078ce3          	beqz	a5,10001d4 <print_uart_hex.constprop.1+0x68>
 10001e0:	04813083          	ld	ra,72(sp)
 10001e4:	04013403          	ld	s0,64(sp)
 10001e8:	03813483          	ld	s1,56(sp)
 10001ec:	03013903          	ld	s2,48(sp)
 10001f0:	02813983          	ld	s3,40(sp)
 10001f4:	02013a03          	ld	s4,32(sp)
 10001f8:	01813a83          	ld	s5,24(sp)
 10001fc:	05010113          	addi	sp,sp,80
 1000200:	00008067          	ret
 1000204:	00f4f793          	andi	a5,s1,15
 1000208:	06079063          	bnez	a5,1000268 <print_uart_hex.constprop.1+0xfc>
 100020c:	040a0e63          	beqz	s4,1000268 <print_uart_hex.constprop.1+0xfc>
 1000210:	00d00593          	li	a1,13
 1000214:	00000513          	li	a0,0
 1000218:	e71ff0ef          	jal	ra,1000088 <write_serial>
 100021c:	00a00593          	li	a1,10
 1000220:	00000513          	li	a0,0
 1000224:	e65ff0ef          	jal	ra,1000088 <write_serial>
 1000228:	01c00913          	li	s2,28
 100022c:	0124d7b3          	srl	a5,s1,s2
 1000230:	fc040713          	addi	a4,s0,-64
 1000234:	00f7f793          	andi	a5,a5,15
 1000238:	00f707b3          	add	a5,a4,a5
 100023c:	ff07c583          	lbu	a1,-16(a5)
 1000240:	00000513          	li	a0,0
 1000244:	ffc9091b          	addiw	s2,s2,-4
 1000248:	e41ff0ef          	jal	ra,1000088 <write_serial>
 100024c:	ff5910e3          	bne	s2,s5,100022c <print_uart_hex.constprop.1+0xc0>
 1000250:	03a00593          	li	a1,58
 1000254:	00000513          	li	a0,0
 1000258:	e31ff0ef          	jal	ra,1000088 <write_serial>
 100025c:	02000593          	li	a1,32
 1000260:	00000513          	li	a0,0
 1000264:	e25ff0ef          	jal	ra,1000088 <write_serial>
 1000268:	0004c903          	lbu	s2,0(s1)
 100026c:	fc040713          	addi	a4,s0,-64
 1000270:	00000513          	li	a0,0
 1000274:	00495793          	srli	a5,s2,0x4
 1000278:	00f707b3          	add	a5,a4,a5
 100027c:	ff07c583          	lbu	a1,-16(a5)
 1000280:	00f97913          	andi	s2,s2,15
 1000284:	00148493          	addi	s1,s1,1
 1000288:	e01ff0ef          	jal	ra,1000088 <write_serial>
 100028c:	fc040793          	addi	a5,s0,-64
 1000290:	01278933          	add	s2,a5,s2
 1000294:	ff094583          	lbu	a1,-16(s2)
 1000298:	00000513          	li	a0,0
 100029c:	dedff0ef          	jal	ra,1000088 <write_serial>
 10002a0:	02000593          	li	a1,32
 10002a4:	00000513          	li	a0,0
 10002a8:	de1ff0ef          	jal	ra,1000088 <write_serial>
 10002ac:	f1dff06f          	j	10001c8 <print_uart_hex.constprop.1+0x5c>

00000000010002b0 <compute_parity>:
 10002b0:	ff010113          	addi	sp,sp,-16
 10002b4:	00813423          	sd	s0,8(sp)
 10002b8:	01010413          	addi	s0,sp,16
 10002bc:	00000713          	li	a4,0
 10002c0:	00000793          	li	a5,0
 10002c4:	0007069b          	sext.w	a3,a4
 10002c8:	00b6ea63          	bltu	a3,a1,10002dc <compute_parity+0x2c>
 10002cc:	00813403          	ld	s0,8(sp)
 10002d0:	00078513          	mv	a0,a5
 10002d4:	01010113          	addi	sp,sp,16
 10002d8:	00008067          	ret
 10002dc:	00e506b3          	add	a3,a0,a4
 10002e0:	0006c683          	lbu	a3,0(a3)
 10002e4:	00170713          	addi	a4,a4,1
 10002e8:	00d787b3          	add	a5,a5,a3
 10002ec:	0ff7f793          	andi	a5,a5,255
 10002f0:	fd5ff06f          	j	10002c4 <compute_parity+0x14>

00000000010002f4 <memcpy>:
 10002f4:	ff010113          	addi	sp,sp,-16
 10002f8:	00813423          	sd	s0,8(sp)
 10002fc:	01010413          	addi	s0,sp,16
 1000300:	00000793          	li	a5,0
 1000304:	0007871b          	sext.w	a4,a5
 1000308:	00c76863          	bltu	a4,a2,1000318 <memcpy+0x24>
 100030c:	00813403          	ld	s0,8(sp)
 1000310:	01010113          	addi	sp,sp,16
 1000314:	00008067          	ret
 1000318:	00f58733          	add	a4,a1,a5
 100031c:	00074683          	lbu	a3,0(a4)
 1000320:	00f50733          	add	a4,a0,a5
 1000324:	00178793          	addi	a5,a5,1
 1000328:	00d70023          	sb	a3,0(a4)
 100032c:	fd9ff06f          	j	1000304 <memcpy+0x10>

0000000001000330 <uart_xmodem>:
 1000330:	bb010113          	addi	sp,sp,-1104
 1000334:	44813023          	sd	s0,1088(sp)
 1000338:	42913c23          	sd	s1,1080(sp)
 100033c:	43413023          	sd	s4,1056(sp)
 1000340:	41513c23          	sd	s5,1048(sp)
 1000344:	41613823          	sd	s6,1040(sp)
 1000348:	41713423          	sd	s7,1032(sp)
 100034c:	41813023          	sd	s8,1024(sp)
 1000350:	45010413          	addi	s0,sp,1104
 1000354:	44113423          	sd	ra,1096(sp)
 1000358:	43213823          	sd	s2,1072(sp)
 100035c:	43313423          	sd	s3,1064(sp)
 1000360:	00058c13          	mv	s8,a1
 1000364:	01500593          	li	a1,21
 1000368:	00050493          	mv	s1,a0
 100036c:	00000a13          	li	s4,0
 1000370:	d19ff0ef          	jal	ra,1000088 <write_serial>
 1000374:	00400b93          	li	s7,4
 1000378:	00100b13          	li	s6,1
 100037c:	bb040a93          	addi	s5,s0,-1104
 1000380:	00048513          	mv	a0,s1
 1000384:	d41ff0ef          	jal	ra,10000c4 <read_serial>
 1000388:	00050993          	mv	s3,a0
 100038c:	05751a63          	bne	a0,s7,10003e0 <uart_xmodem+0xb0>
 1000390:	00048513          	mv	a0,s1
 1000394:	00600593          	li	a1,6
 1000398:	cf1ff0ef          	jal	ra,1000088 <write_serial>
 100039c:	00000597          	auipc	a1,0x0
 10003a0:	43c58593          	addi	a1,a1,1084 # 10007d8 <bootrom+0x314>
 10003a4:	00048513          	mv	a0,s1
 10003a8:	d59ff0ef          	jal	ra,1000100 <print_uart>
 10003ac:	0000100f          	fence.i
 10003b0:	44813083          	ld	ra,1096(sp)
 10003b4:	44013403          	ld	s0,1088(sp)
 10003b8:	43813483          	ld	s1,1080(sp)
 10003bc:	43013903          	ld	s2,1072(sp)
 10003c0:	42813983          	ld	s3,1064(sp)
 10003c4:	42013a03          	ld	s4,1056(sp)
 10003c8:	41813a83          	ld	s5,1048(sp)
 10003cc:	41013b03          	ld	s6,1040(sp)
 10003d0:	40813b83          	ld	s7,1032(sp)
 10003d4:	40013c03          	ld	s8,1024(sp)
 10003d8:	45010113          	addi	sp,sp,1104
 10003dc:	00008067          	ret
 10003e0:	fff9879b          	addiw	a5,s3,-1
 10003e4:	0ff7f793          	andi	a5,a5,255
 10003e8:	01800593          	li	a1,24
 10003ec:	0afb6063          	bltu	s6,a5,100048c <uart_xmodem+0x15c>
 10003f0:	00048513          	mv	a0,s1
 10003f4:	cd1ff0ef          	jal	ra,10000c4 <read_serial>
 10003f8:	00050913          	mv	s2,a0
 10003fc:	00048513          	mv	a0,s1
 1000400:	cc5ff0ef          	jal	ra,10000c4 <read_serial>
 1000404:	fff54513          	not	a0,a0
 1000408:	0ff57513          	andi	a0,a0,255
 100040c:	07251e63          	bne	a0,s2,1000488 <uart_xmodem+0x158>
 1000410:	40000913          	li	s2,1024
 1000414:	01699463          	bne	s3,s6,100041c <uart_xmodem+0xec>
 1000418:	08000913          	li	s2,128
 100041c:	00000993          	li	s3,0
 1000420:	0009879b          	sext.w	a5,s3
 1000424:	00048513          	mv	a0,s1
 1000428:	0527c663          	blt	a5,s2,1000474 <uart_xmodem+0x144>
 100042c:	c99ff0ef          	jal	ra,10000c4 <read_serial>
 1000430:	0009091b          	sext.w	s2,s2
 1000434:	00050993          	mv	s3,a0
 1000438:	00090593          	mv	a1,s2
 100043c:	000a8513          	mv	a0,s5
 1000440:	e71ff0ef          	jal	ra,10002b0 <compute_parity>
 1000444:	04a99263          	bne	s3,a0,1000488 <uart_xmodem+0x158>
 1000448:	00600593          	li	a1,6
 100044c:	00048513          	mv	a0,s1
 1000450:	c39ff0ef          	jal	ra,1000088 <write_serial>
 1000454:	020a1513          	slli	a0,s4,0x20
 1000458:	02055513          	srli	a0,a0,0x20
 100045c:	00090613          	mv	a2,s2
 1000460:	000a8593          	mv	a1,s5
 1000464:	01850533          	add	a0,a0,s8
 1000468:	e8dff0ef          	jal	ra,10002f4 <memcpy>
 100046c:	01490a3b          	addw	s4,s2,s4
 1000470:	f11ff06f          	j	1000380 <uart_xmodem+0x50>
 1000474:	c51ff0ef          	jal	ra,10000c4 <read_serial>
 1000478:	013a87b3          	add	a5,s5,s3
 100047c:	00a78023          	sb	a0,0(a5)
 1000480:	00198993          	addi	s3,s3,1
 1000484:	f9dff06f          	j	1000420 <uart_xmodem+0xf0>
 1000488:	01500593          	li	a1,21
 100048c:	00048513          	mv	a0,s1
 1000490:	bf9ff0ef          	jal	ra,1000088 <write_serial>
 1000494:	eedff06f          	j	1000380 <uart_xmodem+0x50>

0000000001000498 <delay_cycles>:
 1000498:	ff010113          	addi	sp,sp,-16
 100049c:	00813423          	sd	s0,8(sp)
 10004a0:	01010413          	addi	s0,sp,16
 10004a4:	b00027f3          	csrr	a5,mcycle
 10004a8:	00a787b3          	add	a5,a5,a0
 10004ac:	00f76863          	bltu	a4,a5,10004bc <delay_cycles+0x24>
 10004b0:	00813403          	ld	s0,8(sp)
 10004b4:	01010113          	addi	sp,sp,16
 10004b8:	00008067          	ret
 10004bc:	b0002773          	csrr	a4,mcycle
 10004c0:	fedff06f          	j	10004ac <delay_cycles+0x14>

00000000010004c4 <bootrom>:
 10004c4:	f7010113          	addi	sp,sp,-144
 10004c8:	08813023          	sd	s0,128(sp)
 10004cc:	08113423          	sd	ra,136(sp)
 10004d0:	06913c23          	sd	s1,120(sp)
 10004d4:	07213823          	sd	s2,112(sp)
 10004d8:	07313423          	sd	s3,104(sp)
 10004dc:	07413023          	sd	s4,96(sp)
 10004e0:	05513c23          	sd	s5,88(sp)
 10004e4:	05613823          	sd	s6,80(sp)
 10004e8:	05713423          	sd	s7,72(sp)
 10004ec:	05813023          	sd	s8,64(sp)
 10004f0:	03913c23          	sd	s9,56(sp)
 10004f4:	03a13823          	sd	s10,48(sp)
 10004f8:	03b13423          	sd	s11,40(sp)
 10004fc:	09010413          	addi	s0,sp,144
 1000500:	f15027f3          	csrr	a5,0xf15
 1000504:	f6f42e23          	sw	a5,-132(s0)
 1000508:	6f000797          	auipc	a5,0x6f000
 100050c:	b007b783          	ld	a5,-1280(a5) # 70000008 <__base_spm_sym+0x8>
 1000510:	00078223          	sb	zero,4(a5)
 1000514:	f8000713          	li	a4,-128
 1000518:	00e78623          	sb	a4,12(a5)
 100051c:	00300713          	li	a4,3
 1000520:	00e78023          	sb	a4,0(a5)
 1000524:	00078223          	sb	zero,4(a5)
 1000528:	00e78623          	sb	a4,12(a5)
 100052c:	fc700713          	li	a4,-57
 1000530:	00e78423          	sb	a4,8(a5)
 1000534:	00100993          	li	s3,1
 1000538:	02200713          	li	a4,34
 100053c:	00e78823          	sb	a4,16(a5)
 1000540:	01f99a13          	slli	s4,s3,0x1f
 1000544:	00000b17          	auipc	s6,0x0
 1000548:	2acb0b13          	addi	s6,s6,684 # 10007f0 <bootrom+0x32c>
 100054c:	00000b97          	auipc	s7,0x0
 1000550:	2acb8b93          	addi	s7,s7,684 # 10007f8 <bootrom+0x334>
 1000554:	00000c17          	auipc	s8,0x0
 1000558:	2c4c0c13          	addi	s8,s8,708 # 1000818 <bootrom+0x354>
 100055c:	00000c97          	auipc	s9,0x0
 1000560:	2c4c8c93          	addi	s9,s9,708 # 1000820 <bootrom+0x35c>
 1000564:	f7c40a93          	addi	s5,s0,-132
 1000568:	f8040913          	addi	s2,s0,-128
 100056c:	000b0593          	mv	a1,s6
 1000570:	00000513          	li	a0,0
 1000574:	f9443023          	sd	s4,-128(s0)
 1000578:	b89ff0ef          	jal	ra,1000100 <print_uart>
 100057c:	000b8593          	mv	a1,s7
 1000580:	00000513          	li	a0,0
 1000584:	b7dff0ef          	jal	ra,1000100 <print_uart>
 1000588:	000c0593          	mv	a1,s8
 100058c:	00000513          	li	a0,0
 1000590:	b71ff0ef          	jal	ra,1000100 <print_uart>
 1000594:	000c8593          	mv	a1,s9
 1000598:	00000513          	li	a0,0
 100059c:	b65ff0ef          	jal	ra,1000100 <print_uart>
 10005a0:	00000613          	li	a2,0
 10005a4:	00100593          	li	a1,1
 10005a8:	000a8513          	mv	a0,s5
 10005ac:	bc1ff0ef          	jal	ra,100016c <print_uart_hex.constprop.1>
 10005b0:	00000597          	auipc	a1,0x0
 10005b4:	28058593          	addi	a1,a1,640 # 1000830 <bootrom+0x36c>
 10005b8:	00000513          	li	a0,0
 10005bc:	b45ff0ef          	jal	ra,1000100 <print_uart>
 10005c0:	00000597          	auipc	a1,0x0
 10005c4:	2a058593          	addi	a1,a1,672 # 1000860 <bootrom+0x39c>
 10005c8:	00000513          	li	a0,0
 10005cc:	b35ff0ef          	jal	ra,1000100 <print_uart>
 10005d0:	00000597          	auipc	a1,0x0
 10005d4:	2a858593          	addi	a1,a1,680 # 1000878 <bootrom+0x3b4>
 10005d8:	00000513          	li	a0,0
 10005dc:	b25ff0ef          	jal	ra,1000100 <print_uart>
 10005e0:	00000613          	li	a2,0
 10005e4:	00800593          	li	a1,8
 10005e8:	00090513          	mv	a0,s2
 10005ec:	b81ff0ef          	jal	ra,100016c <print_uart_hex.constprop.1>
 10005f0:	00000597          	auipc	a1,0x0
 10005f4:	2a858593          	addi	a1,a1,680 # 1000898 <bootrom+0x3d4>
 10005f8:	00000513          	li	a0,0
 10005fc:	b05ff0ef          	jal	ra,1000100 <print_uart>
 1000600:	00000613          	li	a2,0
 1000604:	00800593          	li	a1,8
 1000608:	00090513          	mv	a0,s2
 100060c:	b61ff0ef          	jal	ra,100016c <print_uart_hex.constprop.1>
 1000610:	00000597          	auipc	a1,0x0
 1000614:	2a858593          	addi	a1,a1,680 # 10008b8 <__global_pointer$+0x10>
 1000618:	00000513          	li	a0,0
 100061c:	ae5ff0ef          	jal	ra,1000100 <print_uart>
 1000620:	00000613          	li	a2,0
 1000624:	00800593          	li	a1,8
 1000628:	00090513          	mv	a0,s2
 100062c:	b41ff0ef          	jal	ra,100016c <print_uart_hex.constprop.1>
 1000630:	00000513          	li	a0,0
 1000634:	a91ff0ef          	jal	ra,10000c4 <read_serial>
 1000638:	fcf5051b          	addiw	a0,a0,-49
 100063c:	0b350263          	beq	a0,s3,10006e0 <bootrom+0x21c>
 1000640:	02a9c263          	blt	s3,a0,1000664 <bootrom+0x1a0>
 1000644:	f20514e3          	bnez	a0,100056c <bootrom+0xa8>
 1000648:	00000597          	auipc	a1,0x0
 100064c:	29058593          	addi	a1,a1,656 # 10008d8 <__global_pointer$+0x30>
 1000650:	00000513          	li	a0,0
 1000654:	aadff0ef          	jal	ra,1000100 <print_uart>
 1000658:	f1402573          	csrr	a0,mhartid
 100065c:	00100073          	ebreak
 1000660:	f0dff06f          	j	100056c <bootrom+0xa8>
 1000664:	00200793          	li	a5,2
 1000668:	0af50263          	beq	a0,a5,100070c <bootrom+0x248>
 100066c:	00300793          	li	a5,3
 1000670:	eef51ee3          	bne	a0,a5,100056c <bootrom+0xa8>
 1000674:	00000597          	auipc	a1,0x0
 1000678:	2f458593          	addi	a1,a1,756 # 1000968 <__global_pointer$+0xc0>
 100067c:	00000513          	li	a0,0
 1000680:	a81ff0ef          	jal	ra,1000100 <print_uart>
 1000684:	00090513          	mv	a0,s2
 1000688:	00000613          	li	a2,0
 100068c:	00800593          	li	a1,8
 1000690:	addff0ef          	jal	ra,100016c <print_uart_hex.constprop.1>
 1000694:	00000597          	auipc	a1,0x0
 1000698:	2ec58593          	addi	a1,a1,748 # 1000980 <__global_pointer$+0xd8>
 100069c:	00000513          	li	a0,0
 10006a0:	a61ff0ef          	jal	ra,1000100 <print_uart>
 10006a4:	08813083          	ld	ra,136(sp)
 10006a8:	08013403          	ld	s0,128(sp)
 10006ac:	07813483          	ld	s1,120(sp)
 10006b0:	07013903          	ld	s2,112(sp)
 10006b4:	06813983          	ld	s3,104(sp)
 10006b8:	06013a03          	ld	s4,96(sp)
 10006bc:	05813a83          	ld	s5,88(sp)
 10006c0:	05013b03          	ld	s6,80(sp)
 10006c4:	04813b83          	ld	s7,72(sp)
 10006c8:	04013c03          	ld	s8,64(sp)
 10006cc:	03813c83          	ld	s9,56(sp)
 10006d0:	03013d03          	ld	s10,48(sp)
 10006d4:	02813d83          	ld	s11,40(sp)
 10006d8:	09010113          	addi	sp,sp,144
 10006dc:	00008067          	ret
 10006e0:	02faf537          	lui	a0,0x2faf
 10006e4:	08050513          	addi	a0,a0,128 # 2faf080 <__base_i2c_sym+0xfab080>
 10006e8:	db1ff0ef          	jal	ra,1000498 <delay_cycles>
 10006ec:	f8043583          	ld	a1,-128(s0)
 10006f0:	00000513          	li	a0,0
 10006f4:	c3dff0ef          	jal	ra,1000330 <uart_xmodem>
 10006f8:	00000597          	auipc	a1,0x0
 10006fc:	0e058593          	addi	a1,a1,224 # 10007d8 <bootrom+0x314>
 1000700:	00000513          	li	a0,0
 1000704:	9fdff0ef          	jal	ra,1000100 <print_uart>
 1000708:	e65ff06f          	j	100056c <bootrom+0xa8>
 100070c:	00000597          	auipc	a1,0x0
 1000710:	1f458593          	addi	a1,a1,500 # 1000900 <__global_pointer$+0x58>
 1000714:	00000513          	li	a0,0
 1000718:	f8840d13          	addi	s10,s0,-120
 100071c:	9e5ff0ef          	jal	ra,1000100 <print_uart>
 1000720:	000d0493          	mv	s1,s10
 1000724:	00d00d93          	li	s11,13
 1000728:	00000513          	li	a0,0
 100072c:	999ff0ef          	jal	ra,10000c4 <read_serial>
 1000730:	00ad0023          	sb	a0,0(s10)
 1000734:	07b51c63          	bne	a0,s11,10007ac <bootrom+0x2e8>
 1000738:	00048793          	mv	a5,s1
 100073c:	000d0023          	sb	zero,0(s10)
 1000740:	00000493          	li	s1,0
 1000744:	00a00693          	li	a3,10
 1000748:	0007c703          	lbu	a4,0(a5)
 100074c:	06071463          	bnez	a4,10007b4 <bootrom+0x2f0>
 1000750:	00000597          	auipc	a1,0x0
 1000754:	1e058593          	addi	a1,a1,480 # 1000930 <__global_pointer$+0x88>
 1000758:	00000513          	li	a0,0
 100075c:	9a5ff0ef          	jal	ra,1000100 <print_uart>
 1000760:	00000613          	li	a2,0
 1000764:	00090513          	mv	a0,s2
 1000768:	00800593          	li	a1,8
 100076c:	a01ff0ef          	jal	ra,100016c <print_uart_hex.constprop.1>
 1000770:	00000597          	auipc	a1,0x0
 1000774:	1d858593          	addi	a1,a1,472 # 1000948 <__global_pointer$+0xa0>
 1000778:	00000513          	li	a0,0
 100077c:	985ff0ef          	jal	ra,1000100 <print_uart>
 1000780:	f8043503          	ld	a0,-128(s0)
 1000784:	00100613          	li	a2,1
 1000788:	0004859b          	sext.w	a1,s1
 100078c:	9e1ff0ef          	jal	ra,100016c <print_uart_hex.constprop.1>
 1000790:	00000597          	auipc	a1,0x0
 1000794:	1c058593          	addi	a1,a1,448 # 1000950 <__global_pointer$+0xa8>
 1000798:	00000513          	li	a0,0
 100079c:	965ff0ef          	jal	ra,1000100 <print_uart>
 10007a0:	00000513          	li	a0,0
 10007a4:	921ff0ef          	jal	ra,10000c4 <read_serial>
 10007a8:	dc5ff06f          	j	100056c <bootrom+0xa8>
 10007ac:	001d0d13          	addi	s10,s10,1
 10007b0:	f79ff06f          	j	1000728 <bootrom+0x264>
 10007b4:	02d484b3          	mul	s1,s1,a3
 10007b8:	00178793          	addi	a5,a5,1
 10007bc:	fd048493          	addi	s1,s1,-48
 10007c0:	009704b3          	add	s1,a4,s1
 10007c4:	f85ff06f          	j	1000748 <bootrom+0x284>

Disassembly of section .rodata:

00000000010007c8 <.rodata>:
 10007c8:	3130                	fld	fa2,96(a0)
 10007ca:	3332                	fld	ft6,296(sp)
 10007cc:	3534                	fld	fa3,104(a0)
 10007ce:	3736                	fld	fa4,360(sp)
 10007d0:	3938                	fld	fa4,112(a0)
 10007d2:	4241                	li	tp,16
 10007d4:	46454443          	fmadd.q	fs0,fa0,ft4,fs0,rmm
 10007d8:	0a0d                	addi	s4,s4,3
 10007da:	2009                	0x2009
 10007dc:	6f4c                	ld	a1,152(a4)
 10007de:	6461                	lui	s0,0x18
 10007e0:	6620                	ld	s0,72(a2)
 10007e2:	6e69                	lui	t3,0x1a
 10007e4:	7369                	lui	t1,0xffffa
 10007e6:	6568                	ld	a0,200(a0)
 10007e8:	2e64                	fld	fs1,216(a2)
 10007ea:	0d20                	addi	s0,sp,664
 10007ec:	0d0a                	slli	s10,s10,0x2
 10007ee:	000a                	c.slli	zero,0x2
 10007f0:	4a325b1b          	0x4a325b1b
 10007f4:	0000                	unimp
 10007f6:	0000                	unimp
 10007f8:	0a0d                	addi	s4,s4,3
 10007fa:	0909                	addi	s2,s2,2
 10007fc:	5720                	lw	s0,104(a4)
 10007fe:	6c65                	lui	s8,0x19
 1000800:	656d6f63          	bltu	s10,s6,1000e5e <__global_pointer$+0x5b6>
 1000804:	7420                	ld	s0,104(s0)
 1000806:	6548206f          	j	1082e5a <__global_pointer$+0x825b2>
 100080a:	414d                	li	sp,19
 100080c:	4169                	li	sp,26
 100080e:	4220                	lw	s0,64(a2)
 1000810:	72746f6f          	jal	t5,1047736 <__global_pointer$+0x46e8e>
 1000814:	00006d6f          	jal	s10,1006814 <__global_pointer$+0x5f6c>
 1000818:	0a0d                	addi	s4,s4,3
 100081a:	0000                	unimp
 100081c:	0000                	unimp
 100081e:	0000                	unimp
 1000820:	0a0d                	addi	s4,s4,3
 1000822:	2009                	0x2009
 1000824:	70696843          	fmadd.s	fa6,fs2,ft6,fa4,unknown
 1000828:	4920                	lw	s0,80(a0)
 100082a:	3a44                	fld	fs1,176(a2)
 100082c:	3020                	fld	fs0,96(s0)
 100082e:	0078                	addi	a4,sp,12
 1000830:	0a0d                	addi	s4,s4,3
 1000832:	2009                	0x2009
 1000834:	6e45                	lui	t3,0x11
 1000836:	6574                	ld	a3,200(a0)
 1000838:	2072                	fld	ft0,280(sp)
 100083a:	6874                	ld	a3,208(s0)
 100083c:	2065                	0x2065
 100083e:	756e                	ld	a0,248(sp)
 1000840:	626d                	lui	tp,0x1b
 1000842:	7265                	lui	tp,0xffff9
 1000844:	7420                	ld	s0,104(s0)
 1000846:	6573206f          	j	103369c <__global_pointer$+0x32df4>
 100084a:	656c                	ld	a1,200(a0)
 100084c:	74207463          	bgeu	zero,sp,1000f94 <__global_pointer$+0x6ec>
 1000850:	6568                	ld	a0,200(a0)
 1000852:	6d20                	ld	s0,88(a0)
 1000854:	3a65646f          	jal	s0,1056bfa <__global_pointer$+0x56352>
 1000858:	0020                	addi	s0,sp,8
 100085a:	0000                	unimp
 100085c:	0000                	unimp
 100085e:	0000                	unimp
 1000860:	0a0d                	addi	s4,s4,3
 1000862:	2009                	0x2009
 1000864:	2e31                	addiw	t3,t3,12
 1000866:	4c20                	lw	s0,88(s0)
 1000868:	2064616f          	jal	sp,1046a6e <__global_pointer$+0x461c6>
 100086c:	7266                	ld	tp,120(sp)
 100086e:	4a206d6f          	jal	s10,1006d10 <__global_pointer$+0x6468>
 1000872:	4154                	lw	a3,4(a0)
 1000874:	00000047          	fmsub.s	ft0,ft0,ft0,ft0,rne
 1000878:	0a0d                	addi	s4,s4,3
 100087a:	2009                	0x2009
 100087c:	2e32                	fld	ft8,264(sp)
 100087e:	4c20                	lw	s0,88(s0)
 1000880:	2064616f          	jal	sp,1046a86 <__global_pointer$+0x461de>
 1000884:	7266                	ld	tp,120(sp)
 1000886:	55206d6f          	jal	s10,1006dd8 <__global_pointer$+0x6530>
 100088a:	5241                	li	tp,-16
 100088c:	2054                	fld	fa3,128(s0)
 100088e:	6f74                	ld	a3,216(a4)
 1000890:	3020                	fld	fs0,96(s0)
 1000892:	0078                	addi	a4,sp,12
 1000894:	0000                	unimp
 1000896:	0000                	unimp
 1000898:	0a0d                	addi	s4,s4,3
 100089a:	2009                	0x2009
 100089c:	50202e33          	0x50202e33
 10008a0:	6972                	ld	s2,280(sp)
 10008a2:	746e                	ld	s0,248(sp)
 10008a4:	6d20                	ld	s0,88(a0)
 10008a6:	6d65                	lui	s10,0x19
 10008a8:	2079726f          	jal	tp,10982ae <__global_pointer$+0x97a06>
 10008ac:	7266                	ld	tp,120(sp)
 10008ae:	30206d6f          	jal	s10,1006bb0 <__global_pointer$+0x6308>
 10008b2:	0078                	addi	a4,sp,12
 10008b4:	0000                	unimp
 10008b6:	0000                	unimp
 10008b8:	0a0d                	addi	s4,s4,3
 10008ba:	2009                	0x2009
 10008bc:	2e34                	fld	fa3,88(a2)
 10008be:	4320                	lw	s0,64(a4)
 10008c0:	69746e6f          	jal	t3,1047756 <__global_pointer$+0x46eae>
 10008c4:	756e                	ld	a0,248(sp)
 10008c6:	2065                	0x2065
 10008c8:	6f74                	ld	a3,216(a4)
 10008ca:	4220                	lw	s0,64(a2)
 10008cc:	20746f6f          	jal	t5,10472d2 <__global_pointer$+0x46a2a>
 10008d0:	7266                	ld	tp,120(sp)
 10008d2:	30206d6f          	jal	s10,1006bd4 <__global_pointer$+0x632c>
 10008d6:	0078                	addi	a4,sp,12
 10008d8:	0a0d                	addi	s4,s4,3
 10008da:	2009                	0x2009
 10008dc:	6148                	ld	a0,128(a0)
 10008de:	646e                	ld	s0,216(sp)
 10008e0:	7265766f          	jal	a2,1058006 <__global_pointer$+0x5775e>
 10008e4:	7420                	ld	s0,104(s0)
 10008e6:	6564206f          	j	1042f3c <__global_pointer$+0x42694>
 10008ea:	7562                	ld	a0,56(sp)
 10008ec:	72656767          	0x72656767
 10008f0:	2e2e                	fld	ft8,200(sp)
 10008f2:	202e                	fld	ft0,200(sp)
 10008f4:	0a0d                	addi	s4,s4,3
 10008f6:	0a0d                	addi	s4,s4,3
	...
 1000900:	0a0d                	addi	s4,s4,3
 1000902:	2009                	0x2009
 1000904:	6e45                	lui	t3,0x11
 1000906:	6574                	ld	a3,200(a0)
 1000908:	2072                	fld	ft0,280(sp)
 100090a:	6874                	ld	a3,208(s0)
 100090c:	2065                	0x2065
 100090e:	657a6973          	csrrsi	s2,0x657,20
 1000912:	6f20                	ld	s0,88(a4)
 1000914:	2066                	fld	ft0,88(sp)
 1000916:	6874                	ld	a3,208(s0)
 1000918:	2065                	0x2065
 100091a:	656d                	lui	a0,0x1b
 100091c:	6f6d                	lui	t5,0x1b
 100091e:	7972                	ld	s2,312(sp)
 1000920:	6920                	ld	s0,80(a0)
 1000922:	206e                	fld	ft0,216(sp)
 1000924:	7962                	ld	s2,56(sp)
 1000926:	6574                	ld	a3,200(a0)
 1000928:	203a                	fld	ft0,392(sp)
 100092a:	0000                	unimp
 100092c:	0000                	unimp
 100092e:	0000                	unimp
 1000930:	0a0d                	addi	s4,s4,3
 1000932:	2009                	0x2009
 1000934:	6854                	ld	a3,144(s0)
 1000936:	2065                	0x2065
 1000938:	656d                	lui	a0,0x1b
 100093a:	6f6d                	lui	t5,0x1b
 100093c:	7972                	ld	s2,312(sp)
 100093e:	6620                	ld	s0,72(a2)
 1000940:	6f72                	ld	t5,280(sp)
 1000942:	206d                	0x206d
 1000944:	7830                	ld	a2,112(s0)
 1000946:	0000                	unimp
 1000948:	7369                	lui	t1,0xffffa
 100094a:	003a                	c.slli	zero,0xe
 100094c:	0000                	unimp
 100094e:	0000                	unimp
 1000950:	0a0d                	addi	s4,s4,3
 1000952:	0a0d                	addi	s4,s4,3
 1000954:	2009                	0x2009
 1000956:	7250                	ld	a2,160(a2)
 1000958:	6e69                	lui	t3,0x1a
 100095a:	2074                	fld	fa3,192(s0)
 100095c:	6966                	ld	s2,88(sp)
 100095e:	696e                	ld	s2,216(sp)
 1000960:	64656873          	csrrsi	a6,0x646,10
 1000964:	202e                	fld	ft0,200(sp)
 1000966:	0000                	unimp
 1000968:	0a0d                	addi	s4,s4,3
 100096a:	2009                	0x2009
 100096c:	6f42                	ld	t5,16(sp)
 100096e:	6e69746f          	jal	s0,1098054 <__global_pointer$+0x977ac>
 1000972:	74612067          	0x74612067
 1000976:	3020                	fld	fs0,96(s0)
 1000978:	0078                	addi	a4,sp,12
 100097a:	0000                	unimp
 100097c:	0000                	unimp
 100097e:	0000                	unimp
 1000980:	2e2e                	fld	ft8,200(sp)
 1000982:	0d2e                	slli	s10,s10,0xb
 1000984:	0d0a                	slli	s10,s10,0x2
 1000986:	000a                	c.slli	zero,0x2

Disassembly of section .got:

0000000070000000 <_GLOBAL_OFFSET_TABLE_>:
	...
    70000008:	2000                	fld	fs0,0(s0)
    7000000a:	0200                	addi	s0,sp,256
    7000000c:	0000                	unimp
	...

Disassembly of section .got.plt:

0000000070000010 <__base_spm_sym+0x10>:
    70000010:	ffff                	0xffff
    70000012:	ffff                	0xffff
    70000014:	ffff                	0xffff
    70000016:	ffff                	0xffff
	...

Disassembly of section .riscv.attributes:

0000000000000000 <.riscv.attributes>:
   0:	2f41                	addiw	t5,t5,16
   2:	0000                	unimp
   4:	7200                	ld	s0,32(a2)
   6:	7369                	lui	t1,0xffffa
   8:	01007663          	bgeu	zero,a6,14 <__quad_stride-0xffec>
   c:	0025                	c.nop	9
   e:	0000                	unimp
  10:	1004                	addi	s1,sp,32
  12:	7205                	lui	tp,0xfffe1
  14:	3676                	fld	fa2,376(sp)
  16:	6934                	ld	a3,80(a0)
  18:	7032                	0x7032
  1a:	5f30                	lw	a2,120(a4)
  1c:	326d                	addiw	tp,tp,-5
  1e:	3070                	fld	fa2,224(s0)
  20:	615f 7032 5f30      	0x5f307032615f
  26:	3266                	fld	ft4,120(sp)
  28:	3070                	fld	fa2,224(s0)
  2a:	645f 7032 0030      	0x307032645f

Disassembly of section .comment:

0000000000000000 <.comment>:
   0:	3a434347          	fmsub.d	ft6,ft6,ft4,ft7,rmm
   4:	2820                	fld	fs0,80(s0)
   6:	69466953          	0x69466953
   a:	6576                	ld	a0,344(sp)
   c:	4720                	lw	s0,72(a4)
   e:	38204343          	fmadd.s	ft6,ft0,ft2,ft7,rmm
  12:	332e                	fld	ft6,232(sp)
  14:	302e                	fld	ft0,232(sp)
  16:	322d                	addiw	tp,tp,-21
  18:	3230                	fld	fa2,96(a2)
  1a:	2e30                	fld	fa2,88(a2)
  1c:	3430                	fld	fa2,104(s0)
  1e:	302e                	fld	ft0,232(sp)
  20:	2029                	0x2029
  22:	2e38                	fld	fa4,88(a2)
  24:	00302e33          	sgtz	t3,gp

Disassembly of section .debug_line:

0000000000000000 <.debug_line>:
   0:	00dc                	addi	a5,sp,68
   2:	0000                	unimp
   4:	00200003          	lb	zero,2(zero) # 2 <__quad_stride-0xfffe>
   8:	0000                	unimp
   a:	0101                	addi	sp,sp,0
   c:	000d0efb          	0xd0efb
  10:	0101                	addi	sp,sp,0
  12:	0101                	addi	sp,sp,0
  14:	0000                	unimp
  16:	0100                	addi	s0,sp,128
  18:	0000                	unimp
  1a:	0001                	nop
  1c:	6f62                	ld	t5,24(sp)
  1e:	6f72746f          	jal	s0,27f14 <__quad_stride+0x17f14>
  22:	2e6d                	addiw	t3,t3,27
  24:	00000053          	fadd.s	ft0,ft0,ft0,rne
  28:	0000                	unimp
  2a:	0900                	addi	s0,sp,144
  2c:	0002                	c.slli64	zero
  2e:	0000                	unimp
  30:	0001                	nop
  32:	0000                	unimp
  34:	0300                	addi	s0,sp,384
  36:	010a                	slli	sp,sp,0x2
  38:	04090103          	lb	sp,64(s2)
  3c:	0100                	addi	s0,sp,128
  3e:	04090903          	lb	s2,64(s2)
  42:	0100                	addi	s0,sp,128
  44:	04090203          	lb	tp,64(s2)
  48:	0100                	addi	s0,sp,128
  4a:	08090103          	lb	sp,128(s2)
  4e:	0100                	addi	s0,sp,128
  50:	04090203          	lb	tp,64(s2)
  54:	0100                	addi	s0,sp,128
  56:	04090103          	lb	sp,64(s2)
  5a:	0100                	addi	s0,sp,128
  5c:	04090103          	lb	sp,64(s2)
  60:	0100                	addi	s0,sp,128
  62:	04090103          	lb	sp,64(s2)
  66:	0100                	addi	s0,sp,128
  68:	04090103          	lb	sp,64(s2)
  6c:	0100                	addi	s0,sp,128
  6e:	04090303          	lb	t1,64(s2)
  72:	0100                	addi	s0,sp,128
  74:	08090103          	lb	sp,128(s2)
  78:	0100                	addi	s0,sp,128
  7a:	04090103          	lb	sp,64(s2)
  7e:	0100                	addi	s0,sp,128
  80:	04090103          	lb	sp,64(s2)
  84:	0100                	addi	s0,sp,128
  86:	04090703          	lb	a4,64(s2)
  8a:	0100                	addi	s0,sp,128
  8c:	04090203          	lb	tp,64(s2)
  90:	0100                	addi	s0,sp,128
  92:	04090403          	lb	s0,64(s2)
  96:	0100                	addi	s0,sp,128
  98:	08090103          	lb	sp,128(s2)
  9c:	0100                	addi	s0,sp,128
  9e:	04090303          	lb	t1,64(s2)
  a2:	0100                	addi	s0,sp,128
  a4:	08090103          	lb	sp,128(s2)
  a8:	0100                	addi	s0,sp,128
  aa:	04090103          	lb	sp,64(s2)
  ae:	0100                	addi	s0,sp,128
  b0:	08090103          	lb	sp,128(s2)
  b4:	0100                	addi	s0,sp,128
  b6:	04090103          	lb	sp,64(s2)
  ba:	0100                	addi	s0,sp,128
  bc:	04090103          	lb	sp,64(s2)
  c0:	0100                	addi	s0,sp,128
  c2:	08090103          	lb	sp,128(s2)
  c6:	0100                	addi	s0,sp,128
  c8:	04090103          	lb	sp,64(s2)
  cc:	0100                	addi	s0,sp,128
  ce:	04090203          	lb	tp,64(s2)
  d2:	0100                	addi	s0,sp,128
  d4:	04090103          	lb	sp,64(s2)
  d8:	0100                	addi	s0,sp,128
  da:	0409                	addi	s0,s0,2
  dc:	0000                	unimp
  de:	0101                	addi	sp,sp,0
  e0:	0afd                	addi	s5,s5,31
  e2:	0000                	unimp
  e4:	00810003          	lb	zero,8(sp)
  e8:	0000                	unimp
  ea:	0101                	addi	sp,sp,0
  ec:	000d0efb          	0xd0efb
  f0:	0101                	addi	sp,sp,0
  f2:	0101                	addi	sp,sp,0
  f4:	0000                	unimp
  f6:	0100                	addi	s0,sp,128
  f8:	0000                	unimp
  fa:	7301                	lui	t1,0xfffe0
  fc:	6372                	ld	t1,280(sp)
  fe:	2f00                	fld	fs0,24(a4)
 100:	6f74                	ld	a3,216(a4)
 102:	2f736c6f          	jal	s8,36bf8 <__quad_stride+0x26bf8>
 106:	6972                	ld	s2,280(sp)
 108:	2f766373          	csrrsi	t1,0x2f7,12
 10c:	696c                	ld	a1,208(a0)
 10e:	2f62                	fld	ft10,24(sp)
 110:	2f636367          	0x2f636367
 114:	6972                	ld	s2,280(sp)
 116:	36766373          	csrrsi	t1,0x367,12
 11a:	2d34                	fld	fa3,88(a0)
 11c:	6e75                	lui	t3,0x1d
 11e:	776f6e6b          	0x776f6e6b
 122:	2d6e                	fld	fs10,216(sp)
 124:	6c65                	lui	s8,0x19
 126:	2f66                	fld	ft10,88(sp)
 128:	2e38                	fld	fa4,88(a2)
 12a:	2f302e33          	0x2f302e33
 12e:	6e69                	lui	t3,0x1a
 130:	64756c63          	bltu	a0,t2,788 <__quad_stride-0xf878>
 134:	0065                	c.nop	25
 136:	7500                	ld	s0,40(a0)
 138:	7261                	lui	tp,0xffff8
 13a:	2e74                	fld	fa3,216(a2)
 13c:	0068                	addi	a0,sp,12
 13e:	0001                	nop
 140:	7800                	ld	s0,48(s0)
 142:	6f6d                	lui	t5,0x1b
 144:	6564                	ld	s1,200(a0)
 146:	2e6d                	addiw	t3,t3,27
 148:	0068                	addi	a0,sp,12
 14a:	0001                	nop
 14c:	6200                	ld	s0,0(a2)
 14e:	72746f6f          	jal	t5,47074 <__quad_stride+0x37074>
 152:	632e6d6f          	jal	s10,e6784 <__quad_stride+0xd6784>
 156:	0100                	addi	s0,sp,128
 158:	0000                	unimp
 15a:	69647473          	csrrci	s0,0x696,8
 15e:	746e                	ld	s0,248(sp)
 160:	672d                	lui	a4,0xb
 162:	682e6363          	bltu	t3,sp,7e8 <__quad_stride-0xf818>
 166:	0200                	addi	s0,sp,256
 168:	0000                	unimp
 16a:	0500                	addi	s0,sp,640
 16c:	02090043          	fmadd.d	ft0,fs2,ft0,ft0,rne
 170:	0088                	addi	a0,sp,64
 172:	0100                	addi	s0,sp,128
 174:	0000                	unimp
 176:	0000                	unimp
 178:	0100c503          	lbu	a0,16(ra)
 17c:	0505                	addi	a0,a0,1
 17e:	00090103          	lb	sp,0(s2)
 182:	0100                	addi	s0,sp,128
 184:	4305                	li	t1,1
 186:	0306                	slli	t1,t1,0x1
 188:	097f                	0x97f
 18a:	0000                	unimp
 18c:	0501                	addi	a0,a0,0
 18e:	0329                	addi	t1,t1,10
 190:	0979                	addi	s2,s2,30
 192:	0004                	0x4
 194:	0501                	addi	a0,a0,0
 196:	09070343          	fmadd.s	ft6,fa4,fa6,ft1,rne
 19a:	0008                	0x8
 19c:	0501                	addi	a0,a0,0
 19e:	0329                	addi	t1,t1,10
 1a0:	0979                	addi	s2,s2,30
 1a2:	0004                	0x4
 1a4:	0501                	addi	a0,a0,0
 1a6:	09070343          	fmadd.s	ft6,fa4,fa6,ft1,rne
 1aa:	0004                	0x4
 1ac:	0501                	addi	a0,a0,0
 1ae:	030c                	addi	a1,sp,384
 1b0:	0979                	addi	s2,s2,30
 1b2:	0004                	0x4
 1b4:	0501                	addi	a0,a0,0
 1b6:	0005                	c.nop	1
 1b8:	0402                	c.slli64	s0
 1ba:	0601                	addi	a2,a2,0
 1bc:	04090903          	lb	s2,64(s2)
 1c0:	0100                	addi	s0,sp,128
 1c2:	0200                	addi	s0,sp,256
 1c4:	0104                	addi	s1,sp,128
 1c6:	00097703          	0x97703
 1ca:	0100                	addi	s0,sp,128
 1cc:	0200                	addi	s0,sp,256
 1ce:	0104                	addi	s1,sp,128
 1d0:	00097403          	0x97403
 1d4:	0100                	addi	s0,sp,128
 1d6:	0c05                	addi	s8,s8,1
 1d8:	0200                	addi	s0,sp,256
 1da:	0104                	addi	s1,sp,128
 1dc:	0306                	slli	t1,t1,0x1
 1de:	0900                	addi	s0,sp,144
 1e0:	0000                	unimp
 1e2:	0501                	addi	a0,a0,0
 1e4:	0402000b          	0x402000b
 1e8:	0301                	addi	t1,t1,0
 1ea:	0914                	addi	a3,sp,144
 1ec:	0004                	0x4
 1ee:	0501                	addi	a0,a0,0
 1f0:	0606                	slli	a2,a2,0x1
 1f2:	08090103          	lb	sp,128(s2)
 1f6:	0100                	addi	s0,sp,128
 1f8:	0505                	addi	a0,a0,1
 1fa:	00090203          	lb	tp,0(s2)
 1fe:	0100                	addi	s0,sp,128
 200:	00096403          	lwu	s0,0(s2)
 204:	0100                	addi	s0,sp,128
 206:	0306                	slli	t1,t1,0x1
 208:	091c                	addi	a5,sp,144
 20a:	0000                	unimp
 20c:	0601                	addi	a2,a2,0
 20e:	04096503          	lwu	a0,64(s2)
 212:	0100                	addi	s0,sp,128
 214:	0f05                	addi	t5,t5,1
 216:	0306                	slli	t1,t1,0x1
 218:	0900                	addi	s0,sp,144
 21a:	0000                	unimp
 21c:	0501                	addi	a0,a0,0
 21e:	0301                	addi	t1,t1,0
 220:	091c                	addi	a5,sp,144
 222:	0004                	0x4
 224:	0501                	addi	a0,a0,0
 226:	063d                	addi	a2,a2,15
 228:	0c090203          	lb	tp,192(s2)
 22c:	0100                	addi	s0,sp,128
 22e:	0505                	addi	a0,a0,1
 230:	00090103          	lb	sp,0(s2)
 234:	0100                	addi	s0,sp,128
 236:	3d05                	addiw	s10,s10,-31
 238:	0306                	slli	t1,t1,0x1
 23a:	097f                	0x97f
 23c:	0000                	unimp
 23e:	0501                	addi	a0,a0,0
 240:	0329                	addi	t1,t1,10
 242:	096a                	slli	s2,s2,0x1a
 244:	0004                	0x4
 246:	0501                	addi	a0,a0,0
 248:	033d                	addi	t1,t1,15
 24a:	0916                	slli	s2,s2,0x5
 24c:	0008                	0x8
 24e:	0501                	addi	a0,a0,0
 250:	0329                	addi	t1,t1,10
 252:	096a                	slli	s2,s2,0x1a
 254:	0004                	0x4
 256:	0501                	addi	a0,a0,0
 258:	033d                	addi	t1,t1,15
 25a:	0916                	slli	s2,s2,0x5
 25c:	0004                	0x4
 25e:	0501                	addi	a0,a0,0
 260:	030c                	addi	a1,sp,384
 262:	096a                	slli	s2,s2,0x1a
 264:	0004                	0x4
 266:	0501                	addi	a0,a0,0
 268:	0005                	c.nop	1
 26a:	0402                	c.slli64	s0
 26c:	0601                	addi	a2,a2,0
 26e:	04091803          	lh	a6,64(s2)
 272:	0100                	addi	s0,sp,128
 274:	0200                	addi	s0,sp,256
 276:	0104                	addi	s1,sp,128
 278:	00096803          	lwu	a6,0(s2)
 27c:	0100                	addi	s0,sp,128
 27e:	0200                	addi	s0,sp,256
 280:	0104                	addi	s1,sp,128
 282:	00097c03          	0x97c03
 286:	0100                	addi	s0,sp,128
 288:	0c05                	addi	s8,s8,1
 28a:	0200                	addi	s0,sp,256
 28c:	0104                	addi	s1,sp,128
 28e:	0306                	slli	t1,t1,0x1
 290:	0900                	addi	s0,sp,144
 292:	0000                	unimp
 294:	0501                	addi	a0,a0,0
 296:	0402000b          	0x402000b
 29a:	0301                	addi	t1,t1,0
 29c:	0004091b          	sext.w	s2,s0
 2a0:	0501                	addi	a0,a0,0
 2a2:	0606                	slli	a2,a2,0x1
 2a4:	08090103          	lb	sp,128(s2)
 2a8:	0100                	addi	s0,sp,128
 2aa:	0505                	addi	a0,a0,1
 2ac:	00090203          	lb	tp,0(s2)
 2b0:	0100                	addi	s0,sp,128
 2b2:	00096203          	lwu	tp,0(s2)
 2b6:	0100                	addi	s0,sp,128
 2b8:	0105                	addi	sp,sp,1
 2ba:	0306                	slli	t1,t1,0x1
 2bc:	091f 0000 0501      	0x5010000091f
 2c2:	030c                	addi	a1,sp,384
 2c4:	097f                	0x97f
 2c6:	0004                	0x4
 2c8:	0301                	addi	t1,t1,0
 2ca:	0962                	slli	s2,s2,0x18
 2cc:	0004                	0x4
 2ce:	0501                	addi	a0,a0,0
 2d0:	0301                	addi	t1,t1,0
 2d2:	091f 0004 0501      	0x5010004091f
 2d8:	064a                	slli	a2,a2,0x12
 2da:	08091403          	lh	s0,128(s2)
 2de:	0100                	addi	s0,sp,128
 2e0:	0505                	addi	a0,a0,1
 2e2:	20090103          	lb	sp,512(s2)
 2e6:	0100                	addi	s0,sp,128
 2e8:	00090103          	lb	sp,0(s2)
 2ec:	0100                	addi	s0,sp,128
 2ee:	0c05                	addi	s8,s8,1
 2f0:	0306                	slli	t1,t1,0x1
 2f2:	0900                	addi	s0,sp,144
 2f4:	0000                	unimp
 2f6:	0501                	addi	a0,a0,0
 2f8:	0900030b          	0x900030b
 2fc:	0004                	0x4
 2fe:	0501                	addi	a0,a0,0
 300:	0329                	addi	t1,t1,10
 302:	0004095b          	0x4095b
 306:	0501                	addi	a0,a0,0
 308:	030c                	addi	a1,sp,384
 30a:	0900                	addi	s0,sp,144
 30c:	000c                	0xc
 30e:	0501                	addi	a0,a0,0
 310:	002e                	c.slli	zero,0xb
 312:	0402                	c.slli64	s0
 314:	0601                	addi	a2,a2,0
 316:	04092903          	lw	s2,64(s2)
 31a:	0100                	addi	s0,sp,128
 31c:	0505                	addi	a0,a0,1
 31e:	0200                	addi	s0,sp,256
 320:	0104                	addi	s1,sp,128
 322:	00095703          	lhu	a4,0(s2)
 326:	0100                	addi	s0,sp,128
 328:	0200                	addi	s0,sp,256
 32a:	0104                	addi	s1,sp,128
 32c:	00097003          	0x97003
 330:	0100                	addi	s0,sp,128
 332:	0c05                	addi	s8,s8,1
 334:	0200                	addi	s0,sp,256
 336:	0104                	addi	s1,sp,128
 338:	0306                	slli	t1,t1,0x1
 33a:	0900                	addi	s0,sp,144
 33c:	0000                	unimp
 33e:	0501                	addi	a0,a0,0
 340:	0402000b          	0x402000b
 344:	0301                	addi	t1,t1,0
 346:	0939                	addi	s2,s2,14
 348:	0004                	0x4
 34a:	0501                	addi	a0,a0,0
 34c:	0301                	addi	t1,t1,0
 34e:	0901                	addi	s2,s2,0
 350:	0008                	0x8
 352:	0501                	addi	a0,a0,0
 354:	0609                	addi	a2,a2,2
 356:	18097c03          	0x18097c03
 35a:	0100                	addi	s0,sp,128
 35c:	08090103          	lb	sp,128(s2)
 360:	0100                	addi	s0,sp,128
 362:	1405                	addi	s0,s0,-31
 364:	08090503          	lb	a0,128(s2)
 368:	0100                	addi	s0,sp,128
 36a:	0505                	addi	a0,a0,1
 36c:	00090203          	lb	tp,0(s2)
 370:	0100                	addi	s0,sp,128
 372:	1405                	addi	s0,s0,-31
 374:	0306                	slli	t1,t1,0x1
 376:	097e                	slli	s2,s2,0x1f
 378:	0000                	unimp
 37a:	0501                	addi	a0,a0,0
 37c:	030d                	addi	t1,t1,3
 37e:	0902                	c.slli64	s2
 380:	0024                	addi	s1,sp,8
 382:	0501                	addi	a0,a0,0
 384:	0338                	addi	a4,sp,392
 386:	0902                	c.slli64	s2
 388:	000c                	0xc
 38a:	0501                	addi	a0,a0,0
 38c:	030d                	addi	t1,t1,3
 38e:	097e                	slli	s2,s2,0x1f
 390:	0008                	0x8
 392:	0501                	addi	a0,a0,0
 394:	0314                	addi	a3,sp,384
 396:	097e                	slli	s2,s2,0x1f
 398:	0010                	0x10
 39a:	0501                	addi	a0,a0,0
 39c:	09040313          	addi	t1,s0,144 # 18090 <__quad_stride+0x8090>
 3a0:	0004                	0x4
 3a2:	0501                	addi	a0,a0,0
 3a4:	030d                	addi	t1,t1,3
 3a6:	097e                	slli	s2,s2,0x1f
 3a8:	0004                	0x4
 3aa:	0501                	addi	a0,a0,0
 3ac:	0605                	addi	a2,a2,1
 3ae:	04090203          	lb	tp,64(s2)
 3b2:	0100                	addi	s0,sp,128
 3b4:	0a05                	addi	s4,s4,1
 3b6:	00090003          	lb	zero,0(s2)
 3ba:	0100                	addi	s0,sp,128
 3bc:	3805                	addiw	a6,a6,-31
 3be:	0306                	slli	t1,t1,0x1
 3c0:	0900                	addi	s0,sp,144
 3c2:	0000                	unimp
 3c4:	0501                	addi	a0,a0,0
 3c6:	030d                	addi	t1,t1,3
 3c8:	0904                	addi	s1,sp,144
 3ca:	0004                	0x4
 3cc:	0501                	addi	a0,a0,0
 3ce:	0305                	addi	t1,t1,1
 3d0:	097c                	addi	a5,sp,156
 3d2:	0004                	0x4
 3d4:	0501                	addi	a0,a0,0
 3d6:	0329                	addi	t1,t1,10
 3d8:	0950                	addi	a2,sp,148
 3da:	0004                	0x4
 3dc:	0501                	addi	a0,a0,0
 3de:	062e                	slli	a2,a2,0xb
 3e0:	08093e03          	ld	t3,128(s2)
 3e4:	0100                	addi	s0,sp,128
 3e6:	0505                	addi	a0,a0,1
 3e8:	00094203          	lbu	tp,0(s2)
 3ec:	0100                	addi	s0,sp,128
 3ee:	00097003          	0x97003
 3f2:	0100                	addi	s0,sp,128
 3f4:	0c05                	addi	s8,s8,1
 3f6:	0306                	slli	t1,t1,0x1
 3f8:	0900                	addi	s0,sp,144
 3fa:	0000                	unimp
 3fc:	0501                	addi	a0,a0,0
 3fe:	00ce030b          	0xce030b
 402:	0409                	addi	s0,s0,2
 404:	0100                	addi	s0,sp,128
 406:	0105                	addi	sp,sp,1
 408:	08090103          	lb	sp,128(s2)
 40c:	0100                	addi	s0,sp,128
 40e:	0905                	addi	s2,s2,1
 410:	0306                	slli	t1,t1,0x1
 412:	0972                	slli	s2,s2,0x1c
 414:	0024                	addi	s1,sp,8
 416:	0501                	addi	a0,a0,0
 418:	0003060f          	0x3060f
 41c:	0009                	c.nop	2
 41e:	0100                	addi	s0,sp,128
 420:	0c05                	addi	s8,s8,1
 422:	04090003          	lb	zero,64(s2)
 426:	0100                	addi	s0,sp,128
 428:	1905                	addi	s2,s2,-31
 42a:	04090003          	lb	zero,64(s2)
 42e:	0100                	addi	s0,sp,128
 430:	0d05                	addi	s10,s10,1
 432:	0306                	slli	t1,t1,0x1
 434:	0901                	addi	s2,s2,0
 436:	0004                	0x4
 438:	0301                	addi	t1,t1,0
 43a:	0901                	addi	s2,s2,0
 43c:	000c                	0xc
 43e:	0301                	addi	t1,t1,0
 440:	0901                	addi	s2,s2,0
 442:	000c                	0xc
 444:	0501                	addi	a0,a0,0
 446:	0312                	slli	t1,t1,0x4
 448:	0900                	addi	s0,sp,144
 44a:	0000                	unimp
 44c:	0501                	addi	a0,a0,0
 44e:	0616                	slli	a2,a2,0x5
 450:	00090003          	lb	zero,0(s2)
 454:	0100                	addi	s0,sp,128
 456:	3105                	addiw	sp,sp,-31
 458:	0306                	slli	t1,t1,0x1
 45a:	0900                	addi	s0,sp,144
 45c:	0004                	0x4
 45e:	0501                	addi	a0,a0,0
 460:	0655                	addi	a2,a2,21
 462:	00090003          	lb	zero,0(s2)
 466:	0100                	addi	s0,sp,128
 468:	5105                	li	sp,-31
 46a:	04090003          	lb	zero,64(s2)
 46e:	0100                	addi	s0,sp,128
 470:	5b05                	li	s6,-31
 472:	04090003          	lb	zero,64(s2)
 476:	0100                	addi	s0,sp,128
 478:	5105                	li	sp,-31
 47a:	04090003          	lb	zero,64(s2)
 47e:	0100                	addi	s0,sp,128
 480:	3105                	addiw	sp,sp,-31
 482:	04090003          	lb	zero,64(s2)
 486:	0100                	addi	s0,sp,128
 488:	2805                	addiw	a6,a6,1
 48a:	08090003          	lb	zero,128(s2)
 48e:	0100                	addi	s0,sp,128
 490:	3105                	addiw	sp,sp,-31
 492:	04090003          	lb	zero,64(s2)
 496:	0100                	addi	s0,sp,128
 498:	0d05                	addi	s10,s10,1
 49a:	04090003          	lb	zero,64(s2)
 49e:	0100                	addi	s0,sp,128
 4a0:	0306                	slli	t1,t1,0x1
 4a2:	0901                	addi	s2,s2,0
 4a4:	0004                	0x4
 4a6:	0301                	addi	t1,t1,0
 4a8:	0901                	addi	s2,s2,0
 4aa:	000c                	0xc
 4ac:	0501                	addi	a0,a0,0
 4ae:	0309                	addi	t1,t1,2
 4b0:	000c0903          	lb	s2,0(s8) # 19000 <__quad_stride+0x9000>
 4b4:	0501                	addi	a0,a0,0
 4b6:	060e                	slli	a2,a2,0x3
 4b8:	00090003          	lb	zero,0(s2)
 4bc:	0100                	addi	s0,sp,128
 4be:	0905                	addi	s2,s2,1
 4c0:	0306                	slli	t1,t1,0x1
 4c2:	0901                	addi	s2,s2,0
 4c4:	0004                	0x4
 4c6:	0501                	addi	a0,a0,0
 4c8:	0629                	addi	a2,a2,10
 4ca:	00090003          	lb	zero,0(s2)
 4ce:	0100                	addi	s0,sp,128
 4d0:	0905                	addi	s2,s2,1
 4d2:	04090003          	lb	zero,64(s2)
 4d6:	0100                	addi	s0,sp,128
 4d8:	2905                	addiw	s2,s2,1
 4da:	04090003          	lb	zero,64(s2)
 4de:	0100                	addi	s0,sp,128
 4e0:	0905                	addi	s2,s2,1
 4e2:	08090003          	lb	zero,128(s2)
 4e6:	0100                	addi	s0,sp,128
 4e8:	2905                	addiw	s2,s2,1
 4ea:	04090103          	lb	sp,64(s2)
 4ee:	0100                	addi	s0,sp,128
 4f0:	4305                	li	t1,1
 4f2:	04097503          	0x4097503
 4f6:	0100                	addi	s0,sp,128
 4f8:	0905                	addi	s2,s2,1
 4fa:	04090a03          	lb	s4,64(s2)
 4fe:	0100                	addi	s0,sp,128
 500:	0306                	slli	t1,t1,0x1
 502:	0901                	addi	s2,s2,0
 504:	0004                	0x4
 506:	0501                	addi	a0,a0,0
 508:	0629                	addi	a2,a2,10
 50a:	00090003          	lb	zero,0(s2)
 50e:	0100                	addi	s0,sp,128
 510:	0905                	addi	s2,s2,1
 512:	08090003          	lb	zero,128(s2)
 516:	0100                	addi	s0,sp,128
 518:	0306                	slli	t1,t1,0x1
 51a:	0901                	addi	s2,s2,0
 51c:	000c                	0xc
 51e:	0401                	addi	s0,s0,0
 520:	0502                	c.slli64	a0
 522:	033c                	addi	a5,sp,392
 524:	10097f9b          	0x10097f9b
 528:	0100                	addi	s0,sp,128
 52a:	0505                	addi	a0,a0,1
 52c:	00090103          	lb	sp,0(s2)
 530:	0100                	addi	s0,sp,128
 532:	00090103          	lb	sp,0(s2)
 536:	0100                	addi	s0,sp,128
 538:	0a05                	addi	s4,s4,1
 53a:	00090003          	lb	zero,0(s2)
 53e:	0100                	addi	s0,sp,128
 540:	3c05                	addiw	s8,s8,-31
 542:	0306                	slli	t1,t1,0x1
 544:	097e                	slli	s2,s2,0x1f
 546:	0000                	unimp
 548:	0501                	addi	a0,a0,0
 54a:	0305                	addi	t1,t1,1
 54c:	0902                	c.slli64	s2
 54e:	000c                	0xc
 550:	0501                	addi	a0,a0,0
 552:	030e                	slli	t1,t1,0x3
 554:	097f                	0x97f
 556:	0004                	0x4
 558:	0501                	addi	a0,a0,0
 55a:	0005                	c.nop	1
 55c:	0402                	c.slli64	s0
 55e:	0301                	addi	t1,t1,0
 560:	0901                	addi	s2,s2,0
 562:	0004                	0x4
 564:	0601                	addi	a2,a2,0
 566:	08090403          	lb	s0,128(s2)
 56a:	0100                	addi	s0,sp,128
 56c:	0105                	addi	sp,sp,1
 56e:	0306                	slli	t1,t1,0x1
 570:	0901                	addi	s2,s2,0
 572:	0000                	unimp
 574:	0501                	addi	a0,a0,0
 576:	0009                	c.nop	2
 578:	0402                	c.slli64	s0
 57a:	7c030603          	lb	a2,1984(t1) # fffffffffffe07c0 <__stack_pointer$+0xffffffff8ffc07c8>
 57e:	1009                	c.nop	-30
 580:	0100                	addi	s0,sp,128
 582:	2105                	addiw	sp,sp,1
 584:	0200                	addi	s0,sp,256
 586:	0304                	addi	s1,sp,384
 588:	0306                	slli	t1,t1,0x1
 58a:	0900                	addi	s0,sp,144
 58c:	0000                	unimp
 58e:	0501                	addi	a0,a0,0
 590:	0010                	0x10
 592:	0402                	c.slli64	s0
 594:	09000303          	lb	t1,144(zero) # 90 <__quad_stride-0xff70>
 598:	000c                	0xc
 59a:	0501                	addi	a0,a0,0
 59c:	0009                	c.nop	2
 59e:	0402                	c.slli64	s0
 5a0:	01030603          	lb	a2,16(t1)
 5a4:	0409                	addi	s0,s0,2
 5a6:	0100                	addi	s0,sp,128
 5a8:	1005                	c.nop	-31
 5aa:	0200                	addi	s0,sp,256
 5ac:	0304                	addi	s1,sp,384
 5ae:	0306                	slli	t1,t1,0x1
 5b0:	0900                	addi	s0,sp,144
 5b2:	0000                	unimp
 5b4:	0501                	addi	a0,a0,0
 5b6:	0635                	addi	a2,a2,13
 5b8:	08090503          	lb	a0,128(s2)
 5bc:	0100                	addi	s0,sp,128
 5be:	0505                	addi	a0,a0,1
 5c0:	00090103          	lb	sp,0(s2)
 5c4:	0100                	addi	s0,sp,128
 5c6:	00090103          	lb	sp,0(s2)
 5ca:	0100                	addi	s0,sp,128
 5cc:	00090203          	lb	tp,0(s2)
 5d0:	0100                	addi	s0,sp,128
 5d2:	0a05                	addi	s4,s4,1
 5d4:	00090003          	lb	zero,0(s2)
 5d8:	0100                	addi	s0,sp,128
 5da:	3505                	addiw	a0,a0,-31
 5dc:	0306                	slli	t1,t1,0x1
 5de:	097c                	addi	a5,sp,156
 5e0:	0000                	unimp
 5e2:	0501                	addi	a0,a0,0
 5e4:	0305                	addi	t1,t1,1
 5e6:	0904                	addi	s1,sp,144
 5e8:	000c                	0xc
 5ea:	0001                	nop
 5ec:	0402                	c.slli64	s0
 5ee:	0301                	addi	t1,t1,0
 5f0:	0900                	addi	s0,sp,144
 5f2:	0004                	0x4
 5f4:	0501                	addi	a0,a0,0
 5f6:	0301                	addi	t1,t1,0
 5f8:	0905                	addi	s2,s2,1
 5fa:	0008                	0x8
 5fc:	0501                	addi	a0,a0,0
 5fe:	0009                	c.nop	2
 600:	0402                	c.slli64	s0
 602:	7c030603          	lb	a2,1984(t1)
 606:	0c09                	addi	s8,s8,2
 608:	0100                	addi	s0,sp,128
 60a:	1105                	addi	sp,sp,-31
 60c:	0200                	addi	s0,sp,256
 60e:	0304                	addi	s1,sp,384
 610:	0306                	slli	t1,t1,0x1
 612:	0900                	addi	s0,sp,144
 614:	0000                	unimp
 616:	0501                	addi	a0,a0,0
 618:	000e                	c.slli	zero,0x3
 61a:	0402                	c.slli64	s0
 61c:	09000303          	lb	t1,144(zero) # 90 <__quad_stride-0xff70>
 620:	0008                	0x8
 622:	0501                	addi	a0,a0,0
 624:	0644                	addi	s1,sp,772
 626:	10090a03          	lb	s4,256(s2)
 62a:	0100                	addi	s0,sp,128
 62c:	0505                	addi	a0,a0,1
 62e:	00090103          	lb	sp,0(s2)
 632:	0100                	addi	s0,sp,128
 634:	00090103          	lb	sp,0(s2)
 638:	0100                	addi	s0,sp,128
 63a:	00090203          	lb	tp,0(s2)
 63e:	0100                	addi	s0,sp,128
 640:	4405                	li	s0,1
 642:	0306                	slli	t1,t1,0x1
 644:	097c                	addi	a5,sp,156
 646:	0000                	unimp
 648:	0301                	addi	t1,t1,0
 64a:	0900                	addi	s0,sp,144
 64c:	0030                	addi	a2,sp,8
 64e:	0501                	addi	a0,a0,0
 650:	0305                	addi	t1,t1,1
 652:	0904                	addi	s1,sp,144
 654:	0004                	0x4
 656:	0501                	addi	a0,a0,0
 658:	0344                	addi	s1,sp,388
 65a:	097c                	addi	a5,sp,156
 65c:	0004                	0x4
 65e:	0501                	addi	a0,a0,0
 660:	030e                	slli	t1,t1,0x3
 662:	0906                	slli	s2,s2,0x1
 664:	0004                	0x4
 666:	0501                	addi	a0,a0,0
 668:	0305                	addi	t1,t1,1
 66a:	097e                	slli	s2,s2,0x1f
 66c:	0004                	0x4
 66e:	0601                	addi	a2,a2,0
 670:	04090203          	lb	tp,64(s2)
 674:	0100                	addi	s0,sp,128
 676:	00090203          	lb	tp,0(s2)
 67a:	0100                	addi	s0,sp,128
 67c:	0c05                	addi	s8,s8,1
 67e:	0306                	slli	t1,t1,0x1
 680:	00000907          	0x907
 684:	0301                	addi	t1,t1,0
 686:	0906                	slli	s2,s2,0x1
 688:	0004                	0x4
 68a:	0501                	addi	a0,a0,0
 68c:	0609                	addi	a2,a2,2
 68e:	08097403          	0x8097403
 692:	0100                	addi	s0,sp,128
 694:	00090103          	lb	sp,0(s2)
 698:	0100                	addi	s0,sp,128
 69a:	00090103          	lb	sp,0(s2)
 69e:	0100                	addi	s0,sp,128
 6a0:	00090103          	lb	sp,0(s2)
 6a4:	0100                	addi	s0,sp,128
 6a6:	00090203          	lb	tp,0(s2)
 6aa:	0100                	addi	s0,sp,128
 6ac:	1905                	addi	s2,s2,-31
 6ae:	0306                	slli	t1,t1,0x1
 6b0:	0900                	addi	s0,sp,144
 6b2:	0000                	unimp
 6b4:	0501                	addi	a0,a0,0
 6b6:	0609                	addi	a2,a2,2
 6b8:	0c090103          	lb	sp,192(s2)
 6bc:	0100                	addi	s0,sp,128
 6be:	0c05                	addi	s8,s8,1
 6c0:	0306                	slli	t1,t1,0x1
 6c2:	0900                	addi	s0,sp,144
 6c4:	0000                	unimp
 6c6:	0501                	addi	a0,a0,0
 6c8:	060d                	addi	a2,a2,3
 6ca:	04090103          	lb	sp,64(s2)
 6ce:	0100                	addi	s0,sp,128
 6d0:	0c090103          	lb	sp,192(s2)
 6d4:	0100                	addi	s0,sp,128
 6d6:	10090103          	lb	sp,256(s2)
 6da:	0100                	addi	s0,sp,128
 6dc:	0505                	addi	a0,a0,1
 6de:	00092303          	lw	t1,0(s2)
 6e2:	0100                	addi	s0,sp,128
 6e4:	00094803          	lbu	a6,0(s2)
 6e8:	0100                	addi	s0,sp,128
 6ea:	0105                	addi	sp,sp,1
 6ec:	0306                	slli	t1,t1,0x1
 6ee:	0939                	addi	s2,s2,14
 6f0:	0004                	0x4
 6f2:	0501                	addi	a0,a0,0
 6f4:	0609                	addi	a2,a2,2
 6f6:	30095f03          	lhu	t5,768(s2)
 6fa:	0100                	addi	s0,sp,128
 6fc:	2205                	addiw	tp,tp,1
 6fe:	0306                	slli	t1,t1,0x1
 700:	0900                	addi	s0,sp,144
 702:	0000                	unimp
 704:	0501                	addi	a0,a0,0
 706:	030c                	addi	a1,sp,384
 708:	0900                	addi	s0,sp,144
 70a:	0004                	0x4
 70c:	0501                	addi	a0,a0,0
 70e:	030d                	addi	t1,t1,3
 710:	091c                	addi	a5,sp,144
 712:	0004                	0x4
 714:	0501                	addi	a0,a0,0
 716:	030c                	addi	a1,sp,384
 718:	0964                	addi	s1,sp,156
 71a:	0004                	0x4
 71c:	0501                	addi	a0,a0,0
 71e:	060d                	addi	a2,a2,3
 720:	04090103          	lb	sp,64(s2)
 724:	0100                	addi	s0,sp,128
 726:	1d05                	addi	s10,s10,-31
 728:	0306                	slli	t1,t1,0x1
 72a:	0900                	addi	s0,sp,144
 72c:	0000                	unimp
 72e:	0501                	addi	a0,a0,0
 730:	060d                	addi	a2,a2,3
 732:	0c090103          	lb	sp,192(s2)
 736:	0100                	addi	s0,sp,128
 738:	2105                	addiw	sp,sp,1
 73a:	0306                	slli	t1,t1,0x1
 73c:	0900                	addi	s0,sp,144
 73e:	0000                	unimp
 740:	0501                	addi	a0,a0,0
 742:	060d                	addi	a2,a2,3
 744:	08090203          	lb	tp,128(s2)
 748:	0100                	addi	s0,sp,128
 74a:	1005                	c.nop	-31
 74c:	0306                	slli	t1,t1,0x1
 74e:	0900                	addi	s0,sp,144
 750:	0000                	unimp
 752:	0501                	addi	a0,a0,0
 754:	09020317          	auipc	t1,0x9020
 758:	001c                	0x1c
 75a:	0501                	addi	a0,a0,0
 75c:	0325                	addi	t1,t1,9
 75e:	0901                	addi	s2,s2,0
 760:	0004                	0x4
 762:	0501                	addi	a0,a0,0
 764:	097f0317          	auipc	t1,0x97f0
 768:	0004                	0x4
 76a:	0501                	addi	a0,a0,0
 76c:	0611                	addi	a2,a2,4
 76e:	04090403          	lb	s0,64(s2)
 772:	0100                	addi	s0,sp,128
 774:	2305                	addiw	t1,t1,1
 776:	0306                	slli	t1,t1,0x1
 778:	0900                	addi	s0,sp,144
 77a:	0000                	unimp
 77c:	0501                	addi	a0,a0,0
 77e:	0325                	addi	t1,t1,9
 780:	0902                	c.slli64	s2
 782:	0004                	0x4
 784:	0501                	addi	a0,a0,0
 786:	097e0323          	sb	s7,134(t3) # 1a086 <__quad_stride+0xa086>
 78a:	0004                	0x4
 78c:	0501                	addi	a0,a0,0
 78e:	0611                	addi	a2,a2,4
 790:	04090203          	lb	tp,64(s2)
 794:	0100                	addi	s0,sp,128
 796:	2505                	addiw	a0,a0,1
 798:	0306                	slli	t1,t1,0x1
 79a:	0900                	addi	s0,sp,144
 79c:	0000                	unimp
 79e:	0501                	addi	a0,a0,0
 7a0:	0611                	addi	a2,a2,4
 7a2:	0c090203          	lb	tp,192(s2)
 7a6:	0100                	addi	s0,sp,128
 7a8:	1405                	addi	s0,s0,-31
 7aa:	0306                	slli	t1,t1,0x1
 7ac:	0900                	addi	s0,sp,144
 7ae:	0000                	unimp
 7b0:	0501                	addi	a0,a0,0
 7b2:	0615                	addi	a2,a2,5
 7b4:	04090203          	lb	tp,64(s2)
 7b8:	0100                	addi	s0,sp,128
 7ba:	0c090103          	lb	sp,192(s2)
 7be:	0100                	addi	s0,sp,128
 7c0:	3305                	addiw	t1,t1,-31
 7c2:	0306                	slli	t1,t1,0x1
 7c4:	0900                	addi	s0,sp,144
 7c6:	0000                	unimp
 7c8:	0501                	addi	a0,a0,0
 7ca:	0315                	addi	t1,t1,5
 7cc:	0900                	addi	s0,sp,144
 7ce:	0008                	0x8
 7d0:	0601                	addi	a2,a2,0
 7d2:	10090203          	lb	tp,256(s2)
 7d6:	0100                	addi	s0,sp,128
 7d8:	2405                	addiw	s0,s0,1
 7da:	0306                	slli	t1,t1,0x1
 7dc:	0900                	addi	s0,sp,144
 7de:	0000                	unimp
 7e0:	0501                	addi	a0,a0,0
 7e2:	0615                	addi	a2,a2,5
 7e4:	08097403          	0x8097403
 7e8:	0100                	addi	s0,sp,128
 7ea:	2505                	addiw	a0,a0,1
 7ec:	0306                	slli	t1,t1,0x1
 7ee:	0900                	addi	s0,sp,144
 7f0:	0000                	unimp
 7f2:	0501                	addi	a0,a0,0
 7f4:	09000323          	sb	a6,134(zero) # 86 <__quad_stride-0xff7a>
 7f8:	0004                	0x4
 7fa:	0501                	addi	a0,a0,0
 7fc:	0611                	addi	a2,a2,4
 7fe:	10091203          	lh	tp,256(s2)
 802:	0100                	addi	s0,sp,128
 804:	0d05                	addi	s10,s10,1
 806:	0306                	slli	t1,t1,0x1
 808:	00040903          	lb	s2,0(s0)
 80c:	0401                	addi	s0,s0,0
 80e:	06230503          	lb	a0,98(t1) # 97f07c6 <__clint_mtime+0x57e47ce>
 812:	097fb303          	ld	t1,151(t6)
 816:	000c                	0xc
 818:	0501                	addi	a0,a0,0
 81a:	0305                	addi	t1,t1,1
 81c:	0901                	addi	s2,s2,0
 81e:	0000                	unimp
 820:	0301                	addi	t1,t1,0
 822:	0902                	c.slli64	s2
 824:	0000                	unimp
 826:	0501                	addi	a0,a0,0
 828:	7d030623          	sb	a6,1996(t1)
 82c:	0009                	c.nop	2
 82e:	0100                	addi	s0,sp,128
 830:	0505                	addi	a0,a0,1
 832:	0c090303          	lb	t1,192(s2)
 836:	0100                	addi	s0,sp,128
 838:	0306                	slli	t1,t1,0x1
 83a:	0901                	addi	s2,s2,0
 83c:	0004                	0x4
 83e:	0501                	addi	a0,a0,0
 840:	0612                	slli	a2,a2,0x4
 842:	00090003          	lb	zero,0(s2)
 846:	0100                	addi	s0,sp,128
 848:	0505                	addi	a0,a0,1
 84a:	0306                	slli	t1,t1,0x1
 84c:	0901                	addi	s2,s2,0
 84e:	0004                	0x4
 850:	0501                	addi	a0,a0,0
 852:	0003060b          	0x3060b
 856:	0009                	c.nop	2
 858:	0100                	addi	s0,sp,128
 85a:	0105                	addi	sp,sp,1
 85c:	04090603          	lb	a2,64(s2)
 860:	0100                	addi	s0,sp,128
 862:	0505                	addi	a0,a0,1
 864:	0306                	slli	t1,t1,0x1
 866:	000c097b          	0xc097b
 86a:	0501                	addi	a0,a0,0
 86c:	0310                	addi	a2,sp,384
 86e:	090a                	slli	s2,s2,0x2
 870:	0008                	0x8
 872:	0501                	addi	a0,a0,0
 874:	0305                	addi	t1,t1,1
 876:	0901                	addi	s2,s2,0
 878:	0000                	unimp
 87a:	0301                	addi	t1,t1,0
 87c:	0901                	addi	s2,s2,0
 87e:	0000                	unimp
 880:	0301                	addi	t1,t1,0
 882:	0901                	addi	s2,s2,0
 884:	0000                	unimp
 886:	0301                	addi	t1,t1,0
 888:	0902                	c.slli64	s2
 88a:	0000                	unimp
 88c:	0301                	addi	t1,t1,0
 88e:	0901                	addi	s2,s2,0
 890:	0000                	unimp
 892:	0501                	addi	a0,a0,0
 894:	0610                	addi	a2,sp,768
 896:	00097a03          	0x97a03
 89a:	0100                	addi	s0,sp,128
 89c:	0505                	addi	a0,a0,1
 89e:	3c090603          	lb	a2,960(s2)
 8a2:	0100                	addi	s0,sp,128
 8a4:	0306                	slli	t1,t1,0x1
 8a6:	0901                	addi	s2,s2,0
 8a8:	0008                	0x8
 8aa:	0301                	addi	t1,t1,0
 8ac:	0902                	c.slli64	s2
 8ae:	0000                	unimp
 8b0:	0301                	addi	t1,t1,0
 8b2:	0901                	addi	s2,s2,0
 8b4:	0000                	unimp
 8b6:	0401                	addi	s0,s0,0
 8b8:	0301                	addi	t1,t1,0
 8ba:	0925                	addi	s2,s2,9
 8bc:	0000                	unimp
 8be:	0301                	addi	t1,t1,0
 8c0:	0902                	c.slli64	s2
 8c2:	0000                	unimp
 8c4:	0501                	addi	a0,a0,0
 8c6:	00030623          	sb	zero,12(t1)
 8ca:	0009                	c.nop	2
 8cc:	0100                	addi	s0,sp,128
 8ce:	0505                	addi	a0,a0,1
 8d0:	0306                	slli	t1,t1,0x1
 8d2:	00080957          	0x80957
 8d6:	0301                	addi	t1,t1,0
 8d8:	0901                	addi	s2,s2,0
 8da:	0000                	unimp
 8dc:	0501                	addi	a0,a0,0
 8de:	0003060f          	0x3060f
 8e2:	0009                	c.nop	2
 8e4:	0100                	addi	s0,sp,128
 8e6:	0505                	addi	a0,a0,1
 8e8:	0306                	slli	t1,t1,0x1
 8ea:	092a                	slli	s2,s2,0xa
 8ec:	0004                	0x4
 8ee:	0301                	addi	t1,t1,0
 8f0:	0955                	addi	s2,s2,21
 8f2:	0000                	unimp
 8f4:	0301                	addi	t1,t1,0
 8f6:	0901                	addi	s2,s2,0
 8f8:	0000                	unimp
 8fa:	0501                	addi	a0,a0,0
 8fc:	0003060f          	0x3060f
 900:	0009                	c.nop	2
 902:	0100                	addi	s0,sp,128
 904:	0505                	addi	a0,a0,1
 906:	0306                	slli	t1,t1,0x1
 908:	092c                	addi	a1,sp,152
 90a:	0008                	0x8
 90c:	0301                	addi	t1,t1,0
 90e:	00000953          	fadd.s	fs2,ft0,ft0,rne
 912:	0301                	addi	t1,t1,0
 914:	0901                	addi	s2,s2,0
 916:	0000                	unimp
 918:	0501                	addi	a0,a0,0
 91a:	0003060f          	0x3060f
 91e:	0009                	c.nop	2
 920:	0100                	addi	s0,sp,128
 922:	0505                	addi	a0,a0,1
 924:	0306                	slli	t1,t1,0x1
 926:	092d                	addi	s2,s2,11
 928:	0008                	0x8
 92a:	0301                	addi	t1,t1,0
 92c:	0952                	slli	s2,s2,0x14
 92e:	0000                	unimp
 930:	0301                	addi	t1,t1,0
 932:	0901                	addi	s2,s2,0
 934:	0000                	unimp
 936:	0501                	addi	a0,a0,0
 938:	0003060f          	0x3060f
 93c:	0009                	c.nop	2
 93e:	0100                	addi	s0,sp,128
 940:	0505                	addi	a0,a0,1
 942:	0306                	slli	t1,t1,0x1
 944:	0004092f          	0x4092f
 948:	0301                	addi	t1,t1,0
 94a:	0950                	addi	a2,sp,148
 94c:	0000                	unimp
 94e:	0301                	addi	t1,t1,0
 950:	0901                	addi	s2,s2,0
 952:	0000                	unimp
 954:	0501                	addi	a0,a0,0
 956:	0003060f          	0x3060f
 95a:	0009                	c.nop	2
 95c:	0100                	addi	s0,sp,128
 95e:	0505                	addi	a0,a0,1
 960:	0306                	slli	t1,t1,0x1
 962:	0931                	addi	s2,s2,12
 964:	0004                	0x4
 966:	0301                	addi	t1,t1,0
 968:	094e                	slli	s2,s2,0x13
 96a:	0000                	unimp
 96c:	0301                	addi	t1,t1,0
 96e:	0901                	addi	s2,s2,0
 970:	0000                	unimp
 972:	0501                	addi	a0,a0,0
 974:	0003060f          	0x3060f
 978:	0009                	c.nop	2
 97a:	0100                	addi	s0,sp,128
 97c:	0505                	addi	a0,a0,1
 97e:	0306                	slli	t1,t1,0x1
 980:	00080933          	add	s2,a6,zero
 984:	0301                	addi	t1,t1,0
 986:	094c                	addi	a1,sp,148
 988:	0000                	unimp
 98a:	0301                	addi	t1,t1,0
 98c:	0901                	addi	s2,s2,0
 98e:	0000                	unimp
 990:	0401                	addi	s0,s0,0
 992:	06170503          	lb	a0,97(a4) # b061 <__quad_stride-0x4f9f>
 996:	00090403          	lb	s0,0(s2)
 99a:	0100                	addi	s0,sp,128
 99c:	0104                	addi	s1,sp,128
 99e:	0f05                	addi	t5,t5,1
 9a0:	04097c03          	0x4097c03
 9a4:	0100                	addi	s0,sp,128
 9a6:	0304                	addi	s1,sp,384
 9a8:	1705                	addi	a4,a4,-31
 9aa:	08090403          	lb	s0,128(s2)
 9ae:	0100                	addi	s0,sp,128
 9b0:	0905                	addi	s2,s2,1
 9b2:	04090103          	lb	sp,64(s2)
 9b6:	0100                	addi	s0,sp,128
 9b8:	08090103          	lb	sp,128(s2)
 9bc:	0100                	addi	s0,sp,128
 9be:	08090103          	lb	sp,128(s2)
 9c2:	0100                	addi	s0,sp,128
 9c4:	08090103          	lb	sp,128(s2)
 9c8:	0100                	addi	s0,sp,128
 9ca:	08090103          	lb	sp,128(s2)
 9ce:	0100                	addi	s0,sp,128
 9d0:	04090503          	lb	a0,64(s2)
 9d4:	0100                	addi	s0,sp,128
 9d6:	0505                	addi	a0,a0,1
 9d8:	0306                	slli	t1,t1,0x1
 9da:	0975                	addi	s2,s2,29
 9dc:	0004                	0x4
 9de:	0501                	addi	a0,a0,0
 9e0:	0309                	addi	t1,t1,2
 9e2:	0901                	addi	s2,s2,0
 9e4:	0000                	unimp
 9e6:	0601                	addi	a2,a2,0
 9e8:	00090103          	lb	sp,0(s2)
 9ec:	0100                	addi	s0,sp,128
 9ee:	1705                	addi	a4,a4,-31
 9f0:	08097f03          	0x8097f03
 9f4:	0100                	addi	s0,sp,128
 9f6:	0905                	addi	s2,s2,1
 9f8:	0306                	slli	t1,t1,0x1
 9fa:	0901                	addi	s2,s2,0
 9fc:	0004                	0x4
 9fe:	0301                	addi	t1,t1,0
 a00:	0901                	addi	s2,s2,0
 a02:	0004                	0x4
 a04:	0301                	addi	t1,t1,0
 a06:	0901                	addi	s2,s2,0
 a08:	000c                	0xc
 a0a:	0301                	addi	t1,t1,0
 a0c:	0901                	addi	s2,s2,0
 a0e:	000c                	0xc
 a10:	0301                	addi	t1,t1,0
 a12:	0901                	addi	s2,s2,0
 a14:	000c                	0xc
 a16:	0301                	addi	t1,t1,0
 a18:	0901                	addi	s2,s2,0
 a1a:	0010                	0x10
 a1c:	0301                	addi	t1,t1,0
 a1e:	0902                	c.slli64	s2
 a20:	0010                	0x10
 a22:	0301                	addi	t1,t1,0
 a24:	0901                	addi	s2,s2,0
 a26:	0010                	0x10
 a28:	0301                	addi	t1,t1,0
 a2a:	0901                	addi	s2,s2,0
 a2c:	0010                	0x10
 a2e:	0301                	addi	t1,t1,0
 a30:	0901                	addi	s2,s2,0
 a32:	0010                	0x10
 a34:	0301                	addi	t1,t1,0
 a36:	0901                	addi	s2,s2,0
 a38:	0010                	0x10
 a3a:	0301                	addi	t1,t1,0
 a3c:	0901                	addi	s2,s2,0
 a3e:	0010                	0x10
 a40:	0301                	addi	t1,t1,0
 a42:	0901                	addi	s2,s2,0
 a44:	0010                	0x10
 a46:	0301                	addi	t1,t1,0
 a48:	0902                	c.slli64	s2
 a4a:	0010                	0x10
 a4c:	0501                	addi	a0,a0,0
 a4e:	0615                	addi	a2,a2,5
 a50:	00090003          	lb	zero,0(s2)
 a54:	0100                	addi	s0,sp,128
 a56:	3705                	addiw	a4,a4,-31
 a58:	08090003          	lb	zero,128(s2)
 a5c:	0100                	addi	s0,sp,128
 a5e:	0905                	addi	s2,s2,1
 a60:	0306                	slli	t1,t1,0x1
 a62:	0902                	c.slli64	s2
 a64:	0004                	0x4
 a66:	0501                	addi	a0,a0,0
 a68:	0311                	addi	t1,t1,4
 a6a:	0902                	c.slli64	s2
 a6c:	000c                	0xc
 a6e:	0301                	addi	t1,t1,0
 a70:	0902                	c.slli64	s2
 a72:	0010                	0x10
 a74:	0301                	addi	t1,t1,0
 a76:	00080903          	lb	s2,0(a6)
 a7a:	0501                	addi	a0,a0,0
 a7c:	0609                	addi	a2,a2,2
 a7e:	04097903          	0x4097903
 a82:	0100                	addi	s0,sp,128
 a84:	1105                	addi	sp,sp,-31
 a86:	0306                	slli	t1,t1,0x1
 a88:	00100923          	sb	ra,18(zero) # 12 <__quad_stride-0xffee>
 a8c:	0301                	addi	t1,t1,0
 a8e:	0901                	addi	s2,s2,0
 a90:	0010                	0x10
 a92:	0301                	addi	t1,t1,0
 a94:	0901                	addi	s2,s2,0
 a96:	0010                	0x10
 a98:	0301                	addi	t1,t1,0
 a9a:	0901                	addi	s2,s2,0
 a9c:	0010                	0x10
 a9e:	0501                	addi	a0,a0,0
 aa0:	0601                	addi	a2,a2,0
 aa2:	00090403          	lb	s0,0(s2)
 aa6:	0100                	addi	s0,sp,128
 aa8:	1105                	addi	sp,sp,-31
 aaa:	0306                	slli	t1,t1,0x1
 aac:	0960                	addi	s0,sp,156
 aae:	003c                	addi	a5,sp,8
 ab0:	0301                	addi	t1,t1,0
 ab2:	0901                	addi	s2,s2,0
 ab4:	000c                	0xc
 ab6:	0301                	addi	t1,t1,0
 ab8:	0901                	addi	s2,s2,0
 aba:	000c                	0xc
 abc:	0301                	addi	t1,t1,0
 abe:	0901                	addi	s2,s2,0
 ac0:	0010                	0x10
 ac2:	0301                	addi	t1,t1,0
 ac4:	00040903          	lb	s2,0(s0)
 ac8:	0401                	addi	s0,s0,0
 aca:	0501                	addi	a0,a0,0
 acc:	3003060b          	0x3003060b
 ad0:	0c09                	addi	s8,s8,2
 ad2:	0100                	addi	s0,sp,128
 ad4:	0304                	addi	s1,sp,384
 ad6:	1105                	addi	sp,sp,-31
 ad8:	04095003          	lhu	zero,64(s2)
 adc:	0100                	addi	s0,sp,128
 ade:	0306                	slli	t1,t1,0x1
 ae0:	0902                	c.slli64	s2
 ae2:	0004                	0x4
 ae4:	0401                	addi	s0,s0,0
 ae6:	0501                	addi	a0,a0,0
 ae8:	060c                	addi	a1,sp,768
 aea:	04093103          	ld	sp,64(s2)
 aee:	0100                	addi	s0,sp,128
 af0:	0505                	addi	a0,a0,1
 af2:	0306                	slli	t1,t1,0x1
 af4:	097e                	slli	s2,s2,0x1f
 af6:	0004                	0x4
 af8:	0501                	addi	a0,a0,0
 afa:	0309                	addi	t1,t1,2
 afc:	0901                	addi	s2,s2,0
 afe:	0000                	unimp
 b00:	0501                	addi	a0,a0,0
 b02:	0610                	addi	a2,sp,768
 b04:	00090003          	lb	zero,0(s2)
 b08:	0100                	addi	s0,sp,128
 b0a:	0e05                	addi	t3,t3,1
 b0c:	08090003          	lb	zero,128(s2)
 b10:	0100                	addi	s0,sp,128
 b12:	0905                	addi	s2,s2,1
 b14:	0306                	slli	t1,t1,0x1
 b16:	0901                	addi	s2,s2,0
 b18:	0004                	0x4
 b1a:	0501                	addi	a0,a0,0
 b1c:	060c                	addi	a1,sp,768
 b1e:	00090003          	lb	zero,0(s2)
 b22:	0100                	addi	s0,sp,128
 b24:	0d05                	addi	s10,s10,1
 b26:	0306                	slli	t1,t1,0x1
 b28:	0901                	addi	s2,s2,0
 b2a:	0004                	0x4
 b2c:	0401                	addi	s0,s0,0
 b2e:	06170503          	lb	a0,97(a4)
 b32:	00094f03          	lbu	t5,0(s2)
 b36:	0100                	addi	s0,sp,128
 b38:	0104                	addi	s1,sp,128
 b3a:	1205                	addi	tp,tp,-31
 b3c:	04093103          	ld	sp,64(s2)
 b40:	0100                	addi	s0,sp,128
 b42:	0d05                	addi	s10,s10,1
 b44:	0306                	slli	t1,t1,0x1
 b46:	0901                	addi	s2,s2,0
 b48:	0004                	0x4
 b4a:	0401                	addi	s0,s0,0
 b4c:	061f0503          	lb	a0,97(t5) # 1b061 <__quad_stride+0xb061>
 b50:	00094f03          	lbu	t5,0(s2)
 b54:	0100                	addi	s0,sp,128
 b56:	3305                	addiw	t1,t1,-31
 b58:	04090203          	lb	tp,64(s2)
 b5c:	0100                	addi	s0,sp,128
 b5e:	1805                	addi	a6,a6,-31
 b60:	04097f03          	0x4097f03
 b64:	0100                	addi	s0,sp,128
 b66:	1705                	addi	a4,a4,-31
 b68:	04090003          	lb	zero,64(s2)
 b6c:	0100                	addi	s0,sp,128
 b6e:	1105                	addi	sp,sp,-31
 b70:	0306                	slli	t1,t1,0x1
 b72:	0904                	addi	s1,sp,144
 b74:	0004                	0x4
 b76:	0301                	addi	t1,t1,0
 b78:	0901                	addi	s2,s2,0
 b7a:	0010                	0x10
 b7c:	0301                	addi	t1,t1,0
 b7e:	0901                	addi	s2,s2,0
 b80:	0010                	0x10
 b82:	0301                	addi	t1,t1,0
 b84:	0901                	addi	s2,s2,0
 b86:	0010                	0x10
 b88:	0301                	addi	t1,t1,0
 b8a:	0902                	c.slli64	s2
 b8c:	0010                	0x10
 b8e:	0301                	addi	t1,t1,0
 b90:	0901                	addi	s2,s2,0
 b92:	0010                	0x10
 b94:	0301                	addi	t1,t1,0
 b96:	0901                	addi	s2,s2,0
 b98:	0008                	0x8
 b9a:	0401                	addi	s0,s0,0
 b9c:	0501                	addi	a0,a0,0
 b9e:	030d                	addi	t1,t1,3
 ba0:	00040927          	0x40927
 ba4:	0501                	addi	a0,a0,0
 ba6:	0610                	addi	a2,sp,768
 ba8:	00090003          	lb	zero,0(s2)
 bac:	0100                	addi	s0,sp,128
 bae:	0304                	addi	s1,sp,384
 bb0:	1505                	addi	a0,a0,-31
 bb2:	0306                	slli	t1,t1,0x1
 bb4:	0008094f          	fnmadd.s	fs2,fa6,ft0,ft0,rne
 bb8:	0501                	addi	a0,a0,0
 bba:	00030633          	add	a2,t1,zero
 bbe:	0009                	c.nop	2
 bc0:	0100                	addi	s0,sp,128
 bc2:	1805                	addi	a6,a6,-31
 bc4:	04090103          	lb	sp,64(s2)
 bc8:	0100                	addi	s0,sp,128
 bca:	2305                	addiw	t1,t1,1
 bcc:	08097f03          	0x8097f03
 bd0:	0100                	addi	s0,sp,128
 bd2:	1505                	addi	a0,a0,-31
 bd4:	0306                	slli	t1,t1,0x1
 bd6:	0901                	addi	s2,s2,0
 bd8:	0004                	0x4
 bda:	0901                	addi	s2,s2,0
 bdc:	0004                	0x4
 bde:	0100                	addi	s0,sp,128
 be0:	01              	Address 0x0000000000000be0 is out of bounds.


Disassembly of section .debug_info:

0000000000000000 <.debug_info>:
       0:	002a                	c.slli	zero,0xa
       2:	0000                	unimp
       4:	0002                	c.slli64	zero
       6:	0000                	unimp
       8:	0000                	unimp
       a:	0108                	addi	a0,sp,128
       c:	0000                	unimp
       e:	0000                	unimp
      10:	0000                	unimp
      12:	0100                	addi	s0,sp,128
      14:	0000                	unimp
      16:	0000                	unimp
      18:	0088                	addi	a0,sp,64
      1a:	0100                	addi	s0,sp,128
	...
      24:	000a                	c.slli	zero,0x2
      26:	0000                	unimp
      28:	0044                	addi	s1,sp,4
      2a:	0000                	unimp
      2c:	8001                	c.srli64	s0
      2e:	1009                	c.nop	-30
      30:	0000                	unimp
      32:	0004                	0x4
      34:	0014                	0x14
      36:	0000                	unimp
      38:	0108                	addi	a0,sp,128
      3a:	00d1                	addi	ra,ra,20
      3c:	0000                	unimp
      3e:	930c                	0x930c
      40:	0a000003          	lb	zero,160(zero) # a0 <__quad_stride-0xff60>
      44:	0000                	unimp
      46:	8800                	0x8800
      48:	0000                	unimp
      4a:	0001                	nop
      4c:	0000                	unimp
      4e:	4000                	lw	s0,0(s0)
      50:	00000007          	0x7
      54:	0000                	unimp
      56:	e000                	sd	s0,0(s0)
      58:	0000                	unimp
      5a:	0200                	addi	s0,sp,256
      5c:	0601                	addi	a2,a2,0
      5e:	024a                	slli	tp,tp,0x12
      60:	0000                	unimp
      62:	0202                	c.slli64	tp
      64:	7f05                	lui	t5,0xfffe1
      66:	0000                	unimp
      68:	0300                	addi	s0,sp,384
      6a:	0504                	addi	s1,sp,640
      6c:	6e69                	lui	t3,0x1a
      6e:	0074                	addi	a3,sp,12
      70:	0802                	c.slli64	a6
      72:	0c05                	addi	s8,s8,1
      74:	0002                	c.slli64	zero
      76:	0400                	addi	s0,sp,512
      78:	000001a7          	0x1a7
      7c:	2e04                	fld	fs1,24(a2)
      7e:	5f18                	lw	a4,56(a4)
      80:	0000                	unimp
      82:	0500                	addi	s0,sp,640
      84:	0049                	c.nop	18
      86:	0000                	unimp
      88:	4906                	lw	s2,64(sp)
      8a:	0000                	unimp
      8c:	0200                	addi	s0,sp,256
      8e:	0801                	addi	a6,a6,0
      90:	0248                	addi	a0,sp,260
      92:	0000                	unimp
      94:	8d04                	0x8d04
      96:	0002                	c.slli64	zero
      98:	0400                	addi	s0,sp,512
      9a:	1931                	addi	s2,s2,-20
      9c:	0072                	c.slli	zero,0x1c
      9e:	0000                	unimp
      a0:	0202                	c.slli64	tp
      a2:	0002bd07          	fld	fs10,0(t0)
      a6:	0400                	addi	s0,sp,512
      a8:	0272                	slli	tp,tp,0x1c
      aa:	0000                	unimp
      ac:	3404                	fld	fs1,40(s0)
      ae:	8519                	srai	a0,a0,0x6
      b0:	0000                	unimp
      b2:	0200                	addi	s0,sp,256
      b4:	0704                	addi	s1,sp,896
      b6:	02ff                	0x2ff
      b8:	0000                	unimp
      ba:	7104                	ld	s1,32(a0)
      bc:	0000                	unimp
      be:	0400                	addi	s0,sp,512
      c0:	00981937          	lui	s2,0x981
      c4:	0000                	unimp
      c6:	0802                	c.slli64	a6
      c8:	0002fa07          	0x2fa07
      cc:	0400                	addi	s0,sp,512
      ce:	000001cb          	fnmsub.s	ft3,ft0,ft0,ft0,rne
      d2:	5604                	lw	s1,40(a2)
      d4:	981a                	add	a6,a6,t1
      d6:	0000                	unimp
      d8:	0700                	addi	s0,sp,896
      da:	00000337          	lui	t1,0x0
      de:	0901                	addi	s2,s2,0
      e0:	7911                	lui	s2,0xfffe4
      e2:	0000                	unimp
      e4:	0800                	addi	s0,sp,16
      e6:	036a                	slli	t1,t1,0x1a
      e8:	0000                	unimp
      ea:	00850407          	0x850407
      ee:	0000                	unimp
      f0:	e2062403          	lw	s0,-480(a2)
      f4:	0000                	unimp
      f6:	0900                	addi	s0,sp,144
      f8:	0000031b          	sext.w	t1,zero
      fc:	0900                	addi	s0,sp,144
      fe:	00000223          	sb	zero,4(zero) # 4 <__quad_stride-0xfffc>
     102:	0901                	addi	s2,s2,0
     104:	00000203          	lb	tp,0(zero) # 0 <__quad_stride-0x10000>
     108:	0902                	c.slli64	s2
     10a:	03b1                	addi	t2,t2,12
     10c:	0000                	unimp
     10e:	3c0a0003          	lb	zero,960(s4)
     112:	0000                	unimp
     114:	0300                	addi	s0,sp,384
     116:	0626                	slli	a2,a2,0x9
     118:	04c4                	addi	s1,sp,580
     11a:	0100                	addi	s0,sp,128
     11c:	0000                	unimp
     11e:	0000                	unimp
     120:	0304                	addi	s1,sp,384
     122:	0000                	unimp
     124:	0000                	unimp
     126:	0000                	unimp
     128:	9c01                	subw	s0,s0,s0
     12a:	075a                	slli	a4,a4,0x16
     12c:	0000                	unimp
     12e:	0002680b          	0x2680b
     132:	0300                	addi	s0,sp,384
     134:	00b71627          	0xb71627
     138:	0000                	unimp
     13a:	0000                	unimp
     13c:	0000                	unimp
     13e:	bd0c                	fsd	fa1,56(a0)
     140:	0001                	nop
     142:	0300                	addi	s0,sp,384
     144:	0e28                	addi	a0,sp,792
     146:	008c                	addi	a1,sp,64
     148:	0000                	unimp
     14a:	7f809103          	lh	sp,2040(ra)
     14e:	0002af0b          	0x2af0b
     152:	0300                	addi	s0,sp,384
     154:	0e29                	addi	t3,t3,10
     156:	008c                	addi	a1,sp,64
     158:	0000                	unimp
     15a:	0024                	addi	s1,sp,8
     15c:	0000                	unimp
     15e:	af0c                	fsd	fa1,24(a4)
     160:	0000                	unimp
     162:	0300                	addi	s0,sp,384
     164:	00790e2b          	0x790e2b
     168:	0000                	unimp
     16a:	7efc9103          	lh	sp,2031(s9)
     16e:	760d                	lui	a2,0xfffe3
     170:	03000003          	lb	zero,48(zero) # 30 <__quad_stride-0xffd0>
     174:	0f2d                	addi	t5,t5,11
     176:	009f 0000 0c00      	0xc000000009f
     17c:	02a8                	addi	a0,sp,328
     17e:	0000                	unimp
     180:	5a0a2f03          	lw	t5,1440(s4)
     184:	03000007          	0x3000007
     188:	8891                	andi	s1,s1,4
     18a:	0e7f                	0xe7f
     18c:	0340                	addi	s0,sp,388
     18e:	0000                	unimp
     190:	0386                	slli	t2,t2,0x1
     192:	0000                	unimp
     194:	7275630f          	0x7275630f
     198:	0300                	addi	s0,sp,384
     19a:	1758                	addi	a4,sp,932
     19c:	0776                	slli	a4,a4,0x1d
     19e:	0000                	unimp
     1a0:	006d                	c.nop	27
     1a2:	0000                	unimp
     1a4:	0210                	addi	a2,sp,256
     1a6:	1800000b          	0x1800000b
     1aa:	00010007          	0x10007
     1ae:	0000                	unimp
     1b0:	8000                	0x8000
     1b2:	03000003          	lb	zero,48(zero) # 30 <__quad_stride-0xffd0>
     1b6:	01be1157          	0x1be1157
     1ba:	0000                	unimp
     1bc:	0f11                	addi	t5,t5,4
     1be:	0000000b          	0xb
     1c2:	1b12                	slli	s6,s6,0x24
     1c4:	cb00000b          	0xcb00000b
     1c8:	0000                	unimp
     1ca:	1300                	addi	s0,sp,416
     1cc:	0380                	addi	s0,sp,448
     1ce:	0000                	unimp
     1d0:	2714                	fld	fa3,8(a4)
     1d2:	0100000b          	0x100000b
     1d6:	156a                	slli	a0,a0,0x3a
     1d8:	0730                	addi	a2,sp,904
     1da:	0100                	addi	s0,sp,128
     1dc:	0000                	unimp
     1de:	0000                	unimp
     1e0:	00000c97          	auipc	s9,0x0
     1e4:	0116                	slli	sp,sp,0x5
     1e6:	015a                	slli	sp,sp,0x16
     1e8:	0030                	addi	a2,sp,8
     1ea:	0000                	unimp
     1ec:	00065817          	auipc	a6,0x65
     1f0:	0001                	nop
     1f2:	0000                	unimp
     1f4:	b400                	fsd	fs0,40(s0)
     1f6:	e200000b          	0xe200000b
     1fa:	0001                	nop
     1fc:	1600                	addi	s0,sp,800
     1fe:	5a01                	li	s4,-32
     200:	3001                	0x3001
     202:	0116                	slli	sp,sp,0x5
     204:	d803095b          	0xd803095b
     208:	0008                	0x8
     20a:	0001                	nop
     20c:	0000                	unimp
     20e:	0000                	unimp
     210:	00068417          	auipc	s0,0x68
     214:	0001                	nop
     216:	0000                	unimp
     218:	b400                	fsd	fs0,40(s0)
     21a:	0600000b          	0x600000b
     21e:	0002                	c.slli64	zero
     220:	1600                	addi	s0,sp,800
     222:	5a01                	li	s4,-32
     224:	3001                	0x3001
     226:	0116                	slli	sp,sp,0x5
     228:	6803095b          	0x6803095b
     22c:	0009                	c.nop	2
     22e:	0001                	nop
     230:	0000                	unimp
     232:	0000                	unimp
     234:	00069417          	auipc	s0,0x69
     238:	0001                	nop
     23a:	0000                	unimp
     23c:	7d00                	ld	s0,56(a0)
     23e:	000e                	c.slli	zero,0x3
     240:	2800                	fld	fs0,16(s0)
     242:	0002                	c.slli64	zero
     244:	1600                	addi	s0,sp,800
     246:	5a01                	li	s4,-32
     248:	8202                	jr	tp
     24a:	1600                	addi	s0,sp,800
     24c:	5b01                	li	s6,-32
     24e:	3801                	addiw	a6,a6,-32
     250:	0116                	slli	sp,sp,0x5
     252:	015c                	addi	a5,sp,132
     254:	0030                	addi	a2,sp,8
     256:	0006a417          	auipc	s0,0x6a
     25a:	0001                	nop
     25c:	0000                	unimp
     25e:	b400                	fsd	fs0,40(s0)
     260:	4c00000b          	0x4c00000b
     264:	0002                	c.slli64	zero
     266:	1600                	addi	s0,sp,800
     268:	5a01                	li	s4,-32
     26a:	3001                	0x3001
     26c:	0116                	slli	sp,sp,0x5
     26e:	8003095b          	0x8003095b
     272:	0009                	c.nop	2
     274:	0001                	nop
     276:	0000                	unimp
     278:	0000                	unimp
     27a:	0006ec17          	auipc	s8,0x6e
     27e:	0001                	nop
     280:	0000                	unimp
     282:	7c00                	ld	s0,56(s0)
     284:	67000007          	0x67000007
     288:	0002                	c.slli64	zero
     28a:	1600                	addi	s0,sp,800
     28c:	5a01                	li	s4,-32
     28e:	0c05                	addi	s8,s8,1
     290:	f080                	sd	s0,32(s1)
     292:	02fa                	slli	t0,t0,0x1e
     294:	1700                	addi	s0,sp,928
     296:	06f8                	addi	a4,sp,844
     298:	0100                	addi	s0,sp,128
     29a:	0000                	unimp
     29c:	0000                	unimp
     29e:	07c5                	addi	a5,a5,17
     2a0:	0000                	unimp
     2a2:	027e                	slli	tp,tp,0x1f
     2a4:	0000                	unimp
     2a6:	0116                	slli	sp,sp,0x5
     2a8:	015a                	slli	sp,sp,0x16
     2aa:	0030                	addi	a2,sp,8
     2ac:	00070817          	auipc	a6,0x70
     2b0:	0001                	nop
     2b2:	0000                	unimp
     2b4:	b400                	fsd	fs0,40(s0)
     2b6:	a200000b          	0xa200000b
     2ba:	0002                	c.slli64	zero
     2bc:	1600                	addi	s0,sp,800
     2be:	5a01                	li	s4,-32
     2c0:	3001                	0x3001
     2c2:	0116                	slli	sp,sp,0x5
     2c4:	d803095b          	0xd803095b
     2c8:	00010007          	0x10007
     2cc:	0000                	unimp
     2ce:	0000                	unimp
     2d0:	00072017          	auipc	zero,0x72
     2d4:	0001                	nop
     2d6:	0000                	unimp
     2d8:	b400                	fsd	fs0,40(s0)
     2da:	c600000b          	0xc600000b
     2de:	0002                	c.slli64	zero
     2e0:	1600                	addi	s0,sp,800
     2e2:	5a01                	li	s4,-32
     2e4:	3001                	0x3001
     2e6:	0116                	slli	sp,sp,0x5
     2e8:	0003095b          	0x3095b
     2ec:	0009                	c.nop	2
     2ee:	0001                	nop
     2f0:	0000                	unimp
     2f2:	0000                	unimp
     2f4:	00076017          	auipc	zero,0x76
     2f8:	0001                	nop
     2fa:	0000                	unimp
     2fc:	b400                	fsd	fs0,40(s0)
     2fe:	ea00000b          	0xea00000b
     302:	0002                	c.slli64	zero
     304:	1600                	addi	s0,sp,800
     306:	5a01                	li	s4,-32
     308:	3001                	0x3001
     30a:	0116                	slli	sp,sp,0x5
     30c:	3003095b          	0x3003095b
     310:	0009                	c.nop	2
     312:	0001                	nop
     314:	0000                	unimp
     316:	0000                	unimp
     318:	00077017          	auipc	zero,0x77
     31c:	0001                	nop
     31e:	0000                	unimp
     320:	7d00                	ld	s0,56(a0)
     322:	000e                	c.slli	zero,0x3
     324:	0c00                	addi	s0,sp,528
     326:	16000003          	lb	zero,352(zero) # 160 <__quad_stride-0xfea0>
     32a:	5a01                	li	s4,-32
     32c:	8202                	jr	tp
     32e:	1600                	addi	s0,sp,800
     330:	5b01                	li	s6,-32
     332:	3801                	addiw	a6,a6,-32
     334:	0116                	slli	sp,sp,0x5
     336:	015c                	addi	a5,sp,132
     338:	0030                	addi	a2,sp,8
     33a:	00078017          	auipc	zero,0x78
     33e:	0001                	nop
     340:	0000                	unimp
     342:	b400                	fsd	fs0,40(s0)
     344:	3000000b          	0x3000000b
     348:	16000003          	lb	zero,352(zero) # 160 <__quad_stride-0xfea0>
     34c:	5a01                	li	s4,-32
     34e:	3001                	0x3001
     350:	0116                	slli	sp,sp,0x5
     352:	4803095b          	0x4803095b
     356:	0009                	c.nop	2
     358:	0001                	nop
     35a:	0000                	unimp
     35c:	0000                	unimp
     35e:	00079017          	auipc	zero,0x79
     362:	0001                	nop
     364:	0000                	unimp
     366:	7d00                	ld	s0,56(a0)
     368:	000e                	c.slli	zero,0x3
     36a:	4e00                	lw	s0,24(a2)
     36c:	16000003          	lb	zero,352(zero) # 160 <__quad_stride-0xfea0>
     370:	5b01                	li	s6,-32
     372:	7902                	ld	s2,32(sp)
     374:	1600                	addi	s0,sp,800
     376:	5c01                	li	s8,-32
     378:	8302                	jr	t1
     37a:	0000                	unimp
     37c:	0007a017          	auipc	zero,0x7a
     380:	0001                	nop
     382:	0000                	unimp
     384:	b400                	fsd	fs0,40(s0)
     386:	7200000b          	0x7200000b
     38a:	16000003          	lb	zero,352(zero) # 160 <__quad_stride-0xfea0>
     38e:	5a01                	li	s4,-32
     390:	3001                	0x3001
     392:	0116                	slli	sp,sp,0x5
     394:	5003095b          	0x5003095b
     398:	0009                	c.nop	2
     39a:	0001                	nop
     39c:	0000                	unimp
     39e:	0000                	unimp
     3a0:	a815                	j	3d4 <__quad_stride-0xfc2c>
     3a2:	00010007          	0x10007
     3a6:	0000                	unimp
     3a8:	9700                	0x9700
     3aa:	000c                	0xc
     3ac:	1600                	addi	s0,sp,800
     3ae:	5a01                	li	s4,-32
     3b0:	3001                	0x3001
     3b2:	0000                	unimp
     3b4:	5910                	lw	a2,48(a0)
     3b6:	000c                	0xc
     3b8:	0800                	addi	s0,sp,16
     3ba:	0005                	c.nop	1
     3bc:	0001                	nop
     3be:	0000                	unimp
     3c0:	e000                	sd	s0,0(s0)
     3c2:	0002                	c.slli64	zero
     3c4:	0300                	addi	s0,sp,384
     3c6:	0530                	addi	a2,sp,648
     3c8:	0595                	addi	a1,a1,5
     3ca:	0000                	unimp
     3cc:	6611                	lui	a2,0x4
     3ce:	000c                	0xc
     3d0:	0000                	unimp
     3d2:	7218                	ld	a4,32(a2)
     3d4:	000c                	0xc
     3d6:	8000                	0x8000
     3d8:	faf0                	sd	a2,240(a3)
     3da:	1802                	slli	a6,a6,0x20
     3dc:	0c7e                	slli	s8,s8,0x1f
     3de:	0000                	unimp
     3e0:	4240                	lw	s0,4(a2)
     3e2:	e013000f          	0xe013000f
     3e6:	0002                	c.slli64	zero
     3e8:	1900                	addi	s0,sp,176
     3ea:	0c8a                	slli	s9,s9,0x2
     3ec:	0000                	unimp
     3ee:	0e451a03          	lh	s4,228(a0) # 1b0e4 <__quad_stride+0xb0e4>
     3f2:	0000                	unimp
     3f4:	0510                	addi	a2,sp,640
     3f6:	0100                	addi	s0,sp,128
     3f8:	0000                	unimp
     3fa:	0000                	unimp
     3fc:	0004                	0x4
     3fe:	0000                	unimp
     400:	0000                	unimp
     402:	0000                	unimp
     404:	5701                	li	a4,-32
     406:	0705                	addi	a4,a4,1
     408:	0004                	0x4
     40a:	1200                	addi	s0,sp,288
     40c:	0e5e                	slli	t3,t3,0x17
     40e:	0000                	unimp
     410:	00000153          	fadd.s	ft2,ft0,ft0,rne
     414:	000e521b          	srliw	tp,t3,0x0
     418:	1c00                	addi	s0,sp,560
     41a:	0510                	addi	a2,sp,640
     41c:	0100                	addi	s0,sp,128
     41e:	0000                	unimp
     420:	0000                	unimp
     422:	0004                	0x4
     424:	0000                	unimp
     426:	0000                	unimp
     428:	0000                	unimp
     42a:	6a1d                	lui	s4,0x7
     42c:	000e                	c.slli	zero,0x3
     42e:	7700                	ld	s0,40(a4)
     430:	0001                	nop
     432:	0000                	unimp
     434:	1a00                	addi	s0,sp,304
     436:	0e45                	addi	t3,t3,17
     438:	0000                	unimp
     43a:	0514                	addi	a3,sp,640
     43c:	0100                	addi	s0,sp,128
     43e:	0000                	unimp
     440:	0000                	unimp
     442:	0008                	0x8
     444:	0000                	unimp
     446:	0000                	unimp
     448:	0000                	unimp
     44a:	5901                	li	s2,-32
     44c:	4d05                	li	s10,1
     44e:	0004                	0x4
     450:	1200                	addi	s0,sp,288
     452:	0e5e                	slli	t3,t3,0x17
     454:	0000                	unimp
     456:	019c                	addi	a5,sp,192
     458:	0000                	unimp
     45a:	000e521b          	srliw	tp,t3,0x0
     45e:	1c00                	addi	s0,sp,560
     460:	0514                	addi	a3,sp,640
     462:	0100                	addi	s0,sp,128
     464:	0000                	unimp
     466:	0000                	unimp
     468:	0008                	0x8
     46a:	0000                	unimp
     46c:	0000                	unimp
     46e:	0000                	unimp
     470:	6a1d                	lui	s4,0x7
     472:	000e                	c.slli	zero,0x3
     474:	c100                	sw	s0,0(a0)
     476:	0001                	nop
     478:	0000                	unimp
     47a:	1a00                	addi	s0,sp,304
     47c:	0e45                	addi	t3,t3,17
     47e:	0000                	unimp
     480:	051c                	addi	a5,sp,640
     482:	0100                	addi	s0,sp,128
     484:	0000                	unimp
     486:	0000                	unimp
     488:	0008                	0x8
     48a:	0000                	unimp
     48c:	0000                	unimp
     48e:	0000                	unimp
     490:	5b01                	li	s6,-32
     492:	8f05                	sub	a4,a4,s1
     494:	0004                	0x4
     496:	1200                	addi	s0,sp,288
     498:	0e5e                	slli	t3,t3,0x17
     49a:	0000                	unimp
     49c:	01e6                	slli	gp,gp,0x19
     49e:	0000                	unimp
     4a0:	000e521b          	srliw	tp,t3,0x0
     4a4:	1c00                	addi	s0,sp,560
     4a6:	051c                	addi	a5,sp,640
     4a8:	0100                	addi	s0,sp,128
     4aa:	0000                	unimp
     4ac:	0000                	unimp
     4ae:	0008                	0x8
     4b0:	0000                	unimp
     4b2:	0000                	unimp
     4b4:	0000                	unimp
     4b6:	6a1e                	ld	s4,448(sp)
     4b8:	000e                	c.slli	zero,0x3
     4ba:	0000                	unimp
     4bc:	1a00                	addi	s0,sp,304
     4be:	0e45                	addi	t3,t3,17
     4c0:	0000                	unimp
     4c2:	0524                	addi	s1,sp,648
     4c4:	0100                	addi	s0,sp,128
     4c6:	0000                	unimp
     4c8:	0000                	unimp
     4ca:	0004                	0x4
     4cc:	0000                	unimp
     4ce:	0000                	unimp
     4d0:	0000                	unimp
     4d2:	5c01                	li	s8,-32
     4d4:	d505                	beqz	a0,3fc <__quad_stride-0xfc04>
     4d6:	0004                	0x4
     4d8:	1200                	addi	s0,sp,288
     4da:	0e5e                	slli	t3,t3,0x17
     4dc:	0000                	unimp
     4de:	020a                	slli	tp,tp,0x2
     4e0:	0000                	unimp
     4e2:	000e521b          	srliw	tp,t3,0x0
     4e6:	1c00                	addi	s0,sp,560
     4e8:	0524                	addi	s1,sp,648
     4ea:	0100                	addi	s0,sp,128
     4ec:	0000                	unimp
     4ee:	0000                	unimp
     4f0:	0004                	0x4
     4f2:	0000                	unimp
     4f4:	0000                	unimp
     4f6:	0000                	unimp
     4f8:	6a1d                	lui	s4,0x7
     4fa:	000e                	c.slli	zero,0x3
     4fc:	2e00                	fld	fs0,24(a2)
     4fe:	0002                	c.slli64	zero
     500:	0000                	unimp
     502:	1a00                	addi	s0,sp,304
     504:	0e45                	addi	t3,t3,17
     506:	0000                	unimp
     508:	0528                	addi	a0,sp,648
     50a:	0100                	addi	s0,sp,128
     50c:	0000                	unimp
     50e:	0000                	unimp
     510:	0004                	0x4
     512:	0000                	unimp
     514:	0000                	unimp
     516:	0000                	unimp
     518:	5e01                	li	t3,-32
     51a:	1b05                	addi	s6,s6,-31
     51c:	0005                	c.nop	1
     51e:	1200                	addi	s0,sp,288
     520:	0e5e                	slli	t3,t3,0x17
     522:	0000                	unimp
     524:	00000253          	fadd.s	ft4,ft0,ft0,rne
     528:	000e521b          	srliw	tp,t3,0x0
     52c:	1c00                	addi	s0,sp,560
     52e:	0528                	addi	a0,sp,648
     530:	0100                	addi	s0,sp,128
     532:	0000                	unimp
     534:	0000                	unimp
     536:	0004                	0x4
     538:	0000                	unimp
     53a:	0000                	unimp
     53c:	0000                	unimp
     53e:	6a1d                	lui	s4,0x7
     540:	000e                	c.slli	zero,0x3
     542:	7700                	ld	s0,40(a4)
     544:	0002                	c.slli64	zero
     546:	0000                	unimp
     548:	1a00                	addi	s0,sp,304
     54a:	0e45                	addi	t3,t3,17
     54c:	0000                	unimp
     54e:	052c                	addi	a1,sp,648
     550:	0100                	addi	s0,sp,128
     552:	0000                	unimp
     554:	0000                	unimp
     556:	0008                	0x8
     558:	0000                	unimp
     55a:	0000                	unimp
     55c:	0000                	unimp
     55e:	6001                	0x6001
     560:	6105                	addi	sp,sp,32
     562:	0005                	c.nop	1
     564:	1200                	addi	s0,sp,288
     566:	0e5e                	slli	t3,t3,0x17
     568:	0000                	unimp
     56a:	029c                	addi	a5,sp,320
     56c:	0000                	unimp
     56e:	000e521b          	srliw	tp,t3,0x0
     572:	1c00                	addi	s0,sp,560
     574:	052c                	addi	a1,sp,648
     576:	0100                	addi	s0,sp,128
     578:	0000                	unimp
     57a:	0000                	unimp
     57c:	0008                	0x8
     57e:	0000                	unimp
     580:	0000                	unimp
     582:	0000                	unimp
     584:	6a1d                	lui	s4,0x7
     586:	000e                	c.slli	zero,0x3
     588:	c100                	sw	s0,0(a0)
     58a:	0002                	c.slli64	zero
     58c:	0000                	unimp
     58e:	1f00                	addi	s0,sp,944
     590:	0e45                	addi	t3,t3,17
     592:	0000                	unimp
     594:	0534                	addi	a3,sp,648
     596:	0100                	addi	s0,sp,128
     598:	0000                	unimp
     59a:	0000                	unimp
     59c:	0310                	addi	a2,sp,384
     59e:	0000                	unimp
     5a0:	6201                	0x6201
     5a2:	1205                	addi	tp,tp,-31
     5a4:	0e5e                	slli	t3,t3,0x17
     5a6:	0000                	unimp
     5a8:	02e6                	slli	t0,t0,0x19
     5aa:	0000                	unimp
     5ac:	000e521b          	srliw	tp,t3,0x0
     5b0:	1300                	addi	s0,sp,416
     5b2:	0310                	addi	a2,sp,384
     5b4:	0000                	unimp
     5b6:	6a1d                	lui	s4,0x7
     5b8:	000e                	c.slli	zero,0x3
     5ba:	0b00                	addi	s0,sp,400
     5bc:	00000003          	lb	zero,0(zero) # 0 <__quad_stride-0x10000>
     5c0:	0000                	unimp
     5c2:	1700                	addi	s0,sp,928
     5c4:	057c                	addi	a5,sp,652
     5c6:	0100                	addi	s0,sp,128
     5c8:	0000                	unimp
     5ca:	0000                	unimp
     5cc:	0bb4                	addi	a3,sp,472
     5ce:	0000                	unimp
     5d0:	05b2                	slli	a1,a1,0xc
     5d2:	0000                	unimp
     5d4:	0116                	slli	sp,sp,0x5
     5d6:	015a                	slli	sp,sp,0x16
     5d8:	1630                	addi	a2,sp,808
     5da:	5b01                	li	s6,-32
     5dc:	8602                	jr	a2
     5de:	0000                	unimp
     5e0:	00058817          	auipc	a6,0x58
     5e4:	0001                	nop
     5e6:	0000                	unimp
     5e8:	b400                	fsd	fs0,40(s0)
     5ea:	cf00000b          	0xcf00000b
     5ee:	0005                	c.nop	1
     5f0:	1600                	addi	s0,sp,800
     5f2:	5a01                	li	s4,-32
     5f4:	3001                	0x3001
     5f6:	0116                	slli	sp,sp,0x5
     5f8:	0087025b          	0x87025b
     5fc:	1700                	addi	s0,sp,928
     5fe:	0594                	addi	a3,sp,704
     600:	0100                	addi	s0,sp,128
     602:	0000                	unimp
     604:	0000                	unimp
     606:	0bb4                	addi	a3,sp,472
     608:	0000                	unimp
     60a:	05ec                	addi	a1,sp,716
     60c:	0000                	unimp
     60e:	0116                	slli	sp,sp,0x5
     610:	015a                	slli	sp,sp,0x16
     612:	1630                	addi	a2,sp,808
     614:	5b01                	li	s6,-32
     616:	8802                	jr	a6
     618:	0000                	unimp
     61a:	0005a017          	auipc	zero,0x5a
     61e:	0001                	nop
     620:	0000                	unimp
     622:	b400                	fsd	fs0,40(s0)
     624:	0900000b          	0x900000b
     628:	0006                	c.slli	zero,0x1
     62a:	1600                	addi	s0,sp,800
     62c:	5a01                	li	s4,-32
     62e:	3001                	0x3001
     630:	0116                	slli	sp,sp,0x5
     632:	0089025b          	0x89025b
     636:	1700                	addi	s0,sp,928
     638:	05b0                	addi	a2,sp,712
     63a:	0100                	addi	s0,sp,128
     63c:	0000                	unimp
     63e:	0000                	unimp
     640:	0e7d                	addi	t3,t3,31
     642:	0000                	unimp
     644:	062c                	addi	a1,sp,776
     646:	0000                	unimp
     648:	0116                	slli	sp,sp,0x5
     64a:	025a                	slli	tp,tp,0x16
     64c:	0085                	addi	ra,ra,1
     64e:	0116                	slli	sp,sp,0x5
     650:	0083025b          	0x83025b
     654:	0116                	slli	sp,sp,0x5
     656:	015c                	addi	a5,sp,132
     658:	0030                	addi	a2,sp,8
     65a:	0005c017          	auipc	zero,0x5c
     65e:	0001                	nop
     660:	0000                	unimp
     662:	b400                	fsd	fs0,40(s0)
     664:	5000000b          	0x5000000b
     668:	0006                	c.slli	zero,0x1
     66a:	1600                	addi	s0,sp,800
     66c:	5a01                	li	s4,-32
     66e:	3001                	0x3001
     670:	0116                	slli	sp,sp,0x5
     672:	3003095b          	0x3003095b
     676:	0008                	0x8
     678:	0001                	nop
     67a:	0000                	unimp
     67c:	0000                	unimp
     67e:	0005d017          	auipc	zero,0x5d
     682:	0001                	nop
     684:	0000                	unimp
     686:	b400                	fsd	fs0,40(s0)
     688:	7400000b          	0x7400000b
     68c:	0006                	c.slli	zero,0x1
     68e:	1600                	addi	s0,sp,800
     690:	5a01                	li	s4,-32
     692:	3001                	0x3001
     694:	0116                	slli	sp,sp,0x5
     696:	6003095b          	0x6003095b
     69a:	0008                	0x8
     69c:	0001                	nop
     69e:	0000                	unimp
     6a0:	0000                	unimp
     6a2:	0005e017          	auipc	zero,0x5e
     6a6:	0001                	nop
     6a8:	0000                	unimp
     6aa:	b400                	fsd	fs0,40(s0)
     6ac:	9800000b          	0x9800000b
     6b0:	0006                	c.slli	zero,0x1
     6b2:	1600                	addi	s0,sp,800
     6b4:	5a01                	li	s4,-32
     6b6:	3001                	0x3001
     6b8:	0116                	slli	sp,sp,0x5
     6ba:	7803095b          	0x7803095b
     6be:	0008                	0x8
     6c0:	0001                	nop
     6c2:	0000                	unimp
     6c4:	0000                	unimp
     6c6:	0005f017          	auipc	zero,0x5f
     6ca:	0001                	nop
     6cc:	0000                	unimp
     6ce:	7d00                	ld	s0,56(a0)
     6d0:	000e                	c.slli	zero,0x3
     6d2:	ba00                	fsd	fs0,48(a2)
     6d4:	0006                	c.slli	zero,0x1
     6d6:	1600                	addi	s0,sp,800
     6d8:	5a01                	li	s4,-32
     6da:	8202                	jr	tp
     6dc:	1600                	addi	s0,sp,800
     6de:	5b01                	li	s6,-32
     6e0:	3801                	addiw	a6,a6,-32
     6e2:	0116                	slli	sp,sp,0x5
     6e4:	015c                	addi	a5,sp,132
     6e6:	0030                	addi	a2,sp,8
     6e8:	00060017          	auipc	zero,0x60
     6ec:	0001                	nop
     6ee:	0000                	unimp
     6f0:	b400                	fsd	fs0,40(s0)
     6f2:	de00000b          	0xde00000b
     6f6:	0006                	c.slli	zero,0x1
     6f8:	1600                	addi	s0,sp,800
     6fa:	5a01                	li	s4,-32
     6fc:	3001                	0x3001
     6fe:	0116                	slli	sp,sp,0x5
     700:	9803095b          	0x9803095b
     704:	0008                	0x8
     706:	0001                	nop
     708:	0000                	unimp
     70a:	0000                	unimp
     70c:	00061017          	auipc	zero,0x61
     710:	0001                	nop
     712:	0000                	unimp
     714:	7d00                	ld	s0,56(a0)
     716:	000e                	c.slli	zero,0x3
     718:	0000                	unimp
     71a:	16000007          	0x16000007
     71e:	5a01                	li	s4,-32
     720:	8202                	jr	tp
     722:	1600                	addi	s0,sp,800
     724:	5b01                	li	s6,-32
     726:	3801                	addiw	a6,a6,-32
     728:	0116                	slli	sp,sp,0x5
     72a:	015c                	addi	a5,sp,132
     72c:	0030                	addi	a2,sp,8
     72e:	00062017          	auipc	zero,0x62
     732:	0001                	nop
     734:	0000                	unimp
     736:	b400                	fsd	fs0,40(s0)
     738:	2400000b          	0x2400000b
     73c:	16000007          	0x16000007
     740:	5a01                	li	s4,-32
     742:	3001                	0x3001
     744:	0116                	slli	sp,sp,0x5
     746:	b803095b          	0xb803095b
     74a:	0008                	0x8
     74c:	0001                	nop
     74e:	0000                	unimp
     750:	0000                	unimp
     752:	00063017          	auipc	zero,0x63
     756:	0001                	nop
     758:	0000                	unimp
     75a:	7d00                	ld	s0,56(a0)
     75c:	000e                	c.slli	zero,0x3
     75e:	4600                	lw	s0,8(a2)
     760:	16000007          	0x16000007
     764:	5a01                	li	s4,-32
     766:	8202                	jr	tp
     768:	1600                	addi	s0,sp,800
     76a:	5b01                	li	s6,-32
     76c:	3801                	addiw	a6,a6,-32
     76e:	0116                	slli	sp,sp,0x5
     770:	015c                	addi	a5,sp,132
     772:	0030                	addi	a2,sp,8
     774:	3815                	addiw	a6,a6,-27
     776:	0006                	c.slli	zero,0x1
     778:	0001                	nop
     77a:	0000                	unimp
     77c:	9700                	0x9700
     77e:	000c                	0xc
     780:	1600                	addi	s0,sp,800
     782:	5a01                	li	s4,-32
     784:	3001                	0x3001
     786:	0000                	unimp
     788:	6a20                	ld	s0,80(a2)
     78a:	6a000007          	0x6a000007
     78e:	21000007          	0x21000007
     792:	0098                	addi	a4,sp,64
     794:	0000                	unimp
     796:	01020007          	0x1020007
     79a:	5108                	lw	a0,32(a0)
     79c:	0002                	c.slli64	zero
     79e:	0500                	addi	s0,sp,640
     7a0:	076a                	slli	a4,a4,0x1a
     7a2:	0000                	unimp
     7a4:	0822                	slli	a6,a6,0x8
     7a6:	076a                	slli	a4,a4,0x1a
     7a8:	0000                	unimp
     7aa:	00032023          	sw	zero,0(t1) # 0 <__quad_stride-0x10000>
     7ae:	0300                	addi	s0,sp,384
     7b0:	0616                	slli	a2,a2,0x5
     7b2:	0498                	addi	a4,sp,576
     7b4:	0100                	addi	s0,sp,128
     7b6:	0000                	unimp
     7b8:	0000                	unimp
     7ba:	002c                	addi	a1,sp,8
     7bc:	0000                	unimp
     7be:	0000                	unimp
     7c0:	0000                	unimp
     7c2:	9c01                	subw	s0,s0,s0
     7c4:	07c5                	addi	a5,a5,17
     7c6:	0000                	unimp
     7c8:	be24                	fsd	fs1,120(a2)
     7ca:	0000                	unimp
     7cc:	0300                	addi	s0,sp,384
     7ce:	1c16                	slli	s8,s8,0x25
     7d0:	008c                	addi	a1,sp,64
     7d2:	0000                	unimp
     7d4:	5a01                	li	s4,-32
     7d6:	b70c                	fsd	fa1,40(a4)
     7d8:	0000                	unimp
     7da:	0300                	addi	s0,sp,384
     7dc:	008c0e17          	auipc	t3,0x8c0
     7e0:	0000                	unimp
     7e2:	5f01                	li	t5,-32
     7e4:	150c                	addi	a1,sp,672
     7e6:	0002                	c.slli64	zero
     7e8:	0300                	addi	s0,sp,384
     7ea:	008c1c17          	auipc	s8,0x8c1
     7ee:	0000                	unimp
     7f0:	5e01                	li	t3,-32
     7f2:	2300                	fld	fs0,0(a4)
     7f4:	01f2                	slli	gp,gp,0x1c
     7f6:	0000                	unimp
     7f8:	3202                	fld	ft4,32(sp)
     7fa:	3006                	fld	ft0,96(sp)
     7fc:	00010003          	lb	zero,0(sp)
     800:	0000                	unimp
     802:	6800                	ld	s0,16(s0)
     804:	0001                	nop
     806:	0000                	unimp
     808:	0000                	unimp
     80a:	0100                	addi	s0,sp,128
     80c:	f79c                	sd	a5,40(a5)
     80e:	0009                	c.nop	2
     810:	2500                	fld	fs0,8(a0)
     812:	0376                	slli	t1,t1,0x1d
     814:	0000                	unimp
     816:	3202                	fld	ft4,32(sp)
     818:	9f1c                	0x9f1c
     81a:	0000                	unimp
     81c:	3000                	fld	fs0,32(s0)
     81e:	25000003          	lb	zero,592(zero) # 250 <__quad_stride-0xfdb0>
     822:	01bd                	addi	gp,gp,15
     824:	0000                	unimp
     826:	3202                	fld	ft4,32(sp)
     828:	8c35                	xor	s0,s0,a3
     82a:	0000                	unimp
     82c:	8f00                	0x8f00
     82e:	0b000003          	lb	zero,176(zero) # b0 <__quad_stride-0xff50>
     832:	000001af          	0x1af
     836:	3302                	fld	ft6,32(sp)
     838:	490d                	li	s2,3
     83a:	0000                	unimp
     83c:	ee00                	sd	s0,24(a2)
     83e:	0d000003          	lb	zero,208(zero) # d0 <__quad_stride-0xff30>
     842:	0050                	addi	a2,sp,4
     844:	0000                	unimp
     846:	3402                	fld	fs0,32(sp)
     848:	490a                	lw	s2,128(sp)
     84a:	0000                	unimp
     84c:	0000                	unimp
     84e:	00030c0b          	0x30c0b
     852:	0200                	addi	s0,sp,256
     854:	0e38                	addi	a4,sp,792
     856:	0079                	c.nop	30
     858:	0000                	unimp
     85a:	0424                	addi	s1,sp,520
     85c:	0000                	unimp
     85e:	b00e                	fsd	ft3,32(sp)
     860:	0002                	c.slli64	zero
     862:	c500                	sw	s0,8(a0)
     864:	0009                	c.nop	2
     866:	0c00                	addi	s0,sp,528
     868:	02f5                	addi	t0,t0,29
     86a:	0000                	unimp
     86c:	3b02                	fld	fs6,32(sp)
     86e:	f711                	bnez	a4,77a <__quad_stride-0xf886>
     870:	0009                	c.nop	2
     872:	0300                	addi	s0,sp,384
     874:	b091                	j	b8 <__quad_stride-0xff48>
     876:	03470b77          	0x3470b77
     87a:	0000                	unimp
     87c:	3c02                	fld	fs8,32(sp)
     87e:	4911                	li	s2,4
     880:	0000                	unimp
     882:	8100                	0x8100
     884:	0004                	0x4
     886:	0b00                	addi	s0,sp,400
     888:	0256                	slli	tp,tp,0x15
     88a:	0000                	unimp
     88c:	3c02                	fld	fs8,32(sp)
     88e:	4920                	lw	s0,80(a0)
     890:	0000                	unimp
     892:	a400                	fsd	fs0,8(s0)
     894:	0004                	0x4
     896:	0b00                	addi	s0,sp,400
     898:	01e2                	slli	gp,gp,0x18
     89a:	0000                	unimp
     89c:	3d02                	fld	fs10,32(sp)
     89e:	4911                	li	s2,4
     8a0:	0000                	unimp
     8a2:	c700                	sw	s0,8(a4)
     8a4:	0004                	0x4
     8a6:	0b00                	addi	s0,sp,400
     8a8:	0296                	slli	t0,t0,0x5
     8aa:	0000                	unimp
     8ac:	3d02                	fld	fs10,32(sp)
     8ae:	4922                	lw	s2,8(sp)
     8b0:	0000                	unimp
     8b2:	ea00                	sd	s0,16(a2)
     8b4:	0004                	0x4
     8b6:	0b00                	addi	s0,sp,400
     8b8:	038d                	addi	t2,t2,3
     8ba:	0000                	unimp
     8bc:	3e02                	fld	ft8,32(sp)
     8be:	3b0d                	addiw	s6,s6,-29
     8c0:	0000                	unimp
     8c2:	0d00                	addi	s0,sp,656
     8c4:	0005                	c.nop	1
     8c6:	1700                	addi	s0,sp,928
     8c8:	0388                	addi	a0,sp,448
     8ca:	0100                	addi	s0,sp,128
     8cc:	0000                	unimp
     8ce:	0000                	unimp
     8d0:	00000c97          	auipc	s9,0x0
     8d4:	08b1                	addi	a7,a7,12
     8d6:	0000                	unimp
     8d8:	0116                	slli	sp,sp,0x5
     8da:	025a                	slli	tp,tp,0x16
     8dc:	0079                	c.nop	30
     8de:	1700                	addi	s0,sp,928
     8e0:	039c                	addi	a5,sp,448
     8e2:	0100                	addi	s0,sp,128
     8e4:	0000                	unimp
     8e6:	0000                	unimp
     8e8:	0d20                	addi	s0,sp,664
     8ea:	0000                	unimp
     8ec:	08ce                	slli	a7,a7,0x13
     8ee:	0000                	unimp
     8f0:	0116                	slli	sp,sp,0x5
     8f2:	025a                	slli	tp,tp,0x16
     8f4:	0079                	c.nop	30
     8f6:	0116                	slli	sp,sp,0x5
     8f8:	0036015b          	0x36015b
     8fc:	0003ac17          	auipc	s8,0x3a
     900:	0001                	nop
     902:	0000                	unimp
     904:	b400                	fsd	fs0,40(s0)
     906:	f300000b          	0xf300000b
     90a:	0008                	0x8
     90c:	1600                	addi	s0,sp,800
     90e:	5a01                	li	s4,-32
     910:	7902                	ld	s2,32(sp)
     912:	1600                	addi	s0,sp,800
     914:	5b01                	li	s6,-32
     916:	0309                	addi	t1,t1,2
     918:	07d8                	addi	a4,sp,964
     91a:	0100                	addi	s0,sp,128
     91c:	0000                	unimp
     91e:	0000                	unimp
     920:	1700                	addi	s0,sp,928
     922:	03f8                	addi	a4,sp,460
     924:	0100                	addi	s0,sp,128
     926:	0000                	unimp
     928:	0000                	unimp
     92a:	00000c97          	auipc	s9,0x0
     92e:	0000090b          	0x90b
     932:	0116                	slli	sp,sp,0x5
     934:	025a                	slli	tp,tp,0x16
     936:	0079                	c.nop	30
     938:	1700                	addi	s0,sp,928
     93a:	0404                	addi	s1,sp,512
     93c:	0100                	addi	s0,sp,128
     93e:	0000                	unimp
     940:	0000                	unimp
     942:	00000c97          	auipc	s9,0x0
     946:	00000923          	sb	zero,18(zero) # 12 <__quad_stride-0xffee>
     94a:	0116                	slli	sp,sp,0x5
     94c:	025a                	slli	tp,tp,0x16
     94e:	0079                	c.nop	30
     950:	1700                	addi	s0,sp,928
     952:	0430                	addi	a2,sp,520
     954:	0100                	addi	s0,sp,128
     956:	0000                	unimp
     958:	0000                	unimp
     95a:	00000c97          	auipc	s9,0x0
     95e:	0000093b          	addw	s2,zero,zero
     962:	0116                	slli	sp,sp,0x5
     964:	025a                	slli	tp,tp,0x16
     966:	0079                	c.nop	30
     968:	1700                	addi	s0,sp,928
     96a:	0444                	addi	s1,sp,516
     96c:	0100                	addi	s0,sp,128
     96e:	0000                	unimp
     970:	0000                	unimp
     972:	0a9d                	addi	s5,s5,7
     974:	0000                	unimp
     976:	0959                	addi	s2,s2,22
     978:	0000                	unimp
     97a:	0116                	slli	sp,sp,0x5
     97c:	025a                	slli	tp,tp,0x16
     97e:	0085                	addi	ra,ra,1
     980:	0116                	slli	sp,sp,0x5
     982:	0082025b          	0x82025b
     986:	1700                	addi	s0,sp,928
     988:	0454                	addi	a3,sp,516
     98a:	0100                	addi	s0,sp,128
     98c:	0000                	unimp
     98e:	0000                	unimp
     990:	0d20                	addi	s0,sp,664
     992:	0000                	unimp
     994:	0976                	slli	s2,s2,0x1d
     996:	0000                	unimp
     998:	0116                	slli	sp,sp,0x5
     99a:	025a                	slli	tp,tp,0x16
     99c:	0079                	c.nop	30
     99e:	0116                	slli	sp,sp,0x5
     9a0:	0036015b          	0x36015b
     9a4:	00046c17          	auipc	s8,0x46
     9a8:	0001                	nop
     9aa:	0000                	unimp
     9ac:	1100                	addi	s0,sp,160
     9ae:	000a                	c.slli	zero,0x2
     9b0:	a300                	fsd	fs0,0(a4)
     9b2:	0009                	c.nop	2
     9b4:	1600                	addi	s0,sp,800
     9b6:	5a01                	li	s4,-32
     9b8:	0800840b          	0x800840b
     9bc:	2420                	fld	fs0,72(s0)
     9be:	2008                	fld	fa0,0(s0)
     9c0:	8825                	andi	s0,s0,9
     9c2:	2200                	fld	fs0,0(a2)
     9c4:	0116                	slli	sp,sp,0x5
     9c6:	0085025b          	0x85025b
     9ca:	0116                	slli	sp,sp,0x5
     9cc:	025c                	addi	a5,sp,260
     9ce:	0082                	c.slli64	ra
     9d0:	2600                	fld	fs0,8(a2)
     9d2:	0478                	addi	a4,sp,524
     9d4:	0100                	addi	s0,sp,128
     9d6:	0000                	unimp
     9d8:	0000                	unimp
     9da:	00000c97          	auipc	s9,0x0
     9de:	9415                	srai	s0,s0,0x25
     9e0:	0004                	0x4
     9e2:	0001                	nop
     9e4:	0000                	unimp
     9e6:	2000                	fld	fs0,0(s0)
     9e8:	000d                	c.nop	3
     9ea:	1600                	addi	s0,sp,800
     9ec:	5a01                	li	s4,-32
     9ee:	7902                	ld	s2,32(sp)
     9f0:	0000                	unimp
     9f2:	2700                	fld	fs0,8(a4)
     9f4:	0a08                	addi	a0,sp,272
     9f6:	0000                	unimp
     9f8:	03ac                	addi	a1,sp,456
     9fa:	0100                	addi	s0,sp,128
     9fc:	0000                	unimp
     9fe:	0000                	unimp
     a00:	0004                	0x4
     a02:	0000                	unimp
     a04:	0000                	unimp
     a06:	0000                	unimp
     a08:	6702                	ld	a4,0(sp)
     a0a:	1505                	addi	a0,a0,-31
     a0c:	0374                	addi	a3,sp,396
     a0e:	0100                	addi	s0,sp,128
     a10:	0000                	unimp
     a12:	0000                	unimp
     a14:	0d20                	addi	s0,sp,664
     a16:	0000                	unimp
     a18:	0116                	slli	sp,sp,0x5
     a1a:	025a                	slli	tp,tp,0x16
     a1c:	0079                	c.nop	30
     a1e:	0116                	slli	sp,sp,0x5
     a20:	0045015b          	0x45015b
     a24:	2000                	fld	fs0,0(s0)
     a26:	0049                	c.nop	18
     a28:	0000                	unimp
     a2a:	0a08                	addi	a0,sp,272
     a2c:	0000                	unimp
     a2e:	9828                	0x9828
     a30:	0000                	unimp
     a32:	ff00                	sd	s0,56(a4)
     a34:	d0290003          	lb	zero,-766(s2) # fffffffffffe3d02 <__stack_pointer$+0xffffffff8ffc3d0a>
     a38:	0002                	c.slli64	zero
     a3a:	0200                	addi	s0,sp,256
     a3c:	0d2e                	slli	s10,s10,0xb
     a3e:	00a82a03          	lw	s4,10(a6) # 585ea <__quad_stride+0x485ea>
     a42:	0000                	unimp
     a44:	2302                	fld	ft6,0(sp)
     a46:	000a8807          	0xa8807
     a4a:	f400                	sd	s0,40(s0)
     a4c:	0002                	c.slli64	zero
     a4e:	0001                	nop
     a50:	0000                	unimp
     a52:	3c00                	fld	fs0,56(s0)
     a54:	0000                	unimp
     a56:	0000                	unimp
     a58:	0000                	unimp
     a5a:	0100                	addi	s0,sp,128
     a5c:	889c                	0x889c
     a5e:	000a                	c.slli	zero,0x2
     a60:	2400                	fld	fs0,8(s0)
     a62:	0061                	c.nop	24
     a64:	0000                	unimp
     a66:	2302                	fld	ft6,0(sp)
     a68:	8814                	0x8814
     a6a:	000a                	c.slli	zero,0x2
     a6c:	0100                	addi	s0,sp,128
     a6e:	2b5a                	fld	fs6,400(sp)
     a70:	00637273          	csrrci	tp,0x6,6
     a74:	2302                	fld	ft6,0(sp)
     a76:	8a26                	mv	s4,s1
     a78:	000a                	c.slli	zero,0x2
     a7a:	0100                	addi	s0,sp,128
     a7c:	006e2b5b          	0x6e2b5b
     a80:	2302                	fld	ft6,0(sp)
     a82:	7932                	ld	s2,296(sp)
     a84:	0000                	unimp
     a86:	0100                	addi	s0,sp,128
     a88:	2c5c                	fld	fa5,152(s0)
     a8a:	0064                	addi	s1,sp,12
     a8c:	2402                	fld	fs0,0(sp)
     a8e:	910e                	add	sp,sp,gp
     a90:	000a                	c.slli	zero,0x2
     a92:	0100                	addi	s0,sp,128
     a94:	2c5a                	fld	fs8,400(sp)
     a96:	25020073          	0x25020073
     a9a:	9714                	0x9714
     a9c:	000a                	c.slli	zero,0x2
     a9e:	0100                	addi	s0,sp,128
     aa0:	0270135b          	0x270135b
     aa4:	0000                	unimp
     aa6:	0200690f          	0x200690f
     aaa:	00791127          	0x791127
     aae:	0000                	unimp
     ab0:	0559                	addi	a0,a0,22
     ab2:	0000                	unimp
     ab4:	0000                	unimp
     ab6:	082d                	addi	a6,a6,11
     ab8:	0822                	slli	a6,a6,0x8
     aba:	0a90                	addi	a2,sp,336
     abc:	0000                	unimp
     abe:	222e                	fld	ft4,200(sp)
     ac0:	4908                	lw	a0,16(a0)
     ac2:	0000                	unimp
     ac4:	2200                	fld	fs0,0(a2)
     ac6:	5508                	lw	a0,40(a0)
     ac8:	0000                	unimp
     aca:	2a00                	fld	fs0,16(a2)
     acc:	02e6                	slli	t0,t0,0x19
     ace:	0000                	unimp
     ad0:	1a02                	slli	s4,s4,0x20
     ad2:	4909                	li	s2,2
     ad4:	0000                	unimp
     ad6:	b000                	fsd	fs0,32(s0)
     ad8:	0002                	c.slli64	zero
     ada:	0001                	nop
     adc:	0000                	unimp
     ade:	4400                	lw	s0,8(s0)
     ae0:	0000                	unimp
     ae2:	0000                	unimp
     ae4:	0000                	unimp
     ae6:	0100                	addi	s0,sp,128
     ae8:	029c                	addi	a5,sp,320
     aea:	2500000b          	0x2500000b
     aee:	02f5                	addi	t0,t0,29
     af0:	0000                	unimp
     af2:	1a02                	slli	s4,s4,0x20
     af4:	000a9727          	0xa9727
     af8:	9000                	0x9000
     afa:	0005                	c.nop	1
     afc:	2400                	fld	fs0,8(s0)
     afe:	02b6                	slli	t0,t0,0xd
     b00:	0000                	unimp
     b02:	1a02                	slli	s4,s4,0x20
     b04:	7934                	ld	a3,112(a0)
     b06:	0000                	unimp
     b08:	0100                	addi	s0,sp,128
     b0a:	02a10b5b          	0x2a10b5b
     b0e:	0000                	unimp
     b10:	1b02                	slli	s6,s6,0x20
     b12:	660e                	ld	a2,192(sp)
     b14:	0000                	unimp
     b16:	dc00                	sw	s0,56(s0)
     b18:	0005                	c.nop	1
     b1a:	1300                	addi	s0,sp,416
     b1c:	0220                	addi	s0,sp,264
     b1e:	0000                	unimp
     b20:	0200690f          	0x200690f
     b24:	111c                	addi	a5,sp,160
     b26:	0079                	c.nop	30
     b28:	0000                	unimp
     b2a:	00000613          	li	a2,0
     b2e:	0000                	unimp
     b30:	0003a72f          	amoadd.w	a4,zero,(t2)
     b34:	0100                	addi	s0,sp,128
     b36:	1484                	addi	s1,sp,608
     b38:	000b3403          	ld	s0,0(s6)
     b3c:	3000                	fld	fs0,32(s0)
     b3e:	0376                	slli	t1,t1,0x1d
     b40:	0000                	unimp
     b42:	8401                	c.srai64	s0
     b44:	9f28                	0x9f28
     b46:	0000                	unimp
     b48:	3100                	fld	fs0,32(a0)
     b4a:	00727473          	csrrci	s0,0x7,4
     b4e:	8401                	c.srai64	s0
     b50:	763e                	ld	a2,488(sp)
     b52:	32000007          	0x32000007
     b56:	00727563          	bgeu	tp,t2,b60 <__quad_stride-0xf4a0>
     b5a:	8501                	c.srai64	a0
     b5c:	0007760b          	0x7760b
     b60:	0000                	unimp
     b62:	0002282f          	amoadd.w	a6,zero,(tp)
     b66:	0100                	addi	s0,sp,128
     b68:	a403146f          	jal	s0,fffffffffff31da8 <__stack_pointer$+0xffffffff8ff11db0>
     b6c:	3000000b          	0x3000000b
     b70:	0376                	slli	t1,t1,0x1d
     b72:	0000                	unimp
     b74:	6f01                	0x6f01
     b76:	9f2d                	addw	a4,a4,a1
     b78:	0000                	unimp
     b7a:	3100                	fld	fs0,32(a0)
     b7c:	00727473          	csrrci	s0,0x7,4
     b80:	6f01                	0x6f01
     b82:	00077643          	fmadd.s	fa2,fa4,ft0,ft0
     b86:	3000                	fld	fs0,32(s0)
     b88:	02b6                	slli	t0,t0,0xd
     b8a:	0000                	unimp
     b8c:	7001                	c.lui	zero,0xfffe0
     b8e:	792c                	ld	a1,112(a0)
     b90:	0000                	unimp
     b92:	3000                	fld	fs0,32(s0)
     b94:	032d                	addi	t1,t1,11
     b96:	0000                	unimp
     b98:	7001                	c.lui	zero,0xfffe0
     b9a:	793d                	lui	s2,0xfffef
     b9c:	0000                	unimp
     b9e:	3200                	fld	fs0,32(a2)
     ba0:	756c                	ld	a1,232(a0)
     ba2:	0074                	addi	a3,sp,12
     ba4:	7101                	addi	sp,sp,-512
     ba6:	a40d                	j	dc8 <__quad_stride-0xf238>
     ba8:	3300000b          	0x3300000b
     bac:	6932                	ld	s2,264(sp)
     bae:	0100                	addi	s0,sp,128
     bb0:	008c1373          	csrrw	t1,0x8,s8
     bb4:	0000                	unimp
     bb6:	007a3433          	sltu	s0,s4,t2
     bba:	0000                	unimp
     bbc:	7c01                	lui	s8,0xfffe0
     bbe:	6a0e                	ld	s4,192(sp)
     bc0:	33000007          	0x33000007
     bc4:	6a32                	ld	s4,264(sp)
     bc6:	0100                	addi	s0,sp,128
     bc8:	003b1677          	0x3b1677
     bcc:	0000                	unimp
     bce:	0000                	unimp
     bd0:	0000                	unimp
     bd2:	4920                	lw	s0,80(a0)
     bd4:	0000                	unimp
     bd6:	b400                	fsd	fs0,40(s0)
     bd8:	2100000b          	0x2100000b
     bdc:	0098                	addi	a4,sp,64
     bde:	0000                	unimp
     be0:	6635000f          	0x6635000f
     be4:	0000                	unimp
     be6:	0100                	addi	s0,sp,128
     be8:	1466                	slli	s0,s0,0x39
     bea:	0100                	addi	s0,sp,128
     bec:	0100                	addi	s0,sp,128
     bee:	0000                	unimp
     bf0:	0000                	unimp
     bf2:	006c                	addi	a1,sp,12
     bf4:	0000                	unimp
     bf6:	0000                	unimp
     bf8:	0000                	unimp
     bfa:	9c01                	subw	s0,s0,s0
     bfc:	00000c53          	fadd.s	fs8,ft0,ft0,rne
     c00:	7625                	lui	a2,0xfffe9
     c02:	01000003          	lb	zero,16(zero) # 10 <__quad_stride-0xfff0>
     c06:	2966                	fld	fs2,88(sp)
     c08:	009f 0000 064a      	0x64a0000009f
     c0e:	0000                	unimp
     c10:	7336                	ld	t1,360(sp)
     c12:	7274                	ld	a3,224(a2)
     c14:	0100                	addi	s0,sp,128
     c16:	4566                	lw	a0,88(sp)
     c18:	00000c53          	fadd.s	fs8,ft0,ft0,rne
     c1c:	06a9                	addi	a3,a3,10
     c1e:	0000                	unimp
     c20:	7275630f          	0x7275630f
     c24:	0100                	addi	s0,sp,128
     c26:	0c531167          	0xc531167
     c2a:	0000                	unimp
     c2c:	06e2                	slli	a3,a3,0x18
     c2e:	0000                	unimp
     c30:	cd10                	sw	a2,24(a0)
     c32:	000d                	c.nop	3
     c34:	2800                	fld	fs0,16(s0)
     c36:	0001                	nop
     c38:	0001                	nop
     c3a:	0000                	unimp
     c3c:	0000                	unimp
     c3e:	0001                	nop
     c40:	0100                	addi	s0,sp,128
     c42:	0d6c                	addi	a1,sp,668
     c44:	0c3e                	slli	s8,s8,0xf
     c46:	0000                	unimp
     c48:	000dde1b          	srliw	t3,s11,0x0
     c4c:	3700                	fld	fs0,40(a4)
     c4e:	00000e27          	0xe27
     c52:	0138                	addi	a4,sp,136
     c54:	0100                	addi	s0,sp,128
     c56:	0000                	unimp
     c58:	0000                	unimp
     c5a:	0004                	0x4
     c5c:	0000                	unimp
     c5e:	0000                	unimp
     c60:	0000                	unimp
     c62:	4301                	li	t1,0
     c64:	1b0c                	addi	a1,sp,432
     c66:	0e38                	addi	a4,sp,792
     c68:	0000                	unimp
     c6a:	0000                	unimp
     c6c:	6415                	lui	s0,0x5
     c6e:	0001                	nop
     c70:	0001                	nop
     c72:	0000                	unimp
     c74:	2000                	fld	fs0,0(s0)
     c76:	000d                	c.nop	3
     c78:	1600                	addi	s0,sp,800
     c7a:	5a01                	li	s4,-32
     c7c:	8202                	jr	tp
     c7e:	0000                	unimp
     c80:	2200                	fld	fs0,0(a2)
     c82:	7108                	ld	a0,32(a0)
     c84:	2f000007          	0x2f000007
     c88:	02dc                	addi	a5,sp,324
     c8a:	0000                	unimp
     c8c:	5301                	li	t1,-32
     c8e:	0314                	addi	a3,sp,384
     c90:	00000c97          	auipc	s9,0x0
     c94:	7630                	ld	a2,104(a2)
     c96:	01000003          	lb	zero,16(zero) # 10 <__quad_stride-0xfff0>
     c9a:	009f2853          	fadd.s	fa6,ft10,fs1,rdn
     c9e:	0000                	unimp
     ca0:	fe30                	sd	a2,120(a2)
     ca2:	0001                	nop
     ca4:	0100                	addi	s0,sp,128
     ca6:	00794153          	fadd.s	ft2,fs2,ft7,rmm
     caa:	0000                	unimp
     cac:	4330                	lw	a2,64(a4)
     cae:	0002                	c.slli64	zero
     cb0:	0100                	addi	s0,sp,128
     cb2:	2754                	fld	fa3,136(a4)
     cb4:	0079                	c.nop	30
     cb6:	0000                	unimp
     cb8:	8534                	0x8534
     cba:	01000003          	lb	zero,16(zero) # 10 <__quad_stride-0xfff0>
     cbe:	0e55                	addi	t3,t3,21
     cc0:	0079                	c.nop	30
     cc2:	0000                	unimp
     cc4:	3800                	fld	fs0,48(s0)
     cc6:	00000237          	lui	tp,0x0
     cca:	4d01                	li	s10,0
     ccc:	00004917          	auipc	s2,0x4
     cd0:	c400                	sw	s0,8(s0)
     cd2:	0000                	unimp
     cd4:	0001                	nop
     cd6:	0000                	unimp
     cd8:	3c00                	fld	fs0,56(s0)
     cda:	0000                	unimp
     cdc:	0000                	unimp
     cde:	0000                	unimp
     ce0:	0100                	addi	s0,sp,128
     ce2:	209c                	fld	fa5,0(s1)
     ce4:	000d                	c.nop	3
     ce6:	2500                	fld	fs0,8(a0)
     ce8:	0376                	slli	t1,t1,0x1d
     cea:	0000                	unimp
     cec:	4d01                	li	s10,0
     cee:	9f2d                	addw	a4,a4,a1
     cf0:	0000                	unimp
     cf2:	1800                	addi	s0,sp,48
     cf4:	10000007          	0x10000007
     cf8:	0e09                	addi	t3,t3,2
     cfa:	0000                	unimp
     cfc:	00c8                	addi	a0,sp,68
     cfe:	0100                	addi	s0,sp,128
     d00:	0000                	unimp
     d02:	0000                	unimp
     d04:	0080                	addi	s0,sp,64
     d06:	0000                	unimp
     d08:	4e01                	li	t3,0
     d0a:	050c                	addi	a1,sp,640
     d0c:	000d                	c.nop	3
     d0e:	1b00                	addi	s0,sp,432
     d10:	0e1a                	slli	t3,t3,0x6
     d12:	0000                	unimp
     d14:	000e2737          	lui	a4,0xe2
     d18:	e000                	sd	s0,0(s0)
     d1a:	0000                	unimp
     d1c:	0001                	nop
     d1e:	0000                	unimp
     d20:	0400                	addi	s0,sp,512
     d22:	0000                	unimp
     d24:	0000                	unimp
     d26:	0000                	unimp
     d28:	0100                	addi	s0,sp,128
     d2a:	381b0c37          	lui	s8,0x381b0
     d2e:	000e                	c.slli	zero,0x3
     d30:	0000                	unimp
     d32:	1f00                	addi	s0,sp,944
     d34:	00000e27          	0xe27
     d38:	00ec                	addi	a1,sp,76
     d3a:	0100                	addi	s0,sp,128
     d3c:	0000                	unimp
     d3e:	0000                	unimp
     d40:	00d0                	addi	a2,sp,68
     d42:	0000                	unimp
     d44:	5101                	li	sp,-32
     d46:	1b0c                	addi	a1,sp,432
     d48:	0e38                	addi	a4,sp,792
     d4a:	0000                	unimp
     d4c:	0000                	unimp
     d4e:	d535                	beqz	a0,cba <__quad_stride-0xf346>
     d50:	0001                	nop
     d52:	0100                	addi	s0,sp,128
     d54:	1446                	slli	s0,s0,0x31
     d56:	0088                	addi	a0,sp,64
     d58:	0100                	addi	s0,sp,128
     d5a:	0000                	unimp
     d5c:	0000                	unimp
     d5e:	003c                	addi	a5,sp,8
     d60:	0000                	unimp
     d62:	0000                	unimp
     d64:	0000                	unimp
     d66:	9c01                	subw	s0,s0,s0
     d68:	0dcd                	addi	s11,s11,19
     d6a:	0000                	unimp
     d6c:	7625                	lui	a2,0xfffe9
     d6e:	01000003          	lb	zero,16(zero) # 10 <__quad_stride-0xfff0>
     d72:	2b46                	fld	fs6,80(sp)
     d74:	009f 0000 0751      	0x7510000009f
     d7a:	0000                	unimp
     d7c:	0100612b          	0x100612b
     d80:	4046                	0x4046
     d82:	076a                	slli	a4,a4,0x1a
     d84:	0000                	unimp
     d86:	5b01                	li	s6,-32
     d88:	eb10                	sd	a2,16(a4)
     d8a:	000d                	c.nop	3
     d8c:	8c00                	0x8c00
     d8e:	0000                	unimp
     d90:	0001                	nop
     d92:	0000                	unimp
     d94:	0000                	unimp
     d96:	0000                	unimp
     d98:	0100                	addi	s0,sp,128
     d9a:	0d960c47          	0xd960c47
     d9e:	0000                	unimp
     da0:	000dfc1b          	0xdfc1b
     da4:	3700                	fld	fs0,40(a4)
     da6:	00000e27          	0xe27
     daa:	00a4                	addi	s1,sp,72
     dac:	0100                	addi	s0,sp,128
     dae:	0000                	unimp
     db0:	0000                	unimp
     db2:	0004                	0x4
     db4:	0000                	unimp
     db6:	0000                	unimp
     db8:	0000                	unimp
     dba:	3f01                	addiw	t5,t5,-32
     dbc:	1b0c                	addi	a1,sp,432
     dbe:	0e38                	addi	a4,sp,792
     dc0:	0000                	unimp
     dc2:	0000                	unimp
     dc4:	451f 000e b000      	0xb000000e451f
     dca:	0000                	unimp
     dcc:	0001                	nop
     dce:	0000                	unimp
     dd0:	5000                	lw	s0,32(s0)
     dd2:	0000                	unimp
     dd4:	0100                	addi	s0,sp,128
     dd6:	054a                	slli	a0,a0,0x12
     dd8:	5e12                	lw	t3,36(sp)
     dda:	000e                	c.slli	zero,0x3
     ddc:	8a00                	0x8a00
     dde:	12000007          	0x12000007
     de2:	0e52                	slli	t3,t3,0x14
     de4:	0000                	unimp
     de6:	07ad                	addi	a5,a5,11
     de8:	0000                	unimp
     dea:	00005013          	srli	zero,zero,0x0
     dee:	1d00                	addi	s0,sp,688
     df0:	0e6a                	slli	t3,t3,0x1a
     df2:	0000                	unimp
     df4:	07e8                	addi	a0,sp,972
     df6:	0000                	unimp
     df8:	0000                	unimp
     dfa:	3900                	fld	fs0,48(a0)
     dfc:	0089                	addi	ra,ra,2
     dfe:	0000                	unimp
     e00:	4201                	li	tp,0
     e02:	00003b13          	sltiu	s6,zero,0
     e06:	0300                	addi	s0,sp,384
     e08:	00000deb          	0xdeb
     e0c:	7630                	ld	a2,104(a2)
     e0e:	01000003          	lb	zero,16(zero) # 10 <__quad_stride-0xfff0>
     e12:	2e42                	fld	ft8,16(sp)
     e14:	009f 0000 3900      	0x39000000009f
     e1a:	0000027b          	0x27b
     e1e:	3e01                	addiw	t3,t3,-32
     e20:	00003b13          	sltiu	s6,zero,0
     e24:	0300                	addi	s0,sp,384
     e26:	0e09                	addi	t3,t3,2
     e28:	0000                	unimp
     e2a:	7630                	ld	a2,104(a2)
     e2c:	01000003          	lb	zero,16(zero) # 10 <__quad_stride-0xfff0>
     e30:	2f3e                	fld	ft10,456(sp)
     e32:	009f 0000 3900      	0x39000000009f
     e38:	009a                	slli	ra,ra,0x6
     e3a:	0000                	unimp
     e3c:	3601                	addiw	a2,a2,-32
     e3e:	00003b13          	sltiu	s6,zero,0
     e42:	0300                	addi	s0,sp,384
     e44:	00000e27          	0xe27
     e48:	7630                	ld	a2,104(a2)
     e4a:	01000003          	lb	zero,16(zero) # 10 <__quad_stride-0xfff0>
     e4e:	2b36                	fld	fs6,328(sp)
     e50:	009f 0000 3900      	0x39000000009f
     e56:	035e                	slli	t1,t1,0x17
     e58:	0000                	unimp
     e5a:	3201                	addiw	tp,tp,-32
     e5c:	00004917          	auipc	s2,0x4
     e60:	0300                	addi	s0,sp,384
     e62:	0e45                	addi	t3,t3,17
     e64:	0000                	unimp
     e66:	5930                	lw	a2,112(a0)
     e68:	01000003          	lb	zero,16(zero) # 10 <__quad_stride-0xfff0>
     e6c:	2d32                	fld	fs10,264(sp)
     e6e:	009f 0000 2f00      	0x2f000000009f
     e74:	00c4                	addi	s1,sp,68
     e76:	0000                	unimp
     e78:	2d01                	sext.w	s10,s10
     e7a:	0314                	addi	a3,sp,384
     e7c:	00000e77          	0xe77
     e80:	5930                	lw	a2,112(a0)
     e82:	01000003          	lb	zero,16(zero) # 10 <__quad_stride-0xfff0>
     e86:	2b2d                	addiw	s6,s6,11
     e88:	009f 0000 a130      	0xa1300000009f
     e8e:	01000003          	lb	zero,16(zero) # 10 <__quad_stride-0xfff0>
     e92:	392d                	addiw	s2,s2,-21
     e94:	0049                	c.nop	18
     e96:	0000                	unimp
     e98:	5534                	lw	a3,104(a0)
     e9a:	01000003          	lb	zero,16(zero) # 10 <__quad_stride-0xfff0>
     e9e:	172e                	slli	a4,a4,0x2b
     ea0:	00000e77          	0xe77
     ea4:	2200                	fld	fs0,0(a2)
     ea6:	5a08                	lw	a0,48(a2)
     ea8:	0000                	unimp
     eaa:	3a00                	fld	fs0,48(a2)
     eac:	0b34                	addi	a3,sp,408
     eae:	0000                	unimp
     eb0:	016c                	addi	a1,sp,140
     eb2:	0100                	addi	s0,sp,128
     eb4:	0000                	unimp
     eb6:	0000                	unimp
     eb8:	0144                	addi	s1,sp,132
     eba:	0000                	unimp
     ebc:	0000                	unimp
     ebe:	0000                	unimp
     ec0:	9c01                	subw	s0,s0,s0
     ec2:	4d12                	lw	s10,4(sp)
     ec4:	0b00000b          	0xb00000b
     ec8:	0008                	0x8
     eca:	1200                	addi	s0,sp,288
     ecc:	0b59                	addi	s6,s6,22
     ece:	0000                	unimp
     ed0:	0844                	addi	s1,sp,20
     ed2:	0000                	unimp
     ed4:	6512                	ld	a0,256(sp)
     ed6:	7d00000b          	0x7d00000b
     eda:	0008                	0x8
     edc:	1400                	addi	s0,sp,544
     ede:	0b71                	addi	s6,s6,28
     ee0:	0000                	unimp
     ee2:	7fb09103          	lh	sp,2043(ra)
     ee6:	4111                	li	sp,4
     ee8:	0000000b          	0xb
     eec:	000b7d3b          	0xb7d3b
     ef0:	3000                	fld	fs0,32(s0)
     ef2:	0001                	nop
     ef4:	d300                	sw	s0,32(a4)
     ef6:	1d00000f          	0x1d00000f
     efa:	0b7e                	slli	s6,s6,0x1f
     efc:	0000                	unimp
     efe:	08b6                	slli	a7,a7,0xd
     f00:	0000                	unimp
     f02:	883c                	0x883c
     f04:	8000000b          	0x8000000b
     f08:	0001                	nop
     f0a:	1d00                	addi	s0,sp,688
     f0c:	0b89                	addi	s7,s7,2
     f0e:	0000                	unimp
     f10:	00000927          	0x927
     f14:	000b953b          	sllw	a0,s7,zero
     f18:	c000                	sw	s0,0(s0)
     f1a:	0001                	nop
     f1c:	1000                	addi	s0,sp,32
     f1e:	1d00000f          	0x1d00000f
     f22:	0b96                	slli	s7,s7,0x5
     f24:	0000                	unimp
     f26:	0972                	slli	s2,s2,0x1c
     f28:	0000                	unimp
     f2a:	4c15                	li	s8,5
     f2c:	0002                	c.slli64	zero
     f2e:	0001                	nop
     f30:	0000                	unimp
     f32:	2000                	fld	fs0,0(s0)
     f34:	000d                	c.nop	3
     f36:	1600                	addi	s0,sp,800
     f38:	5a01                	li	s4,-32
     f3a:	3001                	0x3001
     f3c:	0000                	unimp
     f3e:	00021c17          	auipc	s8,0x21
     f42:	0001                	nop
     f44:	0000                	unimp
     f46:	2000                	fld	fs0,0(s0)
     f48:	000d                	c.nop	3
     f4a:	2c00                	fld	fs0,24(s0)
     f4c:	1600000f          	0x1600000f
     f50:	5a01                	li	s4,-32
     f52:	3001                	0x3001
     f54:	0116                	slli	sp,sp,0x5
     f56:	003d015b          	0x3d015b
     f5a:	00022817          	auipc	a6,0x22
     f5e:	0001                	nop
     f60:	0000                	unimp
     f62:	2000                	fld	fs0,0(s0)
     f64:	000d                	c.nop	3
     f66:	4800                	lw	s0,16(s0)
     f68:	1600000f          	0x1600000f
     f6c:	5a01                	li	s4,-32
     f6e:	3001                	0x3001
     f70:	0116                	slli	sp,sp,0x5
     f72:	003a015b          	0x3a015b
     f76:	00025c17          	auipc	s8,0x25
     f7a:	0001                	nop
     f7c:	0000                	unimp
     f7e:	2000                	fld	fs0,0(s0)
     f80:	000d                	c.nop	3
     f82:	6500                	ld	s0,8(a0)
     f84:	1600000f          	0x1600000f
     f88:	5a01                	li	s4,-32
     f8a:	3001                	0x3001
     f8c:	0116                	slli	sp,sp,0x5
     f8e:	3a08025b          	0x3a08025b
     f92:	1700                	addi	s0,sp,928
     f94:	0268                	addi	a0,sp,268
     f96:	0100                	addi	s0,sp,128
     f98:	0000                	unimp
     f9a:	0000                	unimp
     f9c:	0d20                	addi	s0,sp,664
     f9e:	0000                	unimp
     fa0:	0f82                	c.slli64	t6
     fa2:	0000                	unimp
     fa4:	0116                	slli	sp,sp,0x5
     fa6:	015a                	slli	sp,sp,0x16
     fa8:	1630                	addi	a2,sp,808
     faa:	5b01                	li	s6,-32
     fac:	0802                	c.slli64	a6
     fae:	0020                	addi	s0,sp,8
     fb0:	00028c17          	auipc	s8,0x28
     fb4:	0001                	nop
     fb6:	0000                	unimp
     fb8:	2000                	fld	fs0,0(s0)
     fba:	000d                	c.nop	3
     fbc:	9900                	0x9900
     fbe:	1600000f          	0x1600000f
     fc2:	5a01                	li	s4,-32
     fc4:	3001                	0x3001
     fc6:	1700                	addi	s0,sp,928
     fc8:	02a0                	addi	s0,sp,328
     fca:	0100                	addi	s0,sp,128
     fcc:	0000                	unimp
     fce:	0000                	unimp
     fd0:	0d20                	addi	s0,sp,664
     fd2:	0000                	unimp
     fd4:	0fb8                	addi	a4,sp,984
     fd6:	0000                	unimp
     fd8:	0116                	slli	sp,sp,0x5
     fda:	015a                	slli	sp,sp,0x16
     fdc:	1630                	addi	a2,sp,808
     fde:	5b01                	li	s6,-32
     fe0:	8204                	0x8204
     fe2:	9470                	0x9470
     fe4:	0001                	nop
     fe6:	ac15                	j	121a <__quad_stride-0xede6>
     fe8:	0002                	c.slli64	zero
     fea:	0001                	nop
     fec:	0000                	unimp
     fee:	2000                	fld	fs0,0(s0)
     ff0:	000d                	c.nop	3
     ff2:	1600                	addi	s0,sp,800
     ff4:	5a01                	li	s4,-32
     ff6:	3001                	0x3001
     ff8:	0116                	slli	sp,sp,0x5
     ffa:	2008025b          	0x2008025b
     ffe:	0000                	unimp
    1000:	1f00                	addi	s0,sp,944
    1002:	0dcd                	addi	s11,s11,19
    1004:	0000                	unimp
    1006:	01cc                	addi	a1,sp,196
    1008:	0100                	addi	s0,sp,128
    100a:	0000                	unimp
    100c:	0000                	unimp
    100e:	01f0                	addi	a2,sp,204
    1010:	0000                	unimp
    1012:	8101                	c.srli64	a0
    1014:	1b0d                	addi	s6,s6,-29
    1016:	0dde                	slli	s11,s11,0x17
    1018:	0000                	unimp
    101a:	000e2737          	lui	a4,0xe2
    101e:	d400                	sw	s0,40(s0)
    1020:	0001                	nop
    1022:	0001                	nop
    1024:	0000                	unimp
    1026:	0400                	addi	s0,sp,512
    1028:	0000                	unimp
    102a:	0000                	unimp
    102c:	0000                	unimp
    102e:	0100                	addi	s0,sp,128
    1030:	381b0c43          	fmadd.s	fs8,fs6,ft1,ft7,rne
    1034:	000e                	c.slli	zero,0x3
    1036:	0000                	unimp
    1038:	0000                	unimp
	...

Disassembly of section .debug_abbrev:

0000000000000000 <.debug_abbrev>:
   0:	1101                	addi	sp,sp,-32
   2:	1000                	addi	s0,sp,32
   4:	1106                	slli	sp,sp,0x21
   6:	1201                	addi	tp,tp,-32
   8:	0301                	addi	t1,t1,0
   a:	1b0e                	slli	s6,s6,0x23
   c:	250e                	fld	fa0,192(sp)
   e:	130e                	slli	t1,t1,0x23
  10:	0005                	c.nop	1
  12:	0000                	unimp
  14:	1101                	addi	sp,sp,-32
  16:	2501                	sext.w	a0,a0
  18:	130e                	slli	t1,t1,0x23
  1a:	1b0e030b          	0x1b0e030b
  1e:	110e                	slli	sp,sp,0x23
  20:	1201                	addi	tp,tp,-32
  22:	00171007          	0x171007
  26:	0200                	addi	s0,sp,256
  28:	0024                	addi	s1,sp,8
  2a:	0b3e0b0b          	0xb3e0b0b
  2e:	00000e03          	lb	t3,0(zero) # 0 <__quad_stride-0x10000>
  32:	0b002403          	lw	s0,176(zero) # b0 <__quad_stride-0xff50>
  36:	030b3e0b          	0x30b3e0b
  3a:	0008                	0x8
  3c:	0400                	addi	s0,sp,512
  3e:	0016                	c.slli	zero,0x5
  40:	0b3a0e03          	lb	t3,179(s4) # 70b3 <__quad_stride-0x8f4d>
  44:	0b390b3b          	0xb390b3b
  48:	1349                	addi	t1,t1,-14
  4a:	0000                	unimp
  4c:	2605                	addiw	a2,a2,1
  4e:	4900                	lw	s0,16(a0)
  50:	06000013          	li	zero,96
  54:	0035                	c.nop	13
  56:	1349                	addi	t1,t1,-14
  58:	0000                	unimp
  5a:	03003407          	fld	fs0,48(zero) # 30 <__quad_stride-0xffd0>
  5e:	3a0e                	fld	fs4,224(sp)
  60:	390b3b0b          	0x390b3b0b
  64:	3f13490b          	0x3f13490b
  68:	3c19                	addiw	s8,s8,-26
  6a:	0019                	c.nop	6
  6c:	0800                	addi	s0,sp,16
  6e:	0104                	addi	s1,sp,128
  70:	0b3e0e03          	lb	t3,179(t3) # 8c088f <__quad_stride+0x8b088f>
  74:	13490b0b          	0x13490b0b
  78:	0b3a                	slli	s6,s6,0xe
  7a:	0b390b3b          	0xb390b3b
  7e:	1301                	addi	t1,t1,-32
  80:	0000                	unimp
  82:	2809                	addiw	a6,a6,2
  84:	0300                	addi	s0,sp,384
  86:	1c0e                	slli	s8,s8,0x23
  88:	0a00000b          	0xa00000b
  8c:	012e                	slli	sp,sp,0xb
  8e:	0e03193f 0b3b0b3a 	0xb3b0b3a0e03193f
  96:	0b39                	addi	s6,s6,14
  98:	0111                	addi	sp,sp,4
  9a:	0712                	slli	a4,a4,0x4
  9c:	1840                	addi	s0,sp,52
  9e:	01194297          	auipc	t0,0x1194
  a2:	0b000013          	li	zero,176
  a6:	0034                	addi	a3,sp,8
  a8:	0b3a0e03          	lb	t3,179(s4)
  ac:	0b390b3b          	0xb390b3b
  b0:	1349                	addi	t1,t1,-14
  b2:	1702                	slli	a4,a4,0x20
  b4:	0000                	unimp
  b6:	340c                	fld	fa1,40(s0)
  b8:	0300                	addi	s0,sp,384
  ba:	3a0e                	fld	fs4,224(sp)
  bc:	390b3b0b          	0x390b3b0b
  c0:	0213490b          	0x213490b
  c4:	0018                	0x18
  c6:	0d00                	addi	s0,sp,656
  c8:	0034                	addi	a3,sp,8
  ca:	0b3a0e03          	lb	t3,179(s4)
  ce:	0b390b3b          	0xb390b3b
  d2:	1349                	addi	t1,t1,-14
  d4:	0b1c                	addi	a5,sp,400
  d6:	0000                	unimp
  d8:	0b0e                	slli	s6,s6,0x3
  da:	5501                	li	a0,-32
  dc:	00130117          	auipc	sp,0x130
  e0:	0f00                	addi	s0,sp,912
  e2:	0034                	addi	a3,sp,8
  e4:	0b3a0803          	lb	a6,179(s4)
  e8:	0b390b3b          	0xb390b3b
  ec:	1349                	addi	t1,t1,-14
  ee:	1702                	slli	a4,a4,0x20
  f0:	0000                	unimp
  f2:	1d10                	addi	a2,sp,688
  f4:	3101                	addiw	sp,sp,-32
  f6:	55015213          	0x55015213
  fa:	590b5817          	auipc	a6,0x590b5
  fe:	010b570b          	0x10b570b
 102:	11000013          	li	zero,272
 106:	0005                	c.nop	1
 108:	1331                	addi	t1,t1,-20
 10a:	0b1c                	addi	a5,sp,400
 10c:	0000                	unimp
 10e:	0512                	slli	a0,a0,0x4
 110:	3100                	fld	fs0,32(a0)
 112:	00170213          	addi	tp,a4,1 # e2001 <__quad_stride+0xd2001>
 116:	1300                	addi	s0,sp,416
 118:	1755010b          	0x1755010b
 11c:	0000                	unimp
 11e:	3414                	fld	fa3,40(s0)
 120:	3100                	fld	fs0,32(a0)
 122:	00180213          	addi	tp,a6,1 # 590b50fb <__quad_int_base+0x4e0b50fb>
 126:	1500                	addi	s0,sp,672
 128:	8289                	srli	a3,a3,0x2
 12a:	0101                	addi	sp,sp,0
 12c:	0111                	addi	sp,sp,4
 12e:	1331                	addi	t1,t1,-20
 130:	0000                	unimp
 132:	8a16                	mv	s4,t0
 134:	0182                	c.slli64	gp
 136:	0200                	addi	s0,sp,256
 138:	9118                	0x9118
 13a:	1842                	slli	a6,a6,0x30
 13c:	0000                	unimp
 13e:	01828917          	auipc	s2,0x1828
 142:	1101                	addi	sp,sp,-32
 144:	3101                	addiw	sp,sp,-32
 146:	00130113          	addi	sp,t1,1
 14a:	1800                	addi	s0,sp,48
 14c:	0005                	c.nop	1
 14e:	1331                	addi	t1,t1,-20
 150:	061c                	addi	a5,sp,768
 152:	0000                	unimp
 154:	3419                	addiw	s0,s0,-26
 156:	3100                	fld	fs0,32(a0)
 158:	000b1c13          	slli	s8,s6,0x0
 15c:	1a00                	addi	s0,sp,304
 15e:	011d                	addi	sp,sp,7
 160:	1331                	addi	t1,t1,-20
 162:	0111                	addi	sp,sp,4
 164:	0712                	slli	a4,a4,0x4
 166:	0b58                	addi	a4,sp,404
 168:	0b59                	addi	s6,s6,22
 16a:	13010b57          	0x13010b57
 16e:	0000                	unimp
 170:	3100051b          	addiw	a0,zero,784
 174:	1c000013          	li	zero,448
 178:	0111010b          	0x111010b
 17c:	0712                	slli	a4,a4,0x4
 17e:	0000                	unimp
 180:	341d                	addiw	s0,s0,-25
 182:	3100                	fld	fs0,32(a0)
 184:	00170213          	addi	tp,a4,1
 188:	1e00                	addi	s0,sp,816
 18a:	0034                	addi	a3,sp,8
 18c:	1331                	addi	t1,t1,-20
 18e:	0000                	unimp
 190:	1d1f 3101 5213      	0x521331011d1f
 196:	5501                	li	a0,-32
 198:	590b5817          	auipc	a6,0x590b5
 19c:	000b570b          	0xb570b
 1a0:	2000                	fld	fs0,0(s0)
 1a2:	0101                	addi	sp,sp,0
 1a4:	1349                	addi	t1,t1,-14
 1a6:	1301                	addi	t1,t1,-32
 1a8:	0000                	unimp
 1aa:	2121                	addiw	sp,sp,8
 1ac:	4900                	lw	s0,16(a0)
 1ae:	000b2f13          	slti	t5,s6,0
 1b2:	2200                	fld	fs0,0(a2)
 1b4:	0b0b000f          	0xb0b000f
 1b8:	1349                	addi	t1,t1,-14
 1ba:	0000                	unimp
 1bc:	3f012e23          	sw	a6,1020(sp) # 1304d8 <__quad_stride+0x1204d8>
 1c0:	0319                	addi	t1,t1,6
 1c2:	3a0e                	fld	fs4,224(sp)
 1c4:	390b3b0b          	0x390b3b0b
 1c8:	1119270b          	0x1119270b
 1cc:	1201                	addi	tp,tp,-32
 1ce:	97184007          	flq	ft0,-1679(a6) # 590b4b09 <__quad_int_base+0x4e0b4b09>
 1d2:	1942                	slli	s2,s2,0x30
 1d4:	1301                	addi	t1,t1,-32
 1d6:	0000                	unimp
 1d8:	0524                	addi	s1,sp,648
 1da:	0300                	addi	s0,sp,384
 1dc:	3a0e                	fld	fs4,224(sp)
 1de:	390b3b0b          	0x390b3b0b
 1e2:	0213490b          	0x213490b
 1e6:	0018                	0x18
 1e8:	2500                	fld	fs0,8(a0)
 1ea:	0005                	c.nop	1
 1ec:	0b3a0e03          	lb	t3,179(s4)
 1f0:	0b390b3b          	0xb390b3b
 1f4:	1349                	addi	t1,t1,-14
 1f6:	1702                	slli	a4,a4,0x20
 1f8:	0000                	unimp
 1fa:	8926                	mv	s2,s1
 1fc:	0182                	c.slli64	gp
 1fe:	1100                	addi	s0,sp,160
 200:	3101                	addiw	sp,sp,-32
 202:	27000013          	li	zero,624
 206:	001d                	c.nop	7
 208:	1331                	addi	t1,t1,-20
 20a:	0111                	addi	sp,sp,4
 20c:	0712                	slli	a4,a4,0x4
 20e:	0b58                	addi	a4,sp,404
 210:	0b59                	addi	s6,s6,22
 212:	00000b57          	0xb57
 216:	2128                	fld	fa0,64(a0)
 218:	4900                	lw	s0,16(a0)
 21a:	00052f13          	slti	t5,a0,0
 21e:	2900                	fld	fs0,16(a0)
 220:	002e                	c.slli	zero,0xb
 222:	0e03193f 0b3b0b3a 	0xb3b0b3a0e03193f
 22a:	0b39                	addi	s6,s6,14
 22c:	0b20                	addi	s0,sp,408
 22e:	0000                	unimp
 230:	2e2a                	fld	ft8,136(sp)
 232:	3f01                	addiw	t5,t5,-32
 234:	0319                	addi	t1,t1,6
 236:	3a0e                	fld	fs4,224(sp)
 238:	390b3b0b          	0x390b3b0b
 23c:	4919270b          	0x4919270b
 240:	12011113          	0x12011113
 244:	97184007          	flq	ft0,-1679(a6)
 248:	1942                	slli	s2,s2,0x30
 24a:	1301                	addi	t1,t1,-32
 24c:	0000                	unimp
 24e:	0300052b          	0x300052b
 252:	3a08                	fld	fa0,48(a2)
 254:	390b3b0b          	0x390b3b0b
 258:	0213490b          	0x213490b
 25c:	0018                	0x18
 25e:	2c00                	fld	fs0,24(s0)
 260:	0034                	addi	a3,sp,8
 262:	0b3a0803          	lb	a6,179(s4)
 266:	0b390b3b          	0xb390b3b
 26a:	1349                	addi	t1,t1,-14
 26c:	1802                	slli	a6,a6,0x20
 26e:	0000                	unimp
 270:	0f2d                	addi	t5,t5,11
 272:	0b00                	addi	s0,sp,400
 274:	2e00000b          	0x2e00000b
 278:	0026                	c.slli	zero,0x9
 27a:	0000                	unimp
 27c:	03012e2f          	amoadd.w.rl	t3,a6,(sp)
 280:	3a0e                	fld	fs4,224(sp)
 282:	390b3b0b          	0x390b3b0b
 286:	2019270b          	0x2019270b
 28a:	0013010b          	0x13010b
 28e:	3000                	fld	fs0,32(s0)
 290:	0005                	c.nop	1
 292:	0b3a0e03          	lb	t3,179(s4)
 296:	0b390b3b          	0xb390b3b
 29a:	1349                	addi	t1,t1,-14
 29c:	0000                	unimp
 29e:	0531                	addi	a0,a0,12
 2a0:	0300                	addi	s0,sp,384
 2a2:	3a08                	fld	fa0,48(a2)
 2a4:	390b3b0b          	0x390b3b0b
 2a8:	0013490b          	0x13490b
 2ac:	3200                	fld	fs0,32(a2)
 2ae:	0034                	addi	a3,sp,8
 2b0:	0b3a0803          	lb	a6,179(s4)
 2b4:	0b390b3b          	0xb390b3b
 2b8:	1349                	addi	t1,t1,-14
 2ba:	0000                	unimp
 2bc:	00010b33          	add	s6,sp,zero
 2c0:	3400                	fld	fs0,40(s0)
 2c2:	0034                	addi	a3,sp,8
 2c4:	0b3a0e03          	lb	t3,179(s4)
 2c8:	0b390b3b          	0xb390b3b
 2cc:	1349                	addi	t1,t1,-14
 2ce:	0000                	unimp
 2d0:	2e35                	addiw	t3,t3,13
 2d2:	0301                	addi	t1,t1,0
 2d4:	3a0e                	fld	fs4,224(sp)
 2d6:	390b3b0b          	0x390b3b0b
 2da:	1119270b          	0x1119270b
 2de:	1201                	addi	tp,tp,-32
 2e0:	97184007          	flq	ft0,-1679(a6)
 2e4:	1942                	slli	s2,s2,0x30
 2e6:	1301                	addi	t1,t1,-32
 2e8:	0000                	unimp
 2ea:	0536                	slli	a0,a0,0xd
 2ec:	0300                	addi	s0,sp,384
 2ee:	3a08                	fld	fa0,48(a2)
 2f0:	390b3b0b          	0x390b3b0b
 2f4:	0213490b          	0x213490b
 2f8:	37000017          	auipc	zero,0x37000
 2fc:	011d                	addi	sp,sp,7
 2fe:	1331                	addi	t1,t1,-20
 300:	0111                	addi	sp,sp,4
 302:	0712                	slli	a4,a4,0x4
 304:	0b58                	addi	a4,sp,404
 306:	0b59                	addi	s6,s6,22
 308:	00000b57          	0xb57
 30c:	2e38                	fld	fa4,88(a2)
 30e:	0301                	addi	t1,t1,0
 310:	3a0e                	fld	fs4,224(sp)
 312:	390b3b0b          	0x390b3b0b
 316:	4919270b          	0x4919270b
 31a:	12011113          	0x12011113
 31e:	97184007          	flq	ft0,-1679(a6)
 322:	1942                	slli	s2,s2,0x30
 324:	1301                	addi	t1,t1,-32
 326:	0000                	unimp
 328:	2e39                	addiw	t3,t3,14
 32a:	0301                	addi	t1,t1,0
 32c:	3a0e                	fld	fs4,224(sp)
 32e:	390b3b0b          	0x390b3b0b
 332:	4919270b          	0x4919270b
 336:	010b2013          	slti	zero,s6,16
 33a:	3a000013          	li	zero,928
 33e:	012e                	slli	sp,sp,0xb
 340:	1331                	addi	t1,t1,-20
 342:	0111                	addi	sp,sp,4
 344:	0712                	slli	a4,a4,0x4
 346:	1840                	addi	s0,sp,52
 348:	00194297          	auipc	t0,0x194
 34c:	3b00                	fld	fs0,48(a4)
 34e:	1331010b          	0x1331010b
 352:	1755                	addi	a4,a4,-11
 354:	1301                	addi	t1,t1,-32
 356:	0000                	unimp
 358:	0b3c                	addi	a5,sp,408
 35a:	3101                	addiw	sp,sp,-32
 35c:	00175513          	srli	a0,a4,0x1
	...

Disassembly of section .debug_aranges:

0000000000000000 <.debug_aranges>:
   0:	002c                	addi	a1,sp,8
   2:	0000                	unimp
   4:	0002                	c.slli64	zero
   6:	0000                	unimp
   8:	0000                	unimp
   a:	0008                	0x8
   c:	0000                	unimp
   e:	0000                	unimp
  10:	0000                	unimp
  12:	0100                	addi	s0,sp,128
  14:	0000                	unimp
  16:	0000                	unimp
  18:	0088                	addi	a0,sp,64
	...
  2e:	0000                	unimp
  30:	002c                	addi	a1,sp,8
  32:	0000                	unimp
  34:	0002                	c.slli64	zero
  36:	002e                	c.slli	zero,0xb
  38:	0000                	unimp
  3a:	0008                	0x8
  3c:	0000                	unimp
  3e:	0000                	unimp
  40:	0088                	addi	a0,sp,64
  42:	0100                	addi	s0,sp,128
  44:	0000                	unimp
  46:	0000                	unimp
  48:	0740                	addi	s0,sp,900
	...

Disassembly of section .debug_str:

0000000000000000 <.debug_str>:
   0:	6f62                	ld	t5,24(sp)
   2:	6f72746f          	jal	s0,27ef8 <__quad_stride+0x17ef8>
   6:	2e6d                	addiw	t3,t3,27
   8:	752f0053          	0x752f0053
   c:	73726573          	csrrsi	a0,0x737,4
  10:	63696d2f          	0x63696d2f
  14:	7361                	lui	t1,0xffff8
  16:	6564792f          	0x6564792f
  1a:	676e                	ld	a4,216(sp)
  1c:	7365442f          	0x7365442f
  20:	706f746b          	0x706f746b
  24:	414e532f          	0x414e532f
  28:	2f58                	fld	fa4,152(a4)
  2a:	6548                	ld	a0,136(a0)
  2c:	414d                	li	sp,19
  2e:	4169                	li	sp,26
  30:	7261742f          	0x7261742f
  34:	2f746567          	0x2f746567
  38:	7472                	ld	s0,312(sp)
  3a:	2f6c                	fld	fa1,216(a4)
  3c:	6f62                	ld	t5,24(sp)
  3e:	6f72746f          	jal	s0,27f34 <__quad_stride+0x17f34>
  42:	006d                	c.nop	27
  44:	20554e47          	fmsub.s	ft8,fa0,ft5,ft4,rmm
  48:	5341                	li	t1,-16
  4a:	3220                	fld	fs0,96(a2)
  4c:	332e                	fld	ft6,232(sp)
  4e:	0032                	c.slli	zero,0xc
  50:	7274                	ld	a3,224(a2)
  52:	6e61                	lui	t3,0x18
  54:	73696d73          	csrrsi	s10,0x736,18
  58:	6e6f6973          	csrrsi	s2,0x6e6,30
  5c:	655f 646e 6400      	0x6400646e655f
  62:	7365                	lui	t1,0xffff9
  64:	0074                	addi	a3,sp,12
  66:	7270                	ld	a2,224(a2)
  68:	6e69                	lui	t3,0x1a
  6a:	5f74                	lw	a3,124(a4)
  6c:	6175                	addi	sp,sp,368
  6e:	7472                	ld	s0,312(sp)
  70:	7500                	ld	s0,40(a0)
  72:	6e69                	lui	t3,0x1a
  74:	3674                	fld	fa3,232(a2)
  76:	5f34                	lw	a3,120(a4)
  78:	0074                	addi	a3,sp,12
  7a:	6574                	ld	a3,200(a0)
  7c:	706d                	c.lui	zero,0xffffb
  7e:	7300                	ld	s0,32(a4)
  80:	6f68                	ld	a0,216(a4)
  82:	7472                	ld	s0,312(sp)
  84:	6920                	ld	s0,80(a0)
  86:	746e                	ld	s0,248(sp)
  88:	6900                	ld	s0,16(a0)
  8a:	72745f73          	csrrwi	t5,0x727,8
  8e:	6e61                	lui	t3,0x18
  90:	74696d73          	csrrsi	s10,0x746,18
  94:	645f 6e6f 0065      	0x656e6f645f
  9a:	7369                	lui	t1,0xffffa
  9c:	645f 7461 5f61      	0x5f617461645f
  a2:	6572                	ld	a0,280(sp)
  a4:	6461                	lui	s0,0x18
  a6:	0079                	c.nop	30
  a8:	656d                	lui	a0,0x1b
  aa:	636d                	lui	t1,0x1b
  ac:	7970                	ld	a2,240(a0)
  ae:	6300                	ld	s0,0(a4)
  b0:	6968                	ld	a0,208(a0)
  b2:	5f70                	lw	a2,124(a4)
  b4:	6469                	lui	s0,0x1a
  b6:	7400                	ld	s0,40(s0)
  b8:	7261                	lui	tp,0xffff8
  ba:	5f746567          	0x5f746567
  be:	6c637963          	bgeu	t1,t1,790 <__quad_stride-0xf870>
  c2:	0065                	c.nop	25
  c4:	74697277          	0x74697277
  c8:	5f65                	li	t5,-7
  ca:	6572                	ld	a0,280(sp)
  cc:	38755f67          	0x38755f67
  d0:	4700                	lw	s0,8(a4)
  d2:	554e                	lw	a0,240(sp)
  d4:	4320                	lw	s0,64(a4)
  d6:	3731                	addiw	a4,a4,-20
  d8:	3820                	fld	fs0,112(s0)
  da:	332e                	fld	ft6,232(sp)
  dc:	302e                	fld	ft0,232(sp)
  de:	2d20                	fld	fs0,88(a0)
  e0:	6e6d                	lui	t3,0x1b
  e2:	61732d6f          	jal	s10,32ef8 <__quad_stride+0x22ef8>
  e6:	6576                	ld	a0,344(sp)
  e8:	722d                	lui	tp,0xfffeb
  ea:	7365                	lui	t1,0xffff9
  ec:	6f74                	ld	a3,216(a4)
  ee:	6572                	ld	a0,280(sp)
  f0:	2d20                	fld	fs0,88(a0)
  f2:	736d                	lui	t1,0xffffb
  f4:	7274                	ld	a3,224(a2)
  f6:	6369                	lui	t1,0x1a
  f8:	2d74                	fld	fa3,216(a0)
  fa:	6c61                	lui	s8,0x18
  fc:	6769                	lui	a4,0x1a
  fe:	206e                	fld	ft0,216(sp)
 100:	6d2d                	lui	s10,0xb
 102:	6261                	lui	tp,0x18
 104:	3d69                	addiw	s10,s10,-6
 106:	706c                	ld	a1,224(s0)
 108:	3436                	fld	fs0,360(sp)
 10a:	2064                	fld	fs1,192(s0)
 10c:	6d2d                	lui	s10,0xb
 10e:	7261                	lui	tp,0xffff8
 110:	723d6863          	bltu	s10,gp,840 <__quad_stride-0xf7c0>
 114:	3676                	fld	fa2,376(sp)
 116:	6934                	ld	a3,80(a0)
 118:	616d                	addi	sp,sp,240
 11a:	6466                	ld	s0,88(sp)
 11c:	2d20                	fld	fs0,88(a0)
 11e:	636d                	lui	t1,0x1b
 120:	6f6d                	lui	t5,0x1b
 122:	6564                	ld	s1,200(a0)
 124:	3d6c                	fld	fa1,248(a0)
 126:	656d                	lui	a0,0x1b
 128:	6164                	ld	s1,192(a0)
 12a:	796e                	ld	s2,248(sp)
 12c:	2d20                	fld	fs0,88(a0)
 12e:	4f2d2067          	0x4f2d2067
 132:	662d2073          	csrs	0x662,s10
 136:	7266                	ld	tp,120(sp)
 138:	6565                	lui	a0,0x19
 13a:	6e617473          	csrrci	s0,0x6e6,2
 13e:	6964                	ld	s1,208(a0)
 140:	676e                	ld	a4,216(sp)
 142:	2d20                	fld	fs0,88(a0)
 144:	6e66                	ld	t3,88(sp)
 146:	74732d6f          	jal	s10,3308c <__quad_stride+0x2308c>
 14a:	6972                	ld	s2,280(sp)
 14c:	612d7463          	bgeu	s10,s2,754 <__quad_stride-0xf8ac>
 150:	696c                	ld	a1,208(a0)
 152:	7361                	lui	t1,0xffff8
 154:	6e69                	lui	t3,0x1a
 156:	662d2067          	0x662d2067
 15a:	6f6e                	ld	t5,216(sp)
 15c:	6f2d                	lui	t5,0xb
 15e:	696d                	lui	s2,0x1b
 160:	2d74                	fld	fa3,216(a0)
 162:	7266                	ld	tp,120(sp)
 164:	6d61                	lui	s10,0x18
 166:	2d65                	addiw	s10,s10,25
 168:	6f70                	ld	a2,216(a4)
 16a:	6e69                	lui	t3,0x1a
 16c:	6574                	ld	a3,200(a0)
 16e:	2072                	fld	ft0,280(sp)
 170:	662d                	lui	a2,0xb
 172:	6f6e                	ld	t5,216(sp)
 174:	6f2d                	lui	t5,0xb
 176:	7470                	ld	a2,232(s0)
 178:	6d69                	lui	s10,0x1a
 17a:	7a69                	lui	s4,0xffffa
 17c:	2d65                	addiw	s10,s10,25
 17e:	6c626973          	csrrsi	s2,0x6c6,4
 182:	6e69                	lui	t3,0x1a
 184:	61632d67          	0x61632d67
 188:	6c6c                	ld	a1,216(s0)
 18a:	662d2073          	csrs	0x662,s10
 18e:	6f6e                	ld	t5,216(sp)
 190:	732d                	lui	t1,0xfffeb
 192:	6174                	ld	a3,192(a0)
 194:	702d6b63          	bltu	s10,sp,8aa <__quad_stride-0xf756>
 198:	6f72                	ld	t5,280(sp)
 19a:	6574                	ld	a3,200(a0)
 19c:	726f7463          	bgeu	t5,t1,8c4 <__quad_stride-0xf73c>
 1a0:	2d20                	fld	fs0,88(a0)
 1a2:	5066                	0x5066
 1a4:	4549                	li	a0,18
 1a6:	7500                	ld	s0,40(a0)
 1a8:	6e69                	lui	t3,0x1a
 1aa:	3874                	fld	fa3,240(s0)
 1ac:	745f 7200 6365      	0x63657200745f
 1b2:	6965                	lui	s2,0x19
 1b4:	6576                	ld	a0,344(sp)
 1b6:	5f64                	lw	s1,124(a4)
 1b8:	72616863          	bltu	sp,t1,8e8 <__quad_stride-0xf718>
 1bc:	7300                	ld	s0,32(a4)
 1be:	6174                	ld	a3,192(a0)
 1c0:	7472                	ld	s0,312(sp)
 1c2:	615f 6464 6572      	0x65726464615f
 1c8:	75007373          	csrrci	t1,0x750,0
 1cc:	6e69                	lui	t3,0x1a
 1ce:	7074                	ld	a3,224(s0)
 1d0:	7274                	ld	a3,224(a2)
 1d2:	745f 7700 6972      	0x69727700745f
 1d8:	6574                	ld	a3,200(a0)
 1da:	735f 7265 6169      	0x61697265735f
 1e0:	006c                	addi	a1,sp,12
 1e2:	6572                	ld	a0,280(sp)
 1e4:	76696563          	bltu	s2,t1,94e <__quad_stride-0xf6b2>
 1e8:	6465                	lui	s0,0x19
 1ea:	705f 7261 7469      	0x74697261705f
 1f0:	0079                	c.nop	30
 1f2:	6175                	addi	sp,sp,368
 1f4:	7472                	ld	s0,312(sp)
 1f6:	785f 6f6d 6564      	0x65646f6d785f
 1fc:	006d                	c.nop	27
 1fe:	7266                	ld	tp,120(sp)
 200:	7165                	addi	sp,sp,-400
 202:	5000                	lw	s0,32(s0)
 204:	4952                	lw	s2,20(sp)
 206:	544e                	lw	s0,240(sp)
 208:	454d                	li	a0,19
 20a:	004d                	c.nop	19
 20c:	6f6c                	ld	a1,216(a4)
 20e:	676e                	ld	a4,216(sp)
 210:	6920                	ld	s0,80(a0)
 212:	746e                	ld	s0,248(sp)
 214:	6300                	ld	s0,0(a4)
 216:	7275                	lui	tp,0xffffd
 218:	6572                	ld	a0,280(sp)
 21a:	746e                	ld	s0,248(sp)
 21c:	635f 6379 656c      	0x656c6379635f
 222:	5500                	lw	s0,40(a0)
 224:	5241                	li	tp,-16
 226:	0054                	addi	a3,sp,4
 228:	7270                	ld	a2,224(a2)
 22a:	6e69                	lui	t3,0x1a
 22c:	5f74                	lw	a3,124(a4)
 22e:	6175                	addi	sp,sp,368
 230:	7472                	ld	s0,312(sp)
 232:	685f 7865 7200      	0x72007865685f
 238:	6165                	addi	sp,sp,112
 23a:	5f64                	lw	s1,124(a4)
 23c:	69726573          	csrrsi	a0,0x697,4
 240:	6c61                	lui	s8,0x18
 242:	6200                	ld	s0,0(a2)
 244:	7561                	lui	a0,0xffff8
 246:	0064                	addi	s1,sp,12
 248:	6e75                	lui	t3,0x1d
 24a:	6e676973          	csrrsi	s2,0x6e6,14
 24e:	6465                	lui	s0,0x19
 250:	6320                	ld	s0,64(a4)
 252:	6168                	ld	a0,192(a0)
 254:	0072                	c.slli	zero,0x1c
 256:	6170                	ld	a2,192(a0)
 258:	74656b63          	bltu	a0,t1,9ae <__quad_stride-0xf652>
 25c:	635f 6d6f 6c70      	0x6c706d6f635f
 262:	6d65                	lui	s10,0x19
 264:	6e65                	lui	t3,0x19
 266:	0074                	addi	a3,sp,12
 268:	6f62                	ld	t5,24(sp)
 26a:	6d5f746f          	jal	s0,f813e <__quad_stride+0xe813e>
 26e:	0065646f          	jal	s0,56274 <__quad_stride+0x46274>
 272:	6975                	lui	s2,0x1d
 274:	746e                	ld	s0,248(sp)
 276:	745f3233          	0x745f3233
 27a:	6900                	ld	s0,16(a0)
 27c:	72745f73          	csrrwi	t5,0x727,8
 280:	6e61                	lui	t3,0x18
 282:	74696d73          	csrrsi	s10,0x746,18
 286:	655f 706d 7974      	0x7974706d655f
 28c:	7500                	ld	s0,40(a0)
 28e:	6e69                	lui	t3,0x1a
 290:	3174                	fld	fa3,224(a0)
 292:	5f36                	lw	t5,108(sp)
 294:	0074                	addi	a3,sp,12
 296:	636c6163          	bltu	s8,s6,8b8 <__quad_stride-0xf748>
 29a:	6c75                	lui	s8,0x1d
 29c:	7461                	lui	s0,0xffff8
 29e:	6465                	lui	s0,0x19
 2a0:	705f 7261 7469      	0x74697261705f
 2a6:	0079                	c.nop	30
 2a8:	6e69                	lui	t3,0x1a
 2aa:	625f 6675 6d00      	0x6d006675625f
 2b0:	6d65                	lui	s10,0x19
 2b2:	5f79726f          	jal	tp,980a8 <__quad_stride+0x880a8>
 2b6:	656c                	ld	a1,200(a0)
 2b8:	676e                	ld	a4,216(sp)
 2ba:	6874                	ld	a3,208(s0)
 2bc:	7300                	ld	s0,32(a4)
 2be:	6f68                	ld	a0,216(a4)
 2c0:	7472                	ld	s0,312(sp)
 2c2:	7520                	ld	s0,104(a0)
 2c4:	736e                	ld	t1,248(sp)
 2c6:	6769                	lui	a4,0x1a
 2c8:	656e                	ld	a0,216(sp)
 2ca:	2064                	fld	fs1,192(s0)
 2cc:	6e69                	lui	t3,0x1a
 2ce:	0074                	addi	a3,sp,12
 2d0:	6c66                	ld	s8,88(sp)
 2d2:	7375                	lui	t1,0xffffd
 2d4:	5f68                	lw	a0,124(a4)
 2d6:	68636163          	bltu	t1,t1,958 <__quad_stride-0xf6a8>
 2da:	0065                	c.nop	25
 2dc:	6e69                	lui	t3,0x1a
 2de:	7469                	lui	s0,0xffffa
 2e0:	755f 7261 0074      	0x747261755f
 2e6:	706d6f63          	bltu	s10,t1,a04 <__quad_stride-0xf5fc>
 2ea:	7475                	lui	s0,0xffffd
 2ec:	5f65                	li	t5,-7
 2ee:	6170                	ld	a2,192(a0)
 2f0:	6972                	ld	s2,280(sp)
 2f2:	7974                	ld	a3,240(a0)
 2f4:	6400                	ld	s0,8(s0)
 2f6:	7461                	lui	s0,0xffff8
 2f8:	0061                	c.nop	24
 2fa:	6f6c                	ld	a1,216(a4)
 2fc:	676e                	ld	a4,216(sp)
 2fe:	7520                	ld	s0,104(a0)
 300:	736e                	ld	t1,248(sp)
 302:	6769                	lui	a4,0x1a
 304:	656e                	ld	a0,216(sp)
 306:	2064                	fld	fs1,192(s0)
 308:	6e69                	lui	t3,0x1a
 30a:	0074                	addi	a3,sp,12
 30c:	72727563          	bgeu	tp,t2,a36 <__quad_stride-0xf5ca>
 310:	6e65                	lui	t3,0x19
 312:	5f74                	lw	a3,124(a4)
 314:	7366666f          	jal	a2,66a4a <__quad_stride+0x56a4a>
 318:	7465                	lui	s0,0xffff9
 31a:	4a00                	lw	s0,16(a2)
 31c:	4154                	lw	a3,4(a0)
 31e:	65640047          	0x65640047
 322:	616c                	ld	a1,192(a0)
 324:	5f79                	li	t5,-2
 326:	6c637963          	bgeu	t1,t1,9f8 <__quad_stride-0xf608>
 32a:	7365                	lui	t1,0xffff9
 32c:	6100                	ld	s0,0(a0)
 32e:	7475                	lui	s0,0xffffd
 330:	72775f6f          	jal	t5,76256 <__quad_stride+0x66256>
 334:	7061                	c.lui	zero,0xffff8
 336:	5f00                	lw	s0,56(a4)
 338:	625f 7361 5f65      	0x5f657361625f
 33e:	6175                	addi	sp,sp,368
 340:	7472                	ld	s0,312(sp)
 342:	735f 6d79 7000      	0x70006d79735f
 348:	6361                	lui	t1,0x18
 34a:	5f74656b          	0x5f74656b
 34e:	756e                	ld	a0,248(sp)
 350:	626d                	lui	tp,0x1b
 352:	7265                	lui	tp,0xffff9
 354:	6c00                	ld	s0,24(s0)
 356:	615f636f          	jal	t1,f716a <__quad_stride+0xe716a>
 35a:	6464                	ld	s1,200(s0)
 35c:	0072                	c.slli	zero,0x1c
 35e:	6572                	ld	a0,280(sp)
 360:	6461                	lui	s0,0x18
 362:	725f 6765 755f      	0x755f6765725f
 368:	0038                	addi	a4,sp,8
 36a:	6f62                	ld	t5,24(sp)
 36c:	6d5f746f          	jal	s0,f8240 <__quad_stride+0xe8240>
 370:	5f65646f          	jal	s0,56966 <__quad_stride+0x46966>
 374:	0074                	addi	a3,sp,12
 376:	6461                	lui	s0,0x18
 378:	7264                	ld	s1,224(a2)
 37a:	7365                	lui	t1,0xffff9
 37c:	72705f73          	csrrwi	t5,0x727,0
 380:	6665                	lui	a2,0x19
 382:	7869                	lui	a6,0xffffa
 384:	6400                	ld	s0,8(s0)
 386:	7669                	lui	a2,0xffffa
 388:	7369                	lui	t1,0xffffa
 38a:	6900726f          	jal	tp,7a1a <__quad_stride-0x85e6>
 38e:	646e                	ld	s0,216(sp)
 390:	7865                	lui	a6,0xffff9
 392:	7300                	ld	s0,32(a4)
 394:	6372                	ld	t1,280(sp)
 396:	6f6f622f          	0x6f6f622f
 39a:	7274                	ld	a3,224(a2)
 39c:	632e6d6f          	jal	s10,e69ce <__quad_stride+0xd69ce>
 3a0:	7600                	ld	s0,40(a2)
 3a2:	6c61                	lui	s8,0x18
 3a4:	6575                	lui	a0,0x1d
 3a6:	7300                	ld	s0,32(a4)
 3a8:	5f6e6163          	bltu	t3,s6,98a <__quad_stride-0xf676>
 3ac:	6175                	addi	sp,sp,368
 3ae:	7472                	ld	s0,312(sp)
 3b0:	4e00                	lw	s0,24(a2)
 3b2:	414d524f          	fnmadd.s	ft4,fs10,fs4,fs0,unknown
 3b6:	004c                	addi	a1,sp,4

Disassembly of section .debug_loc:

0000000000000000 <.debug_loc>:
   0:	043c                	addi	a5,sp,520
   2:	0000                	unimp
   4:	0000                	unimp
   6:	0000                	unimp
   8:	04e4                	addi	s1,sp,588
   a:	0000                	unimp
   c:	0000                	unimp
   e:	0000                	unimp
  10:	0002                	c.slli64	zero
  12:	9f30                	0x9f30
	...
  24:	06c0                	addi	s0,sp,836
  26:	0000                	unimp
  28:	0000                	unimp
  2a:	0000                	unimp
  2c:	0724                	addi	s1,sp,904
  2e:	0000                	unimp
  30:	0000                	unimp
  32:	0000                	unimp
  34:	0001                	nop
  36:	2c59                	addiw	s8,s8,22
  38:	00000007          	0x7
  3c:	0000                	unimp
  3e:	3000                	fld	fs0,32(s0)
  40:	00000007          	0x7
  44:	0000                	unimp
  46:	0100                	addi	s0,sp,128
  48:	5900                	lw	s0,48(a0)
  4a:	073c                	addi	a5,sp,904
  4c:	0000                	unimp
  4e:	0000                	unimp
  50:	0000                	unimp
  52:	0740                	addi	s0,sp,900
  54:	0000                	unimp
  56:	0000                	unimp
  58:	0000                	unimp
  5a:	0001                	nop
  5c:	0059                	c.nop	22
	...
  6a:	0000                	unimp
  6c:	c000                	sw	s0,0(s0)
  6e:	0006                	c.slli	zero,0x1
  70:	0000                	unimp
  72:	0000                	unimp
  74:	d700                	sw	s0,40(a4)
  76:	0006                	c.slli	zero,0x1
  78:	0000                	unimp
  7a:	0000                	unimp
  7c:	0100                	addi	s0,sp,128
  7e:	5f00                	lw	s0,56(a4)
  80:	072c                	addi	a1,sp,904
  82:	0000                	unimp
  84:	0000                	unimp
  86:	0000                	unimp
  88:	0734                	addi	a3,sp,904
  8a:	0000                	unimp
  8c:	0000                	unimp
  8e:	0000                	unimp
  90:	0001                	nop
  92:	345f 0007 0000      	0x7345f
  98:	0000                	unimp
  9a:	3c00                	fld	fs0,56(s0)
  9c:	00000007          	0x7
  a0:	0000                	unimp
  a2:	0300                	addi	s0,sp,384
  a4:	7f00                	ld	s0,56(a4)
  a6:	9f7f                	0x9f7f
  a8:	073c                	addi	a5,sp,904
  aa:	0000                	unimp
  ac:	0000                	unimp
  ae:	0000                	unimp
  b0:	0740                	addi	s0,sp,900
  b2:	0000                	unimp
  b4:	0000                	unimp
  b6:	0000                	unimp
  b8:	0001                	nop
  ba:	005f 0000 0000      	0x5f
	...
  c8:	0000                	unimp
  ca:	9800                	0x9800
  cc:	0006                	c.slli	zero,0x1
  ce:	0000                	unimp
  d0:	0000                	unimp
  d2:	a000                	fsd	fs0,0(s0)
  d4:	0006                	c.slli	zero,0x1
  d6:	0000                	unimp
  d8:	0000                	unimp
  da:	0100                	addi	s0,sp,128
  dc:	6a00                	ld	s0,16(a2)
  de:	06a0                	addi	s0,sp,840
  e0:	0000                	unimp
  e2:	0000                	unimp
  e4:	0000                	unimp
  e6:	06bc                	addi	a5,sp,840
  e8:	0000                	unimp
  ea:	0000                	unimp
  ec:	0000                	unimp
  ee:	0001                	nop
  f0:	bc59                	j	fffffffffffffb86 <__stack_pointer$+0xffffffff8ffdfb8e>
  f2:	0006                	c.slli	zero,0x1
  f4:	0000                	unimp
  f6:	0000                	unimp
  f8:	c000                	sw	s0,0(s0)
  fa:	0006                	c.slli	zero,0x1
  fc:	0000                	unimp
  fe:	0000                	unimp
 100:	0100                	addi	s0,sp,128
 102:	5f00                	lw	s0,56(a4)
 104:	06c0                	addi	s0,sp,836
 106:	0000                	unimp
 108:	0000                	unimp
 10a:	0000                	unimp
 10c:	0724                	addi	s1,sp,904
 10e:	0000                	unimp
 110:	0000                	unimp
 112:	0000                	unimp
 114:	0004                	0x4
 116:	8878                	0x8878
 118:	9f7f                	0x9f7f
 11a:	0724                	addi	s1,sp,904
 11c:	0000                	unimp
 11e:	0000                	unimp
 120:	0000                	unimp
 122:	072c                	addi	a1,sp,904
 124:	0000                	unimp
 126:	0000                	unimp
 128:	0000                	unimp
 12a:	0001                	nop
 12c:	2c59                	addiw	s8,s8,22
 12e:	00000007          	0x7
 132:	0000                	unimp
 134:	4000                	lw	s0,0(s0)
 136:	00000007          	0x7
 13a:	0000                	unimp
 13c:	0400                	addi	s0,sp,512
 13e:	7800                	ld	s0,48(s0)
 140:	7f88                	ld	a0,56(a5)
 142:	009f 0000 0000      	0x9f
	...
 150:	0000                	unimp
 152:	8800                	0x8800
 154:	0004                	0x4
 156:	0000                	unimp
 158:	0000                	unimp
 15a:	8c00                	0x8c00
 15c:	0004                	0x4
 15e:	0000                	unimp
 160:	0000                	unimp
 162:	0200                	addi	s0,sp,256
 164:	3000                	fld	fs0,32(s0)
 166:	009f 0000 0000      	0x9f
	...
 174:	0000                	unimp
 176:	8800                	0x8800
 178:	0004                	0x4
 17a:	0000                	unimp
 17c:	0000                	unimp
 17e:	8c00                	0x8c00
 180:	0004                	0x4
 182:	0000                	unimp
 184:	0000                	unimp
 186:	0300                	addi	s0,sp,384
 188:	7f00                	ld	s0,56(a4)
 18a:	9f04                	0x9f04
	...
 19c:	048c                	addi	a1,sp,576
 19e:	0000                	unimp
 1a0:	0000                	unimp
 1a2:	0000                	unimp
 1a4:	0494                	addi	a3,sp,576
 1a6:	0000                	unimp
 1a8:	0000                	unimp
 1aa:	0000                	unimp
 1ac:	80090003          	lb	zero,-2048(s2) # 1c800 <__quad_stride+0xc800>
 1b0:	009f 0000 0000      	0x9f
	...
 1be:	0000                	unimp
 1c0:	8c00                	0x8c00
 1c2:	0004                	0x4
 1c4:	0000                	unimp
 1c6:	0000                	unimp
 1c8:	9400                	0x9400
 1ca:	0004                	0x4
 1cc:	0000                	unimp
 1ce:	0000                	unimp
 1d0:	0300                	addi	s0,sp,384
 1d2:	7f00                	ld	s0,56(a4)
 1d4:	9f0c                	0x9f0c
	...
 1e6:	0494                	addi	a3,sp,576
 1e8:	0000                	unimp
 1ea:	0000                	unimp
 1ec:	0000                	unimp
 1ee:	049c                	addi	a5,sp,576
 1f0:	0000                	unimp
 1f2:	0000                	unimp
 1f4:	0000                	unimp
 1f6:	0002                	c.slli64	zero
 1f8:	00009f33          	sll	t5,ra,zero
	...
 208:	0000                	unimp
 20a:	049c                	addi	a5,sp,576
 20c:	0000                	unimp
 20e:	0000                	unimp
 210:	0000                	unimp
 212:	04a0                	addi	s0,sp,584
 214:	0000                	unimp
 216:	0000                	unimp
 218:	0000                	unimp
 21a:	0002                	c.slli64	zero
 21c:	9f30                	0x9f30
	...
 22e:	049c                	addi	a5,sp,576
 230:	0000                	unimp
 232:	0000                	unimp
 234:	0000                	unimp
 236:	04a0                	addi	s0,sp,584
 238:	0000                	unimp
 23a:	0000                	unimp
 23c:	0000                	unimp
 23e:	047f0003          	lb	zero,71(t5) # b047 <__quad_stride-0x4fb9>
 242:	009f 0000 0000      	0x9f
	...
 250:	0000                	unimp
 252:	a000                	fsd	fs0,0(s0)
 254:	0004                	0x4
 256:	0000                	unimp
 258:	0000                	unimp
 25a:	a400                	fsd	fs0,8(s0)
 25c:	0004                	0x4
 25e:	0000                	unimp
 260:	0000                	unimp
 262:	0200                	addi	s0,sp,256
 264:	3300                	fld	fs0,32(a4)
 266:	009f 0000 0000      	0x9f
	...
 274:	0000                	unimp
 276:	a000                	fsd	fs0,0(s0)
 278:	0004                	0x4
 27a:	0000                	unimp
 27c:	0000                	unimp
 27e:	a400                	fsd	fs0,8(s0)
 280:	0004                	0x4
 282:	0000                	unimp
 284:	0000                	unimp
 286:	0300                	addi	s0,sp,384
 288:	7f00                	ld	s0,56(a4)
 28a:	9f0c                	0x9f0c
	...
 29c:	04a4                	addi	s1,sp,584
 29e:	0000                	unimp
 2a0:	0000                	unimp
 2a2:	0000                	unimp
 2a4:	04ac                	addi	a1,sp,584
 2a6:	0000                	unimp
 2a8:	0000                	unimp
 2aa:	0000                	unimp
 2ac:	c7090003          	lb	zero,-912(s2)
 2b0:	009f 0000 0000      	0x9f
	...
 2be:	0000                	unimp
 2c0:	a400                	fsd	fs0,8(s0)
 2c2:	0004                	0x4
 2c4:	0000                	unimp
 2c6:	0000                	unimp
 2c8:	ac00                	fsd	fs0,24(s0)
 2ca:	0004                	0x4
 2cc:	0000                	unimp
 2ce:	0000                	unimp
 2d0:	0300                	addi	s0,sp,384
 2d2:	7f00                	ld	s0,56(a4)
 2d4:	9f08                	0x9f08
	...
 2e6:	04ac                	addi	a1,sp,584
 2e8:	0000                	unimp
 2ea:	0000                	unimp
 2ec:	0000                	unimp
 2ee:	04b8                	addi	a4,sp,584
 2f0:	0000                	unimp
 2f2:	0000                	unimp
 2f4:	0000                	unimp
 2f6:	22080003          	lb	zero,544(a6) # ffffffffffff9220 <__stack_pointer$+0xffffffff8ffd9228>
 2fa:	009f 0000 0000      	0x9f
	...
 308:	0000                	unimp
 30a:	ac00                	fsd	fs0,24(s0)
 30c:	0004                	0x4
 30e:	0000                	unimp
 310:	0000                	unimp
 312:	b800                	fsd	fs0,48(s0)
 314:	0004                	0x4
 316:	0000                	unimp
 318:	0000                	unimp
 31a:	0300                	addi	s0,sp,384
 31c:	7f00                	ld	s0,56(a4)
 31e:	9f10                	0x9f10
	...
 330:	02a8                	addi	a0,sp,328
 332:	0000                	unimp
 334:	0000                	unimp
 336:	0000                	unimp
 338:	000002eb          	0x2eb
 33c:	0000                	unimp
 33e:	0000                	unimp
 340:	0001                	nop
 342:	eb5a                	sd	s6,400(sp)
 344:	0002                	c.slli64	zero
 346:	0000                	unimp
 348:	0000                	unimp
 34a:	3400                	fld	fs0,40(s0)
 34c:	00000003          	lb	zero,0(zero) # 0 <__quad_stride-0x10000>
 350:	0000                	unimp
 352:	0100                	addi	s0,sp,128
 354:	5900                	lw	s0,48(a0)
 356:	0334                	addi	a3,sp,392
 358:	0000                	unimp
 35a:	0000                	unimp
 35c:	0000                	unimp
 35e:	0358                	addi	a4,sp,388
 360:	0000                	unimp
 362:	0000                	unimp
 364:	0000                	unimp
 366:	0004                	0x4
 368:	9f5a01f3          	0x9f5a01f3
 36c:	0358                	addi	a4,sp,388
 36e:	0000                	unimp
 370:	0000                	unimp
 372:	0000                	unimp
 374:	0410                	addi	a2,sp,512
 376:	0000                	unimp
 378:	0000                	unimp
 37a:	0000                	unimp
 37c:	0001                	nop
 37e:	0059                	c.nop	22
	...
 38c:	0000                	unimp
 38e:	a800                	fsd	fs0,16(s0)
 390:	0002                	c.slli64	zero
 392:	0000                	unimp
 394:	0000                	unimp
 396:	e000                	sd	s0,0(s0)
 398:	0002                	c.slli64	zero
 39a:	0000                	unimp
 39c:	0000                	unimp
 39e:	0100                	addi	s0,sp,128
 3a0:	5b00                	lw	s0,48(a4)
 3a2:	02e0                	addi	s0,sp,332
 3a4:	0000                	unimp
 3a6:	0000                	unimp
 3a8:	0000                	unimp
 3aa:	0350                	addi	a2,sp,388
 3ac:	0000                	unimp
 3ae:	0000                	unimp
 3b0:	0000                	unimp
 3b2:	0001                	nop
 3b4:	5068                	lw	a0,100(s0)
 3b6:	00000003          	lb	zero,0(zero) # 0 <__quad_stride-0x10000>
 3ba:	0000                	unimp
 3bc:	5800                	lw	s0,48(s0)
 3be:	00000003          	lb	zero,0(zero) # 0 <__quad_stride-0x10000>
 3c2:	0000                	unimp
 3c4:	0400                	addi	s0,sp,512
 3c6:	f300                	sd	s0,32(a4)
 3c8:	5b01                	li	s6,-32
 3ca:	589f 0003 0000      	0x3589f
 3d0:	0000                	unimp
 3d2:	1000                	addi	s0,sp,32
 3d4:	0004                	0x4
 3d6:	0000                	unimp
 3d8:	0000                	unimp
 3da:	0100                	addi	s0,sp,128
 3dc:	6800                	ld	s0,16(s0)
	...
 3ee:	0304                	addi	s1,sp,384
 3f0:	0000                	unimp
 3f2:	0000                	unimp
 3f4:	0000                	unimp
 3f6:	030c                	addi	a1,sp,384
 3f8:	0000                	unimp
 3fa:	0000                	unimp
 3fc:	0000                	unimp
 3fe:	0001                	nop
 400:	585a                	lw	a6,180(sp)
 402:	00000003          	lb	zero,0(zero) # 0 <__quad_stride-0x10000>
 406:	0000                	unimp
 408:	6c00                	ld	s0,24(s0)
 40a:	00000003          	lb	zero,0(zero) # 0 <__quad_stride-0x10000>
 40e:	0000                	unimp
 410:	0100                	addi	s0,sp,128
 412:	5a00                	lw	s0,48(a2)
	...
 424:	02ec                	addi	a1,sp,332
 426:	0000                	unimp
 428:	0000                	unimp
 42a:	0000                	unimp
 42c:	02f8                	addi	a4,sp,332
 42e:	0000                	unimp
 430:	0000                	unimp
 432:	0000                	unimp
 434:	0002                	c.slli64	zero
 436:	9f30                	0x9f30
 438:	02f8                	addi	a4,sp,332
 43a:	0000                	unimp
 43c:	0000                	unimp
 43e:	0000                	unimp
 440:	0340                	addi	s0,sp,388
 442:	0000                	unimp
 444:	0000                	unimp
 446:	0000                	unimp
 448:	0001                	nop
 44a:	5864                	lw	s1,116(s0)
 44c:	00000003          	lb	zero,0(zero) # 0 <__quad_stride-0x10000>
 450:	0000                	unimp
 452:	e800                	sd	s0,16(s0)
 454:	00000003          	lb	zero,0(zero) # 0 <__quad_stride-0x10000>
 458:	0000                	unimp
 45a:	0100                	addi	s0,sp,128
 45c:	6400                	ld	s0,8(s0)
 45e:	03ec                	addi	a1,sp,460
 460:	0000                	unimp
 462:	0000                	unimp
 464:	0000                	unimp
 466:	0410                	addi	a2,sp,512
 468:	0000                	unimp
 46a:	0000                	unimp
 46c:	0000                	unimp
 46e:	0001                	nop
 470:	0064                	addi	s1,sp,12
	...
 47e:	0000                	unimp
 480:	7400                	ld	s0,40(s0)
 482:	00000003          	lb	zero,0(zero) # 0 <__quad_stride-0x10000>
 486:	0000                	unimp
 488:	8c00                	0x8c00
 48a:	00000003          	lb	zero,0(zero) # 0 <__quad_stride-0x10000>
 48e:	0000                	unimp
 490:	0100                	addi	s0,sp,128
 492:	6200                	ld	s0,0(a2)
	...
 4a4:	037c                	addi	a5,sp,396
 4a6:	0000                	unimp
 4a8:	0000                	unimp
 4aa:	0000                	unimp
 4ac:	0380                	addi	s0,sp,448
 4ae:	0000                	unimp
 4b0:	0000                	unimp
 4b2:	0000                	unimp
 4b4:	0001                	nop
 4b6:	005a                	c.slli	zero,0x16
	...
 4c4:	0000                	unimp
 4c6:	b000                	fsd	fs0,32(s0)
 4c8:	00000003          	lb	zero,0(zero) # 0 <__quad_stride-0x10000>
 4cc:	0000                	unimp
 4ce:	ec00                	sd	s0,24(s0)
 4d0:	00000003          	lb	zero,0(zero) # 0 <__quad_stride-0x10000>
 4d4:	0000                	unimp
 4d6:	0100                	addi	s0,sp,128
 4d8:	6300                	ld	s0,0(a4)
	...
 4ea:	03bc                	addi	a5,sp,456
 4ec:	0000                	unimp
 4ee:	0000                	unimp
 4f0:	0000                	unimp
 4f2:	03c8                	addi	a0,sp,452
 4f4:	0000                	unimp
 4f6:	0000                	unimp
 4f8:	0000                	unimp
 4fa:	0001                	nop
 4fc:	005a                	c.slli	zero,0x16
	...
 50a:	0000                	unimp
 50c:	f800                	sd	s0,48(s0)
 50e:	0002                	c.slli64	zero
 510:	0000                	unimp
 512:	0000                	unimp
 514:	9800                	0x9800
 516:	00000003          	lb	zero,0(zero) # 0 <__quad_stride-0x10000>
 51a:	0000                	unimp
 51c:	0200                	addi	s0,sp,256
 51e:	3000                	fld	fs0,32(s0)
 520:	989f 0003 0000      	0x3989f
 526:	0000                	unimp
 528:	b000                	fsd	fs0,32(s0)
 52a:	00000003          	lb	zero,0(zero) # 0 <__quad_stride-0x10000>
 52e:	0000                	unimp
 530:	0100                	addi	s0,sp,128
 532:	6300                	ld	s0,0(a4)
 534:	03ec                	addi	a1,sp,460
 536:	0000                	unimp
 538:	0000                	unimp
 53a:	0000                	unimp
 53c:	03fc                	addi	a5,sp,460
 53e:	0000                	unimp
 540:	0000                	unimp
 542:	0000                	unimp
 544:	01830003          	lb	zero,24(t1) # ffffffffffffa018 <__stack_pointer$+0xffffffff8ffda020>
 548:	009f 0000 0000      	0x9f
	...
 556:	0000                	unimp
 558:	6c00                	ld	s0,24(s0)
 55a:	0002                	c.slli64	zero
 55c:	0000                	unimp
 55e:	0000                	unimp
 560:	7c00                	ld	s0,56(s0)
 562:	0002                	c.slli64	zero
 564:	0000                	unimp
 566:	0000                	unimp
 568:	0200                	addi	s0,sp,256
 56a:	3000                	fld	fs0,32(s0)
 56c:	7c9f 0002 0000      	0x27c9f
 572:	0000                	unimp
 574:	a000                	fsd	fs0,0(s0)
 576:	0002                	c.slli64	zero
 578:	0000                	unimp
 57a:	0000                	unimp
 57c:	0100                	addi	s0,sp,128
 57e:	5f00                	lw	s0,56(a4)
	...
 590:	0228                	addi	a0,sp,264
 592:	0000                	unimp
 594:	0000                	unimp
 596:	0000                	unimp
 598:	024c                	addi	a1,sp,260
 59a:	0000                	unimp
 59c:	0000                	unimp
 59e:	0000                	unimp
 5a0:	0001                	nop
 5a2:	4c5a                	lw	s8,148(sp)
 5a4:	0002                	c.slli64	zero
 5a6:	0000                	unimp
 5a8:	0000                	unimp
 5aa:	5400                	lw	s0,40(s0)
 5ac:	0002                	c.slli64	zero
 5ae:	0000                	unimp
 5b0:	0000                	unimp
 5b2:	0400                	addi	s0,sp,512
 5b4:	f300                	sd	s0,32(a4)
 5b6:	5a01                	li	s4,-32
 5b8:	549f 0002 0000      	0x2549f
 5be:	0000                	unimp
 5c0:	6c00                	ld	s0,24(s0)
 5c2:	0002                	c.slli64	zero
 5c4:	0000                	unimp
 5c6:	0000                	unimp
 5c8:	0100                	addi	s0,sp,128
 5ca:	5a00                	lw	s0,48(a2)
	...
 5dc:	0228                	addi	a0,sp,264
 5de:	0000                	unimp
 5e0:	0000                	unimp
 5e2:	0000                	unimp
 5e4:	023c                	addi	a5,sp,264
 5e6:	0000                	unimp
 5e8:	0000                	unimp
 5ea:	0000                	unimp
 5ec:	0002                	c.slli64	zero
 5ee:	9f30                	0x9f30
 5f0:	023c                	addi	a5,sp,264
 5f2:	0000                	unimp
 5f4:	0000                	unimp
 5f6:	0000                	unimp
 5f8:	026c                	addi	a1,sp,268
 5fa:	0000                	unimp
 5fc:	0000                	unimp
 5fe:	0000                	unimp
 600:	0001                	nop
 602:	005f 0000 0000      	0x5f
	...
 610:	0000                	unimp
 612:	2800                	fld	fs0,16(s0)
 614:	0002                	c.slli64	zero
 616:	0000                	unimp
 618:	0000                	unimp
 61a:	3c00                	fld	fs0,56(s0)
 61c:	0002                	c.slli64	zero
 61e:	0000                	unimp
 620:	0000                	unimp
 622:	0200                	addi	s0,sp,256
 624:	3000                	fld	fs0,32(s0)
 626:	3c9f 0002 0000      	0x23c9f
 62c:	0000                	unimp
 62e:	6000                	ld	s0,0(s0)
 630:	0002                	c.slli64	zero
 632:	0000                	unimp
 634:	0000                	unimp
 636:	0100                	addi	s0,sp,128
 638:	5e00                	lw	s0,56(a2)
	...
 64a:	0078                	addi	a4,sp,12
 64c:	0000                	unimp
 64e:	0000                	unimp
 650:	0000                	unimp
 652:	0098                	addi	a4,sp,64
 654:	0000                	unimp
 656:	0000                	unimp
 658:	0000                	unimp
 65a:	0001                	nop
 65c:	985a                	add	a6,a6,s6
 65e:	0000                	unimp
 660:	0000                	unimp
 662:	0000                	unimp
 664:	cc00                	sw	s0,24(s0)
 666:	0000                	unimp
 668:	0000                	unimp
 66a:	0000                	unimp
 66c:	0100                	addi	s0,sp,128
 66e:	6200                	ld	s0,0(a2)
 670:	00cc                	addi	a1,sp,68
 672:	0000                	unimp
 674:	0000                	unimp
 676:	0000                	unimp
 678:	00d4                	addi	a3,sp,68
 67a:	0000                	unimp
 67c:	0000                	unimp
 67e:	0000                	unimp
 680:	0004                	0x4
 682:	9f5a01f3          	0x9f5a01f3
 686:	00d4                	addi	a3,sp,68
 688:	0000                	unimp
 68a:	0000                	unimp
 68c:	0000                	unimp
 68e:	00e4                	addi	s1,sp,76
 690:	0000                	unimp
 692:	0000                	unimp
 694:	0000                	unimp
 696:	0001                	nop
 698:	0062                	c.slli	zero,0x18
	...
 6a6:	0000                	unimp
 6a8:	7800                	ld	s0,48(s0)
 6aa:	0000                	unimp
 6ac:	0000                	unimp
 6ae:	0000                	unimp
 6b0:	9800                	0x9800
 6b2:	0000                	unimp
 6b4:	0000                	unimp
 6b6:	0000                	unimp
 6b8:	0100                	addi	s0,sp,128
 6ba:	5b00                	lw	s0,48(a4)
 6bc:	0098                	addi	a4,sp,64
 6be:	0000                	unimp
 6c0:	0000                	unimp
 6c2:	0000                	unimp
 6c4:	00e4                	addi	s1,sp,76
 6c6:	0000                	unimp
 6c8:	0000                	unimp
 6ca:	0000                	unimp
 6cc:	0004                	0x4
 6ce:	9f5b01f3          	0x9f5b01f3
	...
 6e2:	0098                	addi	a4,sp,64
 6e4:	0000                	unimp
 6e6:	0000                	unimp
 6e8:	0000                	unimp
 6ea:	00c8                	addi	a0,sp,68
 6ec:	0000                	unimp
 6ee:	0000                	unimp
 6f0:	0000                	unimp
 6f2:	0001                	nop
 6f4:	d459                	beqz	s0,682 <__quad_stride-0xf97e>
 6f6:	0000                	unimp
 6f8:	0000                	unimp
 6fa:	0000                	unimp
 6fc:	e400                	sd	s0,8(s0)
 6fe:	0000                	unimp
 700:	0000                	unimp
 702:	0000                	unimp
 704:	0100                	addi	s0,sp,128
 706:	5900                	lw	s0,48(a0)
	...
 718:	003c                	addi	a5,sp,8
 71a:	0000                	unimp
 71c:	0000                	unimp
 71e:	0000                	unimp
 720:	006c                	addi	a1,sp,12
 722:	0000                	unimp
 724:	0000                	unimp
 726:	0000                	unimp
 728:	0001                	nop
 72a:	6c5a                	ld	s8,400(sp)
 72c:	0000                	unimp
 72e:	0000                	unimp
 730:	0000                	unimp
 732:	7800                	ld	s0,48(s0)
 734:	0000                	unimp
 736:	0000                	unimp
 738:	0000                	unimp
 73a:	0400                	addi	s0,sp,512
 73c:	f300                	sd	s0,32(a4)
 73e:	5a01                	li	s4,-32
 740:	009f 0000 0000      	0x9f
	...
 756:	0000                	unimp
 758:	2c00                	fld	fs0,24(s0)
 75a:	0000                	unimp
 75c:	0000                	unimp
 75e:	0000                	unimp
 760:	0100                	addi	s0,sp,128
 762:	5a00                	lw	s0,48(a2)
 764:	002c                	addi	a1,sp,8
 766:	0000                	unimp
 768:	0000                	unimp
 76a:	0000                	unimp
 76c:	003c                	addi	a5,sp,8
 76e:	0000                	unimp
 770:	0000                	unimp
 772:	0000                	unimp
 774:	0004                	0x4
 776:	9f5a01f3          	0x9f5a01f3
	...
 78a:	0028                	addi	a0,sp,8
 78c:	0000                	unimp
 78e:	0000                	unimp
 790:	0000                	unimp
 792:	0030                	addi	a2,sp,8
 794:	0000                	unimp
 796:	0000                	unimp
 798:	0000                	unimp
 79a:	0001                	nop
 79c:	0000005b          	0x5b
	...
 7ac:	2800                	fld	fs0,16(s0)
 7ae:	0000                	unimp
 7b0:	0000                	unimp
 7b2:	0000                	unimp
 7b4:	2c00                	fld	fs0,24(s0)
 7b6:	0000                	unimp
 7b8:	0000                	unimp
 7ba:	0000                	unimp
 7bc:	0600                	addi	s0,sp,768
 7be:	7d00                	ld	s0,56(a0)
 7c0:	7a00                	ld	s0,48(a2)
 7c2:	2100                	fld	fs0,0(a0)
 7c4:	2c9f 0000 0000      	0x2c9f
 7ca:	0000                	unimp
 7cc:	3000                	fld	fs0,32(s0)
 7ce:	0000                	unimp
 7d0:	0000                	unimp
 7d2:	0000                	unimp
 7d4:	0100                	addi	s0,sp,128
 7d6:	5a00                	lw	s0,48(a2)
	...
 7e8:	002c                	addi	a1,sp,8
 7ea:	0000                	unimp
 7ec:	0000                	unimp
 7ee:	0000                	unimp
 7f0:	0030                	addi	a2,sp,8
 7f2:	0000                	unimp
 7f4:	0000                	unimp
 7f6:	0000                	unimp
 7f8:	0001                	nop
 7fa:	005a                	c.slli	zero,0x16
	...
 808:	0000                	unimp
 80a:	e400                	sd	s0,8(s0)
 80c:	0000                	unimp
 80e:	0000                	unimp
 810:	0000                	unimp
 812:	4000                	lw	s0,0(s0)
 814:	0001                	nop
 816:	0000                	unimp
 818:	0000                	unimp
 81a:	0100                	addi	s0,sp,128
 81c:	5a00                	lw	s0,48(a2)
 81e:	0140                	addi	s0,sp,132
 820:	0000                	unimp
 822:	0000                	unimp
 824:	0000                	unimp
 826:	0228                	addi	a0,sp,264
 828:	0000                	unimp
 82a:	0000                	unimp
 82c:	0000                	unimp
 82e:	0004                	0x4
 830:	9f5a01f3          	0x9f5a01f3
	...
 844:	00e4                	addi	s1,sp,76
 846:	0000                	unimp
 848:	0000                	unimp
 84a:	0000                	unimp
 84c:	0118                	addi	a4,sp,128
 84e:	0000                	unimp
 850:	0000                	unimp
 852:	0000                	unimp
 854:	0001                	nop
 856:	0001185b          	0x1185b
 85a:	0000                	unimp
 85c:	0000                	unimp
 85e:	2800                	fld	fs0,16(s0)
 860:	0002                	c.slli64	zero
 862:	0000                	unimp
 864:	0000                	unimp
 866:	0400                	addi	s0,sp,512
 868:	f300                	sd	s0,32(a4)
 86a:	5b01                	li	s6,-32
 86c:	009f 0000 0000      	0x9f
	...
 87a:	0000                	unimp
 87c:	e400                	sd	s0,8(s0)
 87e:	0000                	unimp
 880:	0000                	unimp
 882:	0000                	unimp
 884:	4000                	lw	s0,0(s0)
 886:	0001                	nop
 888:	0000                	unimp
 88a:	0000                	unimp
 88c:	0100                	addi	s0,sp,128
 88e:	5c00                	lw	s0,56(s0)
 890:	0140                	addi	s0,sp,132
 892:	0000                	unimp
 894:	0000                	unimp
 896:	0000                	unimp
 898:	0228                	addi	a0,sp,264
 89a:	0000                	unimp
 89c:	0000                	unimp
 89e:	0000                	unimp
 8a0:	0004                	0x4
 8a2:	9f5c01f3          	0x9f5c01f3
	...
 8b6:	0138                	addi	a4,sp,136
 8b8:	0000                	unimp
 8ba:	0000                	unimp
 8bc:	0000                	unimp
 8be:	0140                	addi	s0,sp,132
 8c0:	0000                	unimp
 8c2:	0000                	unimp
 8c4:	0000                	unimp
 8c6:	0001                	nop
 8c8:	405a                	0x405a
 8ca:	0001                	nop
 8cc:	0000                	unimp
 8ce:	0000                	unimp
 8d0:	6400                	ld	s0,8(s0)
 8d2:	0001                	nop
 8d4:	0000                	unimp
 8d6:	0000                	unimp
 8d8:	0100                	addi	s0,sp,128
 8da:	5900                	lw	s0,48(a0)
 8dc:	017c                	addi	a5,sp,140
 8de:	0000                	unimp
 8e0:	0000                	unimp
 8e2:	0000                	unimp
 8e4:	0200                	addi	s0,sp,256
 8e6:	0000                	unimp
 8e8:	0000                	unimp
 8ea:	0000                	unimp
 8ec:	0001                	nop
 8ee:	0059                	c.nop	22
 8f0:	0002                	c.slli64	zero
 8f2:	0000                	unimp
 8f4:	0000                	unimp
 8f6:	2400                	fld	fs0,8(s0)
 8f8:	0002                	c.slli64	zero
 8fa:	0000                	unimp
 8fc:	0000                	unimp
 8fe:	0300                	addi	s0,sp,384
 900:	7900                	ld	s0,48(a0)
 902:	9f7f                	0x9f7f
 904:	0224                	addi	s1,sp,264
 906:	0000                	unimp
 908:	0000                	unimp
 90a:	0000                	unimp
 90c:	0228                	addi	a0,sp,264
 90e:	0000                	unimp
 910:	0000                	unimp
 912:	0000                	unimp
 914:	0001                	nop
 916:	0059                	c.nop	22
	...
 924:	0000                	unimp
 926:	e400                	sd	s0,8(s0)
 928:	0001                	nop
 92a:	0000                	unimp
 92c:	0000                	unimp
 92e:	fc00                	sd	s0,56(s0)
 930:	0001                	nop
 932:	0000                	unimp
 934:	0000                	unimp
 936:	0100                	addi	s0,sp,128
 938:	6200                	ld	s0,0(a2)
 93a:	01fc                	addi	a5,sp,204
 93c:	0000                	unimp
 93e:	0000                	unimp
 940:	0000                	unimp
 942:	0200                	addi	s0,sp,256
 944:	0000                	unimp
 946:	0000                	unimp
 948:	0000                	unimp
 94a:	0002                	c.slli64	zero
 94c:	0079                	c.nop	30
 94e:	0200                	addi	s0,sp,256
 950:	0000                	unimp
 952:	0000                	unimp
 954:	0000                	unimp
 956:	00000203          	lb	tp,0(zero) # 0 <__quad_stride-0x10000>
 95a:	0000                	unimp
 95c:	0000                	unimp
 95e:	0002                	c.slli64	zero
 960:	7f79                	lui	t5,0xffffe
	...
 972:	01a0                	addi	s0,sp,200
 974:	0000                	unimp
 976:	0000                	unimp
 978:	0000                	unimp
 97a:	01a4                	addi	s1,sp,200
 97c:	0000                	unimp
 97e:	0000                	unimp
 980:	0000                	unimp
 982:	0002                	c.slli64	zero
 984:	9f4c                	0x9f4c
 986:	01a4                	addi	s1,sp,200
 988:	0000                	unimp
 98a:	0000                	unimp
 98c:	0000                	unimp
 98e:	01c0                	addi	s0,sp,196
 990:	0000                	unimp
 992:	0000                	unimp
 994:	0000                	unimp
 996:	0001                	nop
 998:	0062                	c.slli	zero,0x18
	...

Disassembly of section .debug_ranges:

0000000000000000 <.debug_ranges>:
   0:	0004                	0x4
   2:	0000                	unimp
   4:	0000                	unimp
   6:	0000                	unimp
   8:	000c                	0xc
   a:	0000                	unimp
   c:	0000                	unimp
   e:	0000                	unimp
  10:	0010                	0x10
  12:	0000                	unimp
  14:	0000                	unimp
  16:	0000                	unimp
  18:	0014                	0x14
  1a:	0000                	unimp
  1c:	0000                	unimp
  1e:	0000                	unimp
  20:	0018                	0x18
  22:	0000                	unimp
  24:	0000                	unimp
  26:	0000                	unimp
  28:	001c                	0x1c
  2a:	0000                	unimp
  2c:	0000                	unimp
  2e:	0000                	unimp
  30:	001c                	0x1c
  32:	0000                	unimp
  34:	0000                	unimp
  36:	0000                	unimp
  38:	0020                	addi	s0,sp,8
	...
  4e:	0000                	unimp
  50:	0028                	addi	a0,sp,8
  52:	0000                	unimp
  54:	0000                	unimp
  56:	0000                	unimp
  58:	0028                	addi	a0,sp,8
  5a:	0000                	unimp
  5c:	0000                	unimp
  5e:	0000                	unimp
  60:	002c                	addi	a1,sp,8
  62:	0000                	unimp
  64:	0000                	unimp
  66:	0000                	unimp
  68:	0030                	addi	a2,sp,8
	...
  7e:	0000                	unimp
  80:	0040                	addi	s0,sp,4
  82:	0000                	unimp
  84:	0000                	unimp
  86:	0000                	unimp
  88:	0048                	addi	a0,sp,4
  8a:	0000                	unimp
  8c:	0000                	unimp
  8e:	0000                	unimp
  90:	004c                	addi	a1,sp,4
  92:	0000                	unimp
  94:	0000                	unimp
  96:	0000                	unimp
  98:	0050                	addi	a2,sp,4
  9a:	0000                	unimp
  9c:	0000                	unimp
  9e:	0000                	unimp
  a0:	0054                	addi	a3,sp,4
  a2:	0000                	unimp
  a4:	0000                	unimp
  a6:	0000                	unimp
  a8:	0058                	addi	a4,sp,4
  aa:	0000                	unimp
  ac:	0000                	unimp
  ae:	0000                	unimp
  b0:	0058                	addi	a4,sp,4
  b2:	0000                	unimp
  b4:	0000                	unimp
  b6:	0000                	unimp
  b8:	005c                	addi	a5,sp,4
	...
  ce:	0000                	unimp
  d0:	0064                	addi	s1,sp,12
  d2:	0000                	unimp
  d4:	0000                	unimp
  d6:	0000                	unimp
  d8:	0064                	addi	s1,sp,12
  da:	0000                	unimp
  dc:	0000                	unimp
  de:	0000                	unimp
  e0:	006c                	addi	a1,sp,12
  e2:	0000                	unimp
  e4:	0000                	unimp
  e6:	0000                	unimp
  e8:	0070                	addi	a2,sp,12
	...
  fe:	0000                	unimp
 100:	00a0                	addi	s0,sp,72
 102:	0000                	unimp
 104:	0000                	unimp
 106:	0000                	unimp
 108:	00b0                	addi	a2,sp,72
 10a:	0000                	unimp
 10c:	0000                	unimp
 10e:	0000                	unimp
 110:	00b0                	addi	a2,sp,72
 112:	0000                	unimp
 114:	0000                	unimp
 116:	0000                	unimp
 118:	00b4                	addi	a3,sp,72
	...
 12e:	0000                	unimp
 130:	0114                	addi	a3,sp,128
 132:	0000                	unimp
 134:	0000                	unimp
 136:	0000                	unimp
 138:	011c                	addi	a5,sp,128
 13a:	0000                	unimp
 13c:	0000                	unimp
 13e:	0000                	unimp
 140:	0130                	addi	a2,sp,136
 142:	0000                	unimp
 144:	0000                	unimp
 146:	0000                	unimp
 148:	0134                	addi	a3,sp,136
 14a:	0000                	unimp
 14c:	0000                	unimp
 14e:	0000                	unimp
 150:	0138                	addi	a4,sp,136
 152:	0000                	unimp
 154:	0000                	unimp
 156:	0000                	unimp
 158:	0144                	addi	s1,sp,132
 15a:	0000                	unimp
 15c:	0000                	unimp
 15e:	0000                	unimp
 160:	017c                	addi	a5,sp,140
 162:	0000                	unimp
 164:	0000                	unimp
 166:	0000                	unimp
 168:	0228                	addi	a0,sp,264
	...
 17e:	0000                	unimp
 180:	013c                	addi	a5,sp,136
 182:	0000                	unimp
 184:	0000                	unimp
 186:	0000                	unimp
 188:	0140                	addi	s0,sp,132
 18a:	0000                	unimp
 18c:	0000                	unimp
 18e:	0000                	unimp
 190:	017c                	addi	a5,sp,140
 192:	0000                	unimp
 194:	0000                	unimp
 196:	0000                	unimp
 198:	01fc                	addi	a5,sp,204
 19a:	0000                	unimp
 19c:	0000                	unimp
 19e:	0000                	unimp
 1a0:	0200                	addi	s0,sp,256
 1a2:	0000                	unimp
 1a4:	0000                	unimp
 1a6:	0000                	unimp
 1a8:	0228                	addi	a0,sp,264
	...
 1be:	0000                	unimp
 1c0:	013c                	addi	a5,sp,136
 1c2:	0000                	unimp
 1c4:	0000                	unimp
 1c6:	0000                	unimp
 1c8:	0140                	addi	s0,sp,132
 1ca:	0000                	unimp
 1cc:	0000                	unimp
 1ce:	0000                	unimp
 1d0:	01a0                	addi	s0,sp,200
 1d2:	0000                	unimp
 1d4:	0000                	unimp
 1d6:	0000                	unimp
 1d8:	01c8                	addi	a0,sp,196
	...
 1ee:	0000                	unimp
 1f0:	0144                	addi	s1,sp,132
 1f2:	0000                	unimp
 1f4:	0000                	unimp
 1f6:	0000                	unimp
 1f8:	014c                	addi	a1,sp,132
 1fa:	0000                	unimp
 1fc:	0000                	unimp
 1fe:	0000                	unimp
 200:	014c                	addi	a1,sp,132
 202:	0000                	unimp
 204:	0000                	unimp
 206:	0000                	unimp
 208:	0150                	addi	a2,sp,132
	...
 21e:	0000                	unimp
 220:	0228                	addi	a0,sp,264
 222:	0000                	unimp
 224:	0000                	unimp
 226:	0000                	unimp
 228:	0228                	addi	a0,sp,264
 22a:	0000                	unimp
 22c:	0000                	unimp
 22e:	0000                	unimp
 230:	0234                	addi	a3,sp,264
 232:	0000                	unimp
 234:	0000                	unimp
 236:	0000                	unimp
 238:	0238                	addi	a4,sp,264
 23a:	0000                	unimp
 23c:	0000                	unimp
 23e:	0000                	unimp
 240:	023c                	addi	a5,sp,264
 242:	0000                	unimp
 244:	0000                	unimp
 246:	0000                	unimp
 248:	0244                	addi	s1,sp,260
 24a:	0000                	unimp
 24c:	0000                	unimp
 24e:	0000                	unimp
 250:	0254                	addi	a3,sp,260
 252:	0000                	unimp
 254:	0000                	unimp
 256:	0000                	unimp
 258:	026c                	addi	a1,sp,268
	...
 26e:	0000                	unimp
 270:	026c                	addi	a1,sp,268
 272:	0000                	unimp
 274:	0000                	unimp
 276:	0000                	unimp
 278:	026c                	addi	a1,sp,268
 27a:	0000                	unimp
 27c:	0000                	unimp
 27e:	0000                	unimp
 280:	0278                	addi	a4,sp,268
 282:	0000                	unimp
 284:	0000                	unimp
 286:	0000                	unimp
 288:	0284                	addi	s1,sp,320
 28a:	0000                	unimp
 28c:	0000                	unimp
 28e:	0000                	unimp
 290:	0290                	addi	a2,sp,320
 292:	0000                	unimp
 294:	0000                	unimp
 296:	0000                	unimp
 298:	02a8                	addi	a0,sp,328
	...
 2ae:	0000                	unimp
 2b0:	02ec                	addi	a1,sp,332
 2b2:	0000                	unimp
 2b4:	0000                	unimp
 2b6:	0000                	unimp
 2b8:	0324                	addi	s1,sp,392
 2ba:	0000                	unimp
 2bc:	0000                	unimp
 2be:	0000                	unimp
 2c0:	0358                	addi	a4,sp,388
 2c2:	0000                	unimp
 2c4:	0000                	unimp
 2c6:	0000                	unimp
 2c8:	0410                	addi	a2,sp,512
	...
 2de:	0000                	unimp
 2e0:	0480                	addi	s0,sp,576
 2e2:	0000                	unimp
 2e4:	0000                	unimp
 2e6:	0000                	unimp
 2e8:	04ac                	addi	a1,sp,584
 2ea:	0000                	unimp
 2ec:	0000                	unimp
 2ee:	0000                	unimp
 2f0:	04b0                	addi	a2,sp,584
 2f2:	0000                	unimp
 2f4:	0000                	unimp
 2f6:	0000                	unimp
 2f8:	04b8                	addi	a4,sp,584
	...
 30e:	0000                	unimp
 310:	04ac                	addi	a1,sp,584
 312:	0000                	unimp
 314:	0000                	unimp
 316:	0000                	unimp
 318:	04ac                	addi	a1,sp,584
 31a:	0000                	unimp
 31c:	0000                	unimp
 31e:	0000                	unimp
 320:	04b0                	addi	a2,sp,584
 322:	0000                	unimp
 324:	0000                	unimp
 326:	0000                	unimp
 328:	04b8                	addi	a4,sp,584
	...
 33e:	0000                	unimp
 340:	05c0                	addi	s0,sp,708
 342:	0000                	unimp
 344:	0000                	unimp
 346:	0000                	unimp
 348:	05dc                	addi	a5,sp,708
 34a:	0000                	unimp
 34c:	0000                	unimp
 34e:	0000                	unimp
 350:	05ec                	addi	a1,sp,716
 352:	0000                	unimp
 354:	0000                	unimp
 356:	0000                	unimp
 358:	061c                	addi	a5,sp,768
 35a:	0000                	unimp
 35c:	0000                	unimp
 35e:	0000                	unimp
 360:	0658                	addi	a4,sp,772
 362:	0000                	unimp
 364:	0000                	unimp
 366:	0000                	unimp
 368:	0740                	addi	s0,sp,900
	...
 37e:	0000                	unimp
 380:	0690                	addi	a2,sp,832
 382:	0000                	unimp
 384:	0000                	unimp
 386:	0000                	unimp
 388:	0694                	addi	a3,sp,832
 38a:	0000                	unimp
 38c:	0000                	unimp
 38e:	0000                	unimp
 390:	069c                	addi	a5,sp,832
 392:	0000                	unimp
 394:	0000                	unimp
 396:	0000                	unimp
 398:	06b0                	addi	a2,sp,840
 39a:	0000                	unimp
 39c:	0000                	unimp
 39e:	0000                	unimp
 3a0:	06b4                	addi	a3,sp,840
 3a2:	0000                	unimp
 3a4:	0000                	unimp
 3a6:	0000                	unimp
 3a8:	06b8                	addi	a4,sp,840
 3aa:	0000                	unimp
 3ac:	0000                	unimp
 3ae:	0000                	unimp
 3b0:	0724                	addi	s1,sp,904
 3b2:	0000                	unimp
 3b4:	0000                	unimp
 3b6:	0000                	unimp
 3b8:	072c                	addi	a1,sp,904
	...

Disassembly of section .debug_frame:

0000000000000000 <.debug_frame>:
   0:	000c                	0xc
   2:	0000                	unimp
   4:	ffff                	0xffff
   6:	ffff                	0xffff
   8:	0001                	nop
   a:	7c01                	lui	s8,0xfffe0
   c:	0d01                	addi	s10,s10,0
   e:	0002                	c.slli64	zero
  10:	002c                	addi	a1,sp,8
  12:	0000                	unimp
  14:	0000                	unimp
  16:	0000                	unimp
  18:	0088                	addi	a0,sp,64
  1a:	0100                	addi	s0,sp,128
  1c:	0000                	unimp
  1e:	0000                	unimp
  20:	003c                	addi	a5,sp,8
  22:	0000                	unimp
  24:	0000                	unimp
  26:	0000                	unimp
  28:	0e44                	addi	s1,sp,788
  2a:	5010                	lw	a2,32(s0)
  2c:	0288                	addi	a0,sp,320
  2e:	0c44                	addi	s1,sp,532
  30:	0008                	0x8
  32:	c85c                	sw	a5,20(s0)
  34:	020c                	addi	a1,sp,256
  36:	4410                	lw	a2,8(s0)
  38:	000e                	c.slli	zero,0x3
  3a:	0000                	unimp
  3c:	0000                	unimp
  3e:	0000                	unimp
  40:	002c                	addi	a1,sp,8
  42:	0000                	unimp
  44:	0000                	unimp
  46:	0000                	unimp
  48:	00c4                	addi	s1,sp,68
  4a:	0100                	addi	s0,sp,128
  4c:	0000                	unimp
  4e:	0000                	unimp
  50:	003c                	addi	a5,sp,8
  52:	0000                	unimp
  54:	0000                	unimp
  56:	0000                	unimp
  58:	0e44                	addi	s1,sp,788
  5a:	5010                	lw	a2,32(s0)
  5c:	0288                	addi	a0,sp,320
  5e:	0c44                	addi	s1,sp,532
  60:	0008                	0x8
  62:	c854                	sw	a3,20(s0)
  64:	020c                	addi	a1,sp,256
  66:	4c10                	lw	a2,24(s0)
  68:	000e                	c.slli	zero,0x3
  6a:	0000                	unimp
  6c:	0000                	unimp
  6e:	0000                	unimp
  70:	003c                	addi	a5,sp,8
  72:	0000                	unimp
  74:	0000                	unimp
  76:	0000                	unimp
  78:	0100                	addi	s0,sp,128
  7a:	0100                	addi	s0,sp,128
  7c:	0000                	unimp
  7e:	0000                	unimp
  80:	006c                	addi	a1,sp,12
  82:	0000                	unimp
  84:	0000                	unimp
  86:	0000                	unimp
  88:	0e44                	addi	s1,sp,788
  8a:	5020                	lw	s0,96(s0)
  8c:	0488                	addi	a0,sp,576
  8e:	0689                	addi	a3,a3,2
  90:	0892                	slli	a7,a7,0x4
  92:	0281                	addi	t0,t0,0
  94:	0c44                	addi	s1,sp,532
  96:	0008                	0x8
  98:	0a70                	addi	a2,sp,284
  9a:	44c1                	li	s1,16
  9c:	0cc8                	addi	a0,sp,596
  9e:	2002                	fld	ft0,0(sp)
  a0:	c944                	sw	s1,20(a0)
  a2:	d244                	sw	s1,36(a2)
  a4:	0e44                	addi	s1,sp,788
  a6:	4400                	lw	s0,8(s0)
  a8:	0000000b          	0xb
  ac:	0000                	unimp
  ae:	0000                	unimp
  b0:	0044                	addi	s1,sp,4
  b2:	0000                	unimp
  b4:	0000                	unimp
  b6:	0000                	unimp
  b8:	016c                	addi	a1,sp,140
  ba:	0100                	addi	s0,sp,128
  bc:	0000                	unimp
  be:	0000                	unimp
  c0:	0144                	addi	s1,sp,132
  c2:	0000                	unimp
  c4:	0000                	unimp
  c6:	0000                	unimp
  c8:	0e44                	addi	s1,sp,788
  ca:	4850                	lw	a2,20(s0)
  cc:	0488                	addi	a0,sp,576
  ce:	0689                	addi	a3,a3,2
  d0:	0c44                	addi	s1,sp,532
  d2:	0008                	0x8
  d4:	9354                	0x9354
  d6:	940a                	add	s0,s0,sp
  d8:	950c                	0x950c
  da:	810e                	mv	sp,gp
  dc:	9202                	jalr	tp
  de:	0208                	addi	a0,sp,256
  e0:	0a54                	addi	a3,sp,276
  e2:	44c1                	li	s1,16
  e4:	0cc8                	addi	a0,sp,596
  e6:	5002                	0x5002
  e8:	c944                	sw	s1,20(a0)
  ea:	d244                	sw	s1,36(a2)
  ec:	d344                	sw	s1,36(a4)
  ee:	d444                	sw	s1,44(s0)
  f0:	d544                	sw	s1,44(a0)
  f2:	0e44                	addi	s1,sp,788
  f4:	4400                	lw	s0,8(s0)
  f6:	002c000b          	0x2c000b
  fa:	0000                	unimp
  fc:	0000                	unimp
  fe:	0000                	unimp
 100:	02b0                	addi	a2,sp,328
 102:	0100                	addi	s0,sp,128
 104:	0000                	unimp
 106:	0000                	unimp
 108:	0044                	addi	s1,sp,4
 10a:	0000                	unimp
 10c:	0000                	unimp
 10e:	0000                	unimp
 110:	0e44                	addi	s1,sp,788
 112:	4410                	lw	a2,8(s0)
 114:	0288                	addi	a0,sp,320
 116:	0c44                	addi	s1,sp,532
 118:	0008                	0x8
 11a:	0a54                	addi	a3,sp,276
 11c:	0cc8                	addi	a0,sp,596
 11e:	1002                	c.slli	zero,0x20
 120:	0e48                	addi	a0,sp,788
 122:	4400                	lw	s0,8(s0)
 124:	0000000b          	0xb
 128:	002c                	addi	a1,sp,8
 12a:	0000                	unimp
 12c:	0000                	unimp
 12e:	0000                	unimp
 130:	02f4                	addi	a3,sp,332
 132:	0100                	addi	s0,sp,128
 134:	0000                	unimp
 136:	0000                	unimp
 138:	003c                	addi	a5,sp,8
 13a:	0000                	unimp
 13c:	0000                	unimp
 13e:	0000                	unimp
 140:	0e44                	addi	s1,sp,788
 142:	4410                	lw	a2,8(s0)
 144:	0288                	addi	a0,sp,320
 146:	0c44                	addi	s1,sp,532
 148:	0008                	0x8
 14a:	0a50                	addi	a2,sp,276
 14c:	0cc8                	addi	a0,sp,596
 14e:	1002                	c.slli	zero,0x20
 150:	0e44                	addi	s1,sp,788
 152:	4400                	lw	s0,8(s0)
 154:	0000000b          	0xb
 158:	0054                	addi	a3,sp,4
 15a:	0000                	unimp
 15c:	0000                	unimp
 15e:	0000                	unimp
 160:	0330                	addi	a2,sp,392
 162:	0100                	addi	s0,sp,128
 164:	0000                	unimp
 166:	0000                	unimp
 168:	0168                	addi	a0,sp,140
 16a:	0000                	unimp
 16c:	0000                	unimp
 16e:	0000                	unimp
 170:	0e44                	addi	s1,sp,788
 172:	08d0                	addi	a2,sp,84
 174:	885c                	0x885c
 176:	8904                	0x8904
 178:	9406                	add	s0,s0,ra
 17a:	950c                	0x950c
 17c:	960e                	add	a2,a2,gp
 17e:	9710                	0x9710
 180:	9812                	add	a6,a6,tp
 182:	4414                	lw	a3,8(s0)
 184:	080c                	addi	a1,sp,16
 186:	4c00                	lw	s0,24(s0)
 188:	0281                	addi	t0,t0,0
 18a:	0892                	slli	a7,a7,0x4
 18c:	54020a93          	addi	s5,tp,1344 # ffffffffffff9540 <__stack_pointer$+0xffffffff8ffd9548>
 190:	c10a                	sw	sp,128(sp)
 192:	c844                	sw	s1,20(s0)
 194:	020c                	addi	a1,sp,256
 196:	08d0                	addi	a2,sp,84
 198:	c944                	sw	s1,20(a0)
 19a:	d244                	sw	s1,36(a2)
 19c:	d344                	sw	s1,36(a4)
 19e:	d444                	sw	s1,44(s0)
 1a0:	d544                	sw	s1,44(a0)
 1a2:	d644                	sw	s1,44(a2)
 1a4:	d744                	sw	s1,44(a4)
 1a6:	d844                	sw	s1,52(s0)
 1a8:	0e44                	addi	s1,sp,788
 1aa:	4400                	lw	s0,8(s0)
 1ac:	0000000b          	0xb
 1b0:	002c                	addi	a1,sp,8
 1b2:	0000                	unimp
 1b4:	0000                	unimp
 1b6:	0000                	unimp
 1b8:	0498                	addi	a4,sp,576
 1ba:	0100                	addi	s0,sp,128
 1bc:	0000                	unimp
 1be:	0000                	unimp
 1c0:	002c                	addi	a1,sp,8
 1c2:	0000                	unimp
 1c4:	0000                	unimp
 1c6:	0000                	unimp
 1c8:	0e44                	addi	s1,sp,788
 1ca:	4410                	lw	a2,8(s0)
 1cc:	0288                	addi	a0,sp,320
 1ce:	0c44                	addi	s1,sp,532
 1d0:	0008                	0x8
 1d2:	0a50                	addi	a2,sp,276
 1d4:	0cc8                	addi	a0,sp,596
 1d6:	1002                	c.slli	zero,0x20
 1d8:	0e44                	addi	s1,sp,788
 1da:	4400                	lw	s0,8(s0)
 1dc:	0000000b          	0xb
 1e0:	0064                	addi	s1,sp,12
 1e2:	0000                	unimp
 1e4:	0000                	unimp
 1e6:	0000                	unimp
 1e8:	04c4                	addi	s1,sp,580
 1ea:	0100                	addi	s0,sp,128
 1ec:	0000                	unimp
 1ee:	0000                	unimp
 1f0:	0304                	addi	s1,sp,384
 1f2:	0000                	unimp
 1f4:	0000                	unimp
 1f6:	0000                	unimp
 1f8:	0e44                	addi	s1,sp,788
 1fa:	0190                	addi	a2,sp,192
 1fc:	8874                	0x8874
 1fe:	8104                	0x8104
 200:	8902                	jr	s2
 202:	9206                	add	tp,tp,ra
 204:	9308                	0x9308
 206:	940a                	add	s0,s0,sp
 208:	950c                	0x950c
 20a:	960e                	add	a2,a2,gp
 20c:	9710                	0x9710
 20e:	9812                	add	a6,a6,tp
 210:	9914                	0x9914
 212:	9a16                	add	s4,s4,t0
 214:	9b18                	0x9b18
 216:	441a                	lw	s0,132(sp)
 218:	080c                	addi	a1,sp,16
 21a:	0300                	addi	s0,sp,384
 21c:	01a8                	addi	a0,sp,200
 21e:	c10a                	sw	sp,128(sp)
 220:	c844                	sw	s1,20(s0)
 222:	020c                	addi	a1,sp,256
 224:	0190                	addi	a2,sp,192
 226:	c944                	sw	s1,20(a0)
 228:	d244                	sw	s1,36(a2)
 22a:	d344                	sw	s1,36(a4)
 22c:	d444                	sw	s1,44(s0)
 22e:	d544                	sw	s1,44(a0)
 230:	d644                	sw	s1,44(a2)
 232:	d744                	sw	s1,44(a4)
 234:	d844                	sw	s1,52(s0)
 236:	d944                	sw	s1,52(a0)
 238:	da44                	sw	s1,52(a2)
 23a:	db44                	sw	s1,52(a4)
 23c:	0e44                	addi	s1,sp,788
 23e:	4400                	lw	s0,8(s0)
 240:	0000000b          	0xb
 244:	0000                	unimp
	...
