
test/bootrom.elf:     file format elf64-littleriscv


Disassembly of section .text:

0000000001000000 <_start>:
 1000000:	301022f3          	csrr	t0,misa
 1000004:	0202ce63          	bltz	t0,1000040 <_cva6_init>

0000000001000008 <_snitch_park>:
 1000008:	f1402573          	csrr	a0,mhartid
 100000c:	00000297          	auipc	t0,0x0
 1000010:	02028293          	addi	t0,t0,32 # 100002c <_snitch_resume>
 1000014:	30529073          	csrw	mtvec,t0
 1000018:	30046073          	csrsi	mstatus,8
 100001c:	000802b7          	lui	t0,0x80
 1000020:	00828293          	addi	t0,t0,8 # 80008 <__quad_stride+0x70008>
 1000024:	30429073          	csrw	mie,t0
 1000028:	10500073          	wfi

000000000100002c <_snitch_resume>:
 100002c:	01000297          	auipc	t0,0x1000
 1000030:	fec28293          	addi	t0,t0,-20 # 2000018 <__soc_ctrl_scratch1>
 1000034:	0002a283          	lw	t0,0(t0)
 1000038:	000280e7          	jalr	t0
 100003c:	fcdff06f          	j	1000008 <_snitch_park>

0000000001000040 <_cva6_init>:
 1000040:	f1502473          	csrr	s0,0xf15
 1000044:	02841413          	slli	s0,s0,0x28
 1000048:	00001197          	auipc	gp,0x1
 100004c:	86018193          	addi	gp,gp,-1952 # 10008a8 <__global_pointer$>
 1000050:	0081e1b3          	or	gp,gp,s0
 1000054:	6f020117          	auipc	sp,0x6f020
 1000058:	fa410113          	addi	sp,sp,-92 # 7001fff8 <__stack_pointer$>
 100005c:	00816133          	or	sp,sp,s0
 1000060:	00000317          	auipc	t1,0x0
 1000064:	02030313          	addi	t1,t1,32 # 1000080 <exception>
 1000068:	30531073          	csrw	mtvec,t1
 100006c:	458000ef          	jal	ra,10004c4 <bootrom>
 1000070:	0010029b          	addiw	t0,zero,1
 1000074:	01f29293          	slli	t0,t0,0x1f
 1000078:	000280e7          	jalr	t0
 100007c:	f85ff06f          	j	1000000 <_start>

0000000001000080 <exception>:
 1000080:	10500073          	wfi
 1000084:	ffdff06f          	j	1000080 <exception>

0000000001000088 <write_serial>:
 1000088:	ff010113          	addi	sp,sp,-16
 100008c:	6f000697          	auipc	a3,0x6f000
 1000090:	f7c6b683          	ld	a3,-132(a3) # 70000008 <__base_spm_sym+0x8>
 1000094:	00813423          	sd	s0,8(sp)
 1000098:	01468713          	addi	a4,a3,20
 100009c:	01010413          	addi	s0,sp,16
 10000a0:	00a76733          	or	a4,a4,a0
 10000a4:	00074783          	lbu	a5,0(a4)
 10000a8:	0207f793          	andi	a5,a5,32
 10000ac:	fe078ce3          	beqz	a5,10000a4 <write_serial+0x1c>
 10000b0:	00d56533          	or	a0,a0,a3
 10000b4:	00b50023          	sb	a1,0(a0)
 10000b8:	00813403          	ld	s0,8(sp)
 10000bc:	01010113          	addi	sp,sp,16
 10000c0:	00008067          	ret

00000000010000c4 <read_serial>:
 10000c4:	ff010113          	addi	sp,sp,-16
 10000c8:	6f000697          	auipc	a3,0x6f000
 10000cc:	f406b683          	ld	a3,-192(a3) # 70000008 <__base_spm_sym+0x8>
 10000d0:	00813423          	sd	s0,8(sp)
 10000d4:	01468713          	addi	a4,a3,20
 10000d8:	01010413          	addi	s0,sp,16
 10000dc:	00a76733          	or	a4,a4,a0
 10000e0:	00074783          	lbu	a5,0(a4)
 10000e4:	0017f793          	andi	a5,a5,1
 10000e8:	fe078ce3          	beqz	a5,10000e0 <read_serial+0x1c>
 10000ec:	00813403          	ld	s0,8(sp)
 10000f0:	00d56533          	or	a0,a0,a3
 10000f4:	00054503          	lbu	a0,0(a0)
 10000f8:	01010113          	addi	sp,sp,16
 10000fc:	00008067          	ret

0000000001000100 <print_uart>:
 1000100:	fe010113          	addi	sp,sp,-32
 1000104:	00813823          	sd	s0,16(sp)
 1000108:	00913423          	sd	s1,8(sp)
 100010c:	01213023          	sd	s2,0(sp)
 1000110:	00113c23          	sd	ra,24(sp)
 1000114:	02010413          	addi	s0,sp,32
 1000118:	00050913          	mv	s2,a0
 100011c:	00058493          	mv	s1,a1
 1000120:	0004c583          	lbu	a1,0(s1)
 1000124:	02059c63          	bnez	a1,100015c <print_uart+0x5c>
 1000128:	6f000517          	auipc	a0,0x6f000
 100012c:	ee053503          	ld	a0,-288(a0) # 70000008 <__base_spm_sym+0x8>
 1000130:	01450513          	addi	a0,a0,20
 1000134:	01256533          	or	a0,a0,s2
 1000138:	00054783          	lbu	a5,0(a0)
 100013c:	0407f793          	andi	a5,a5,64
 1000140:	fe078ce3          	beqz	a5,1000138 <print_uart+0x38>
 1000144:	01813083          	ld	ra,24(sp)
 1000148:	01013403          	ld	s0,16(sp)
 100014c:	00813483          	ld	s1,8(sp)
 1000150:	00013903          	ld	s2,0(sp)
 1000154:	02010113          	addi	sp,sp,32
 1000158:	00008067          	ret
 100015c:	00090513          	mv	a0,s2
 1000160:	f29ff0ef          	jal	ra,1000088 <write_serial>
 1000164:	00148493          	addi	s1,s1,1
 1000168:	fb9ff06f          	j	1000120 <print_uart+0x20>

000000000100016c <print_uart_hex.constprop.1>:
 100016c:	fb010113          	addi	sp,sp,-80
 1000170:	04813023          	sd	s0,64(sp)
 1000174:	02913c23          	sd	s1,56(sp)
 1000178:	05010413          	addi	s0,sp,80
 100017c:	03313423          	sd	s3,40(sp)
 1000180:	03413023          	sd	s4,32(sp)
 1000184:	01513c23          	sd	s5,24(sp)
 1000188:	04113423          	sd	ra,72(sp)
 100018c:	03213823          	sd	s2,48(sp)
 1000190:	00000797          	auipc	a5,0x0
 1000194:	63878793          	addi	a5,a5,1592 # 10007c8 <bootrom+0x304>
 1000198:	0007b783          	ld	a5,0(a5)
 100019c:	02059593          	slli	a1,a1,0x20
 10001a0:	0205d593          	srli	a1,a1,0x20
 10001a4:	faf43823          	sd	a5,-80(s0)
 10001a8:	00000797          	auipc	a5,0x0
 10001ac:	62878793          	addi	a5,a5,1576 # 10007d0 <bootrom+0x30c>
 10001b0:	0007b783          	ld	a5,0(a5)
 10001b4:	00060a13          	mv	s4,a2
 10001b8:	00050493          	mv	s1,a0
 10001bc:	faf43c23          	sd	a5,-72(s0)
 10001c0:	00b509b3          	add	s3,a0,a1
 10001c4:	ffc00a93          	li	s5,-4
 10001c8:	0334ee63          	bltu	s1,s3,1000204 <print_uart_hex.constprop.1+0x98>
 10001cc:	6f000717          	auipc	a4,0x6f000
 10001d0:	e3c73703          	ld	a4,-452(a4) # 70000008 <__base_spm_sym+0x8>
 10001d4:	01474783          	lbu	a5,20(a4)
 10001d8:	0407f793          	andi	a5,a5,64
 10001dc:	fe078ce3          	beqz	a5,10001d4 <print_uart_hex.constprop.1+0x68>
 10001e0:	04813083          	ld	ra,72(sp)
 10001e4:	04013403          	ld	s0,64(sp)
 10001e8:	03813483          	ld	s1,56(sp)
 10001ec:	03013903          	ld	s2,48(sp)
 10001f0:	02813983          	ld	s3,40(sp)
 10001f4:	02013a03          	ld	s4,32(sp)
 10001f8:	01813a83          	ld	s5,24(sp)
 10001fc:	05010113          	addi	sp,sp,80
 1000200:	00008067          	ret
 1000204:	00f4f793          	andi	a5,s1,15
 1000208:	06079063          	bnez	a5,1000268 <print_uart_hex.constprop.1+0xfc>
 100020c:	040a0e63          	beqz	s4,1000268 <print_uart_hex.constprop.1+0xfc>
 1000210:	00d00593          	li	a1,13
 1000214:	00000513          	li	a0,0
 1000218:	e71ff0ef          	jal	ra,1000088 <write_serial>
 100021c:	00a00593          	li	a1,10
 1000220:	00000513          	li	a0,0
 1000224:	e65ff0ef          	jal	ra,1000088 <write_serial>
 1000228:	01c00913          	li	s2,28
 100022c:	0124d7b3          	srl	a5,s1,s2
 1000230:	fc040713          	addi	a4,s0,-64
 1000234:	00f7f793          	andi	a5,a5,15
 1000238:	00f707b3          	add	a5,a4,a5
 100023c:	ff07c583          	lbu	a1,-16(a5)
 1000240:	00000513          	li	a0,0
 1000244:	ffc9091b          	addiw	s2,s2,-4
 1000248:	e41ff0ef          	jal	ra,1000088 <write_serial>
 100024c:	ff5910e3          	bne	s2,s5,100022c <print_uart_hex.constprop.1+0xc0>
 1000250:	03a00593          	li	a1,58
 1000254:	00000513          	li	a0,0
 1000258:	e31ff0ef          	jal	ra,1000088 <write_serial>
 100025c:	02000593          	li	a1,32
 1000260:	00000513          	li	a0,0
 1000264:	e25ff0ef          	jal	ra,1000088 <write_serial>
 1000268:	0004c903          	lbu	s2,0(s1)
 100026c:	fc040713          	addi	a4,s0,-64
 1000270:	00000513          	li	a0,0
 1000274:	00495793          	srli	a5,s2,0x4
 1000278:	00f707b3          	add	a5,a4,a5
 100027c:	ff07c583          	lbu	a1,-16(a5)
 1000280:	00f97913          	andi	s2,s2,15
 1000284:	00148493          	addi	s1,s1,1
 1000288:	e01ff0ef          	jal	ra,1000088 <write_serial>
 100028c:	fc040793          	addi	a5,s0,-64
 1000290:	01278933          	add	s2,a5,s2
 1000294:	ff094583          	lbu	a1,-16(s2)
 1000298:	00000513          	li	a0,0
 100029c:	dedff0ef          	jal	ra,1000088 <write_serial>
 10002a0:	02000593          	li	a1,32
 10002a4:	00000513          	li	a0,0
 10002a8:	de1ff0ef          	jal	ra,1000088 <write_serial>
 10002ac:	f1dff06f          	j	10001c8 <print_uart_hex.constprop.1+0x5c>

00000000010002b0 <compute_parity>:
 10002b0:	ff010113          	addi	sp,sp,-16
 10002b4:	00813423          	sd	s0,8(sp)
 10002b8:	01010413          	addi	s0,sp,16
 10002bc:	00000713          	li	a4,0
 10002c0:	00000793          	li	a5,0
 10002c4:	0007069b          	sext.w	a3,a4
 10002c8:	00b6ea63          	bltu	a3,a1,10002dc <compute_parity+0x2c>
 10002cc:	00813403          	ld	s0,8(sp)
 10002d0:	00078513          	mv	a0,a5
 10002d4:	01010113          	addi	sp,sp,16
 10002d8:	00008067          	ret
 10002dc:	00e506b3          	add	a3,a0,a4
 10002e0:	0006c683          	lbu	a3,0(a3)
 10002e4:	00170713          	addi	a4,a4,1
 10002e8:	00d787b3          	add	a5,a5,a3
 10002ec:	0ff7f793          	andi	a5,a5,255
 10002f0:	fd5ff06f          	j	10002c4 <compute_parity+0x14>

00000000010002f4 <memcpy>:
 10002f4:	ff010113          	addi	sp,sp,-16
 10002f8:	00813423          	sd	s0,8(sp)
 10002fc:	01010413          	addi	s0,sp,16
 1000300:	00000793          	li	a5,0
 1000304:	0007871b          	sext.w	a4,a5
 1000308:	00c76863          	bltu	a4,a2,1000318 <memcpy+0x24>
 100030c:	00813403          	ld	s0,8(sp)
 1000310:	01010113          	addi	sp,sp,16
 1000314:	00008067          	ret
 1000318:	00f58733          	add	a4,a1,a5
 100031c:	00074683          	lbu	a3,0(a4)
 1000320:	00f50733          	add	a4,a0,a5
 1000324:	00178793          	addi	a5,a5,1
 1000328:	00d70023          	sb	a3,0(a4)
 100032c:	fd9ff06f          	j	1000304 <memcpy+0x10>

0000000001000330 <uart_xmodem>:
 1000330:	bb010113          	addi	sp,sp,-1104
 1000334:	44813023          	sd	s0,1088(sp)
 1000338:	42913c23          	sd	s1,1080(sp)
 100033c:	43413023          	sd	s4,1056(sp)
 1000340:	41513c23          	sd	s5,1048(sp)
 1000344:	41613823          	sd	s6,1040(sp)
 1000348:	41713423          	sd	s7,1032(sp)
 100034c:	41813023          	sd	s8,1024(sp)
 1000350:	45010413          	addi	s0,sp,1104
 1000354:	44113423          	sd	ra,1096(sp)
 1000358:	43213823          	sd	s2,1072(sp)
 100035c:	43313423          	sd	s3,1064(sp)
 1000360:	00058c13          	mv	s8,a1
 1000364:	01500593          	li	a1,21
 1000368:	00050493          	mv	s1,a0
 100036c:	00000a13          	li	s4,0
 1000370:	d19ff0ef          	jal	ra,1000088 <write_serial>
 1000374:	00400b93          	li	s7,4
 1000378:	00100b13          	li	s6,1
 100037c:	bb040a93          	addi	s5,s0,-1104
 1000380:	00048513          	mv	a0,s1
 1000384:	d41ff0ef          	jal	ra,10000c4 <read_serial>
 1000388:	00050993          	mv	s3,a0
 100038c:	05751a63          	bne	a0,s7,10003e0 <uart_xmodem+0xb0>
 1000390:	00048513          	mv	a0,s1
 1000394:	00600593          	li	a1,6
 1000398:	cf1ff0ef          	jal	ra,1000088 <write_serial>
 100039c:	00000597          	auipc	a1,0x0
 10003a0:	43c58593          	addi	a1,a1,1084 # 10007d8 <bootrom+0x314>
 10003a4:	00048513          	mv	a0,s1
 10003a8:	d59ff0ef          	jal	ra,1000100 <print_uart>
 10003ac:	0000100f          	fence.i
 10003b0:	44813083          	ld	ra,1096(sp)
 10003b4:	44013403          	ld	s0,1088(sp)
 10003b8:	43813483          	ld	s1,1080(sp)
 10003bc:	43013903          	ld	s2,1072(sp)
 10003c0:	42813983          	ld	s3,1064(sp)
 10003c4:	42013a03          	ld	s4,1056(sp)
 10003c8:	41813a83          	ld	s5,1048(sp)
 10003cc:	41013b03          	ld	s6,1040(sp)
 10003d0:	40813b83          	ld	s7,1032(sp)
 10003d4:	40013c03          	ld	s8,1024(sp)
 10003d8:	45010113          	addi	sp,sp,1104
 10003dc:	00008067          	ret
 10003e0:	fff9879b          	addiw	a5,s3,-1
 10003e4:	0ff7f793          	andi	a5,a5,255
 10003e8:	01800593          	li	a1,24
 10003ec:	0afb6063          	bltu	s6,a5,100048c <uart_xmodem+0x15c>
 10003f0:	00048513          	mv	a0,s1
 10003f4:	cd1ff0ef          	jal	ra,10000c4 <read_serial>
 10003f8:	00050913          	mv	s2,a0
 10003fc:	00048513          	mv	a0,s1
 1000400:	cc5ff0ef          	jal	ra,10000c4 <read_serial>
 1000404:	fff54513          	not	a0,a0
 1000408:	0ff57513          	andi	a0,a0,255
 100040c:	07251e63          	bne	a0,s2,1000488 <uart_xmodem+0x158>
 1000410:	40000913          	li	s2,1024
 1000414:	01699463          	bne	s3,s6,100041c <uart_xmodem+0xec>
 1000418:	08000913          	li	s2,128
 100041c:	00000993          	li	s3,0
 1000420:	0009879b          	sext.w	a5,s3
 1000424:	00048513          	mv	a0,s1
 1000428:	0527c663          	blt	a5,s2,1000474 <uart_xmodem+0x144>
 100042c:	c99ff0ef          	jal	ra,10000c4 <read_serial>
 1000430:	0009091b          	sext.w	s2,s2
 1000434:	00050993          	mv	s3,a0
 1000438:	00090593          	mv	a1,s2
 100043c:	000a8513          	mv	a0,s5
 1000440:	e71ff0ef          	jal	ra,10002b0 <compute_parity>
 1000444:	04a99263          	bne	s3,a0,1000488 <uart_xmodem+0x158>
 1000448:	00600593          	li	a1,6
 100044c:	00048513          	mv	a0,s1
 1000450:	c39ff0ef          	jal	ra,1000088 <write_serial>
 1000454:	020a1513          	slli	a0,s4,0x20
 1000458:	02055513          	srli	a0,a0,0x20
 100045c:	00090613          	mv	a2,s2
 1000460:	000a8593          	mv	a1,s5
 1000464:	01850533          	add	a0,a0,s8
 1000468:	e8dff0ef          	jal	ra,10002f4 <memcpy>
 100046c:	01490a3b          	addw	s4,s2,s4
 1000470:	f11ff06f          	j	1000380 <uart_xmodem+0x50>
 1000474:	c51ff0ef          	jal	ra,10000c4 <read_serial>
 1000478:	013a87b3          	add	a5,s5,s3
 100047c:	00a78023          	sb	a0,0(a5)
 1000480:	00198993          	addi	s3,s3,1
 1000484:	f9dff06f          	j	1000420 <uart_xmodem+0xf0>
 1000488:	01500593          	li	a1,21
 100048c:	00048513          	mv	a0,s1
 1000490:	bf9ff0ef          	jal	ra,1000088 <write_serial>
 1000494:	eedff06f          	j	1000380 <uart_xmodem+0x50>

0000000001000498 <delay_cycles>:
 1000498:	ff010113          	addi	sp,sp,-16
 100049c:	00813423          	sd	s0,8(sp)
 10004a0:	01010413          	addi	s0,sp,16
 10004a4:	b00027f3          	csrr	a5,mcycle
 10004a8:	00a787b3          	add	a5,a5,a0
 10004ac:	00f76863          	bltu	a4,a5,10004bc <delay_cycles+0x24>
 10004b0:	00813403          	ld	s0,8(sp)
 10004b4:	01010113          	addi	sp,sp,16
 10004b8:	00008067          	ret
 10004bc:	b0002773          	csrr	a4,mcycle
 10004c0:	fedff06f          	j	10004ac <delay_cycles+0x14>

00000000010004c4 <bootrom>:
 10004c4:	f7010113          	addi	sp,sp,-144
 10004c8:	08813023          	sd	s0,128(sp)
 10004cc:	08113423          	sd	ra,136(sp)
 10004d0:	06913c23          	sd	s1,120(sp)
 10004d4:	07213823          	sd	s2,112(sp)
 10004d8:	07313423          	sd	s3,104(sp)
 10004dc:	07413023          	sd	s4,96(sp)
 10004e0:	05513c23          	sd	s5,88(sp)
 10004e4:	05613823          	sd	s6,80(sp)
 10004e8:	05713423          	sd	s7,72(sp)
 10004ec:	05813023          	sd	s8,64(sp)
 10004f0:	03913c23          	sd	s9,56(sp)
 10004f4:	03a13823          	sd	s10,48(sp)
 10004f8:	03b13423          	sd	s11,40(sp)
 10004fc:	09010413          	addi	s0,sp,144
 1000500:	f15027f3          	csrr	a5,0xf15
 1000504:	f6f42e23          	sw	a5,-132(s0)
 1000508:	6f000797          	auipc	a5,0x6f000
 100050c:	b007b783          	ld	a5,-1280(a5) # 70000008 <__base_spm_sym+0x8>
 1000510:	00078223          	sb	zero,4(a5)
 1000514:	f8000713          	li	a4,-128
 1000518:	00e78623          	sb	a4,12(a5)
 100051c:	00300713          	li	a4,3
 1000520:	00e78023          	sb	a4,0(a5)
 1000524:	00078223          	sb	zero,4(a5)
 1000528:	00e78623          	sb	a4,12(a5)
 100052c:	fc700713          	li	a4,-57
 1000530:	00e78423          	sb	a4,8(a5)
 1000534:	00100993          	li	s3,1
 1000538:	02200713          	li	a4,34
 100053c:	00e78823          	sb	a4,16(a5)
 1000540:	01f99a13          	slli	s4,s3,0x1f
 1000544:	00000b17          	auipc	s6,0x0
 1000548:	2acb0b13          	addi	s6,s6,684 # 10007f0 <bootrom+0x32c>
 100054c:	00000b97          	auipc	s7,0x0
 1000550:	2acb8b93          	addi	s7,s7,684 # 10007f8 <bootrom+0x334>
 1000554:	00000c17          	auipc	s8,0x0
 1000558:	2c4c0c13          	addi	s8,s8,708 # 1000818 <bootrom+0x354>
 100055c:	00000c97          	auipc	s9,0x0
 1000560:	2c4c8c93          	addi	s9,s9,708 # 1000820 <bootrom+0x35c>
 1000564:	f7c40a93          	addi	s5,s0,-132
 1000568:	f8040913          	addi	s2,s0,-128
 100056c:	000b0593          	mv	a1,s6
 1000570:	00000513          	li	a0,0
 1000574:	f9443023          	sd	s4,-128(s0)
 1000578:	b89ff0ef          	jal	ra,1000100 <print_uart>
 100057c:	000b8593          	mv	a1,s7
 1000580:	00000513          	li	a0,0
 1000584:	b7dff0ef          	jal	ra,1000100 <print_uart>
 1000588:	000c0593          	mv	a1,s8
 100058c:	00000513          	li	a0,0
 1000590:	b71ff0ef          	jal	ra,1000100 <print_uart>
 1000594:	000c8593          	mv	a1,s9
 1000598:	00000513          	li	a0,0
 100059c:	b65ff0ef          	jal	ra,1000100 <print_uart>
 10005a0:	00000613          	li	a2,0
 10005a4:	00100593          	li	a1,1
 10005a8:	000a8513          	mv	a0,s5
 10005ac:	bc1ff0ef          	jal	ra,100016c <print_uart_hex.constprop.1>
 10005b0:	00000597          	auipc	a1,0x0
 10005b4:	28058593          	addi	a1,a1,640 # 1000830 <bootrom+0x36c>
 10005b8:	00000513          	li	a0,0
 10005bc:	b45ff0ef          	jal	ra,1000100 <print_uart>
 10005c0:	00000597          	auipc	a1,0x0
 10005c4:	2a058593          	addi	a1,a1,672 # 1000860 <bootrom+0x39c>
 10005c8:	00000513          	li	a0,0
 10005cc:	b35ff0ef          	jal	ra,1000100 <print_uart>
 10005d0:	00000597          	auipc	a1,0x0
 10005d4:	2a858593          	addi	a1,a1,680 # 1000878 <bootrom+0x3b4>
 10005d8:	00000513          	li	a0,0
 10005dc:	b25ff0ef          	jal	ra,1000100 <print_uart>
 10005e0:	00000613          	li	a2,0
 10005e4:	00800593          	li	a1,8
 10005e8:	00090513          	mv	a0,s2
 10005ec:	b81ff0ef          	jal	ra,100016c <print_uart_hex.constprop.1>
 10005f0:	00000597          	auipc	a1,0x0
 10005f4:	2a858593          	addi	a1,a1,680 # 1000898 <bootrom+0x3d4>
 10005f8:	00000513          	li	a0,0
 10005fc:	b05ff0ef          	jal	ra,1000100 <print_uart>
 1000600:	00000613          	li	a2,0
 1000604:	00800593          	li	a1,8
 1000608:	00090513          	mv	a0,s2
 100060c:	b61ff0ef          	jal	ra,100016c <print_uart_hex.constprop.1>
 1000610:	00000597          	auipc	a1,0x0
 1000614:	2a858593          	addi	a1,a1,680 # 10008b8 <__global_pointer$+0x10>
 1000618:	00000513          	li	a0,0
 100061c:	ae5ff0ef          	jal	ra,1000100 <print_uart>
 1000620:	00000613          	li	a2,0
 1000624:	00800593          	li	a1,8
 1000628:	00090513          	mv	a0,s2
 100062c:	b41ff0ef          	jal	ra,100016c <print_uart_hex.constprop.1>
 1000630:	00000513          	li	a0,0
 1000634:	a91ff0ef          	jal	ra,10000c4 <read_serial>
 1000638:	fcf5051b          	addiw	a0,a0,-49
 100063c:	0b350263          	beq	a0,s3,10006e0 <bootrom+0x21c>
 1000640:	02a9c263          	blt	s3,a0,1000664 <bootrom+0x1a0>
 1000644:	f20514e3          	bnez	a0,100056c <bootrom+0xa8>
 1000648:	00000597          	auipc	a1,0x0
 100064c:	29058593          	addi	a1,a1,656 # 10008d8 <__global_pointer$+0x30>
 1000650:	00000513          	li	a0,0
 1000654:	aadff0ef          	jal	ra,1000100 <print_uart>
 1000658:	f1402573          	csrr	a0,mhartid
 100065c:	00100073          	ebreak
 1000660:	f0dff06f          	j	100056c <bootrom+0xa8>
 1000664:	00200793          	li	a5,2
 1000668:	0af50263          	beq	a0,a5,100070c <bootrom+0x248>
 100066c:	00300793          	li	a5,3
 1000670:	eef51ee3          	bne	a0,a5,100056c <bootrom+0xa8>
 1000674:	00000597          	auipc	a1,0x0
 1000678:	2f458593          	addi	a1,a1,756 # 1000968 <__global_pointer$+0xc0>
 100067c:	00000513          	li	a0,0
 1000680:	a81ff0ef          	jal	ra,1000100 <print_uart>
 1000684:	00090513          	mv	a0,s2
 1000688:	00000613          	li	a2,0
 100068c:	00800593          	li	a1,8
 1000690:	addff0ef          	jal	ra,100016c <print_uart_hex.constprop.1>
 1000694:	00000597          	auipc	a1,0x0
 1000698:	2ec58593          	addi	a1,a1,748 # 1000980 <__global_pointer$+0xd8>
 100069c:	00000513          	li	a0,0
 10006a0:	a61ff0ef          	jal	ra,1000100 <print_uart>
 10006a4:	08813083          	ld	ra,136(sp)
 10006a8:	08013403          	ld	s0,128(sp)
 10006ac:	07813483          	ld	s1,120(sp)
 10006b0:	07013903          	ld	s2,112(sp)
 10006b4:	06813983          	ld	s3,104(sp)
 10006b8:	06013a03          	ld	s4,96(sp)
 10006bc:	05813a83          	ld	s5,88(sp)
 10006c0:	05013b03          	ld	s6,80(sp)
 10006c4:	04813b83          	ld	s7,72(sp)
 10006c8:	04013c03          	ld	s8,64(sp)
 10006cc:	03813c83          	ld	s9,56(sp)
 10006d0:	03013d03          	ld	s10,48(sp)
 10006d4:	02813d83          	ld	s11,40(sp)
 10006d8:	09010113          	addi	sp,sp,144
 10006dc:	00008067          	ret
 10006e0:	02faf537          	lui	a0,0x2faf
 10006e4:	08050513          	addi	a0,a0,128 # 2faf080 <__base_i2c_sym+0xfab080>
 10006e8:	db1ff0ef          	jal	ra,1000498 <delay_cycles>
 10006ec:	f8043583          	ld	a1,-128(s0)
 10006f0:	00000513          	li	a0,0
 10006f4:	c3dff0ef          	jal	ra,1000330 <uart_xmodem>
 10006f8:	00000597          	auipc	a1,0x0
 10006fc:	0e058593          	addi	a1,a1,224 # 10007d8 <bootrom+0x314>
 1000700:	00000513          	li	a0,0
 1000704:	9fdff0ef          	jal	ra,1000100 <print_uart>
 1000708:	e65ff06f          	j	100056c <bootrom+0xa8>
 100070c:	00000597          	auipc	a1,0x0
 1000710:	1f458593          	addi	a1,a1,500 # 1000900 <__global_pointer$+0x58>
 1000714:	00000513          	li	a0,0
 1000718:	f8840d13          	addi	s10,s0,-120
 100071c:	9e5ff0ef          	jal	ra,1000100 <print_uart>
 1000720:	000d0493          	mv	s1,s10
 1000724:	00d00d93          	li	s11,13
 1000728:	00000513          	li	a0,0
 100072c:	999ff0ef          	jal	ra,10000c4 <read_serial>
 1000730:	00ad0023          	sb	a0,0(s10)
 1000734:	07b51c63          	bne	a0,s11,10007ac <bootrom+0x2e8>
 1000738:	00048793          	mv	a5,s1
 100073c:	000d0023          	sb	zero,0(s10)
 1000740:	00000493          	li	s1,0
 1000744:	00a00693          	li	a3,10
 1000748:	0007c703          	lbu	a4,0(a5)
 100074c:	06071463          	bnez	a4,10007b4 <bootrom+0x2f0>
 1000750:	00000597          	auipc	a1,0x0
 1000754:	1e058593          	addi	a1,a1,480 # 1000930 <__global_pointer$+0x88>
 1000758:	00000513          	li	a0,0
 100075c:	9a5ff0ef          	jal	ra,1000100 <print_uart>
 1000760:	00000613          	li	a2,0
 1000764:	00090513          	mv	a0,s2
 1000768:	00800593          	li	a1,8
 100076c:	a01ff0ef          	jal	ra,100016c <print_uart_hex.constprop.1>
 1000770:	00000597          	auipc	a1,0x0
 1000774:	1d858593          	addi	a1,a1,472 # 1000948 <__global_pointer$+0xa0>
 1000778:	00000513          	li	a0,0
 100077c:	985ff0ef          	jal	ra,1000100 <print_uart>
 1000780:	f8043503          	ld	a0,-128(s0)
 1000784:	00100613          	li	a2,1
 1000788:	0004859b          	sext.w	a1,s1
 100078c:	9e1ff0ef          	jal	ra,100016c <print_uart_hex.constprop.1>
 1000790:	00000597          	auipc	a1,0x0
 1000794:	1c058593          	addi	a1,a1,448 # 1000950 <__global_pointer$+0xa8>
 1000798:	00000513          	li	a0,0
 100079c:	965ff0ef          	jal	ra,1000100 <print_uart>
 10007a0:	00000513          	li	a0,0
 10007a4:	921ff0ef          	jal	ra,10000c4 <read_serial>
 10007a8:	dc5ff06f          	j	100056c <bootrom+0xa8>
 10007ac:	001d0d13          	addi	s10,s10,1
 10007b0:	f79ff06f          	j	1000728 <bootrom+0x264>
 10007b4:	02d484b3          	mul	s1,s1,a3
 10007b8:	00178793          	addi	a5,a5,1
 10007bc:	fd048493          	addi	s1,s1,-48
 10007c0:	009704b3          	add	s1,a4,s1
 10007c4:	f85ff06f          	j	1000748 <bootrom+0x284>
